ARM GAS  C:\Users\user\AppData\Local\Temp\cclTfpIl.s 			page 1


   1              		.syntax unified
   2              		.cpu cortex-m0
   3              		.fpu softvfp
   4              		.eabi_attribute 20, 1
   5              		.eabi_attribute 21, 1
   6              		.eabi_attribute 23, 3
   7              		.eabi_attribute 24, 1
   8              		.eabi_attribute 25, 1
   9              		.eabi_attribute 26, 1
  10              		.eabi_attribute 30, 1
  11              		.eabi_attribute 34, 0
  12              		.eabi_attribute 18, 4
  13              		.thumb
  14              		.syntax unified
  15              		.file	"main.c"
  16              		.text
  17              	.Ltext0:
  18              		.cfi_sections	.debug_frame
  19              		.section	.text.init_hardware,"ax",%progbits
  20              		.align	2
  21              		.global	init_hardware
  22              		.code	16
  23              		.thumb_func
  24              		.type	init_hardware, %function
  25              	init_hardware:
  26              	.LFB33:
  27              		.file 1 "main.c"
   1:main.c        **** /* ========================================
   2:main.c        ****  * HC-SR04 test program for CY8CKIT-044
   3:main.c        ****  * For this appliation, VDD must be set to 5V
   4:main.c        ****  * Set J9 Jumper to 3+2.
   5:main.c        ****  * ========================================
   6:main.c        **** */
   7:main.c        **** #include "project.h"
   8:main.c        **** #include <stdio.h>
   9:main.c        **** 
  10:main.c        **** /* https://keisan.casio.jp/exec/system/1231998943 */
  11:main.c        **** #define MACH    346.513     /* Mach 1.0 at 25.0 */
  12:main.c        **** 
  13:main.c        **** char str[128] ; /* print buffer */
  14:main.c        **** 
  15:main.c        **** void init_hardware(void)
  16:main.c        **** {
  28              		.loc 1 16 0
  29              		.cfi_startproc
  30              		@ args = 0, pretend = 0, frame = 0
  31              		@ frame_needed = 0, uses_anonymous_args = 0
  32 0000 10B5     		push	{r4, lr}
  33              		.cfi_def_cfa_offset 8
  34              		.cfi_offset 4, -8
  35              		.cfi_offset 14, -4
  17:main.c        ****     CyGlobalIntEnable; /* Enable global interrupts. */
  36              		.loc 1 17 0
  37              		.syntax divided
  38              	@ 17 "main.c" 1
  39 0002 62B6     		CPSIE   i
  40              	@ 0 "" 2
ARM GAS  C:\Users\user\AppData\Local\Temp\cclTfpIl.s 			page 2


  18:main.c        ****     Clock_12MHz_Start() ;
  41              		.loc 1 18 0
  42              		.thumb
  43              		.syntax unified
  44 0004 FFF7FEFF 		bl	Clock_12MHz_Start
  45              	.LVL0:
  19:main.c        ****     UART_Start() ;
  46              		.loc 1 19 0
  47 0008 FFF7FEFF 		bl	UART_Start
  48              	.LVL1:
  20:main.c        ****     Timer_Start() ;
  49              		.loc 1 20 0
  50 000c FFF7FEFF 		bl	Timer_Start
  51              	.LVL2:
  21:main.c        **** }
  52              		.loc 1 21 0
  53              		@ sp needed
  54 0010 10BD     		pop	{r4, pc}
  55              		.cfi_endproc
  56              	.LFE33:
  57              		.size	init_hardware, .-init_hardware
  58 0012 C046     		.section	.text.pulse_trigger,"ax",%progbits
  59              		.align	2
  60              		.global	pulse_trigger
  61              		.code	16
  62              		.thumb_func
  63              		.type	pulse_trigger, %function
  64              	pulse_trigger:
  65              	.LFB34:
  22:main.c        **** 
  23:main.c        **** /**
  24:main.c        ****  * pulse_trigger
  25:main.c        ****  * Generate 10us high pulse from trigger pin
  26:main.c        ****  */
  27:main.c        **** void pulse_trigger(void)
  28:main.c        **** {
  66              		.loc 1 28 0
  67              		.cfi_startproc
  68              		@ args = 0, pretend = 0, frame = 0
  69              		@ frame_needed = 0, uses_anonymous_args = 0
  70 0000 10B5     		push	{r4, lr}
  71              		.cfi_def_cfa_offset 8
  72              		.cfi_offset 4, -8
  73              		.cfi_offset 14, -4
  29:main.c        ****     Trigger_Write(1) ;
  74              		.loc 1 29 0
  75 0002 0120     		movs	r0, #1
  76 0004 FFF7FEFF 		bl	Trigger_Write
  77              	.LVL3:
  30:main.c        ****     CyDelayUs(10) ;
  78              		.loc 1 30 0
  79 0008 0A20     		movs	r0, #10
  80 000a FFF7FEFF 		bl	CyDelayUs
  81              	.LVL4:
  31:main.c        ****     Trigger_Write(0) ;
  82              		.loc 1 31 0
  83 000e 0020     		movs	r0, #0
ARM GAS  C:\Users\user\AppData\Local\Temp\cclTfpIl.s 			page 3


  84 0010 FFF7FEFF 		bl	Trigger_Write
  85              	.LVL5:
  32:main.c        **** }
  86              		.loc 1 32 0
  87              		@ sp needed
  88 0014 10BD     		pop	{r4, pc}
  89              		.cfi_endproc
  90              	.LFE34:
  91              		.size	pulse_trigger, .-pulse_trigger
  92 0016 C046     		.section	.text.measure_echo,"ax",%progbits
  93              		.align	2
  94              		.global	measure_echo
  95              		.code	16
  96              		.thumb_func
  97              		.type	measure_echo, %function
  98              	measure_echo:
  99              	.LFB35:
  33:main.c        **** 
  34:main.c        **** /**
  35:main.c        ****  * measure_echo
  36:main.c        ****  * Measure high pulse width of echo pin
  37:main.c        ****  */
  38:main.c        **** uint32_t measure_echo(void)
  39:main.c        **** {
 100              		.loc 1 39 0
 101              		.cfi_startproc
 102              		@ args = 0, pretend = 0, frame = 0
 103              		@ frame_needed = 0, uses_anonymous_args = 0
 104 0000 10B5     		push	{r4, lr}
 105              		.cfi_def_cfa_offset 8
 106              		.cfi_offset 4, -8
 107              		.cfi_offset 14, -4
  40:main.c        ****     uint32_t length ;
  41:main.c        **** #if 0
  42:main.c        ****     while(Echo_Read() == 0) ;
  43:main.c        ****     Timer_WriteCounter(0) ;
  44:main.c        ****     while(Echo_Read() != 0) ;
  45:main.c        ****     length = Timer_ReadCounter() ;
  46:main.c        ****     return( length ) ;    
  47:main.c        **** #else
  48:main.c        ****     Timer_Stop() ;
 108              		.loc 1 48 0
 109 0002 FFF7FEFF 		bl	Timer_Stop
 110              	.LVL6:
  49:main.c        ****     Timer_WriteCounter(0) ;
 111              		.loc 1 49 0
 112 0006 0020     		movs	r0, #0
 113 0008 FFF7FEFF 		bl	Timer_WriteCounter
 114              	.LVL7:
 115              	.L4:
  50:main.c        ****     while(Echo_Read() == 0) ;
 116              		.loc 1 50 0 discriminator 1
 117 000c FFF7FEFF 		bl	Echo_Read
 118              	.LVL8:
 119 0010 0028     		cmp	r0, #0
 120 0012 FBD0     		beq	.L4
  51:main.c        ****     Timer_Start() ;
ARM GAS  C:\Users\user\AppData\Local\Temp\cclTfpIl.s 			page 4


 121              		.loc 1 51 0
 122 0014 FFF7FEFF 		bl	Timer_Start
 123              	.LVL9:
 124              	.L5:
  52:main.c        ****     while(Echo_Read() != 0) ;
 125              		.loc 1 52 0 discriminator 1
 126 0018 FFF7FEFF 		bl	Echo_Read
 127              	.LVL10:
 128 001c 0028     		cmp	r0, #0
 129 001e FBD1     		bne	.L5
  53:main.c        ****     Timer_Stop() ;
 130              		.loc 1 53 0
 131 0020 FFF7FEFF 		bl	Timer_Stop
 132              	.LVL11:
  54:main.c        ****     length = Timer_ReadCounter() ;
 133              		.loc 1 54 0
 134 0024 FFF7FEFF 		bl	Timer_ReadCounter
 135              	.LVL12:
  55:main.c        ****     return( length ) ; 
  56:main.c        **** #endif
  57:main.c        **** }
 136              		.loc 1 57 0
 137              		@ sp needed
 138 0028 10BD     		pop	{r4, pc}
 139              		.cfi_endproc
 140              	.LFE35:
 141              		.size	measure_echo, .-measure_echo
 142              		.global	__aeabi_ui2d
 143              		.global	__aeabi_dmul
 144              		.global	__aeabi_ddiv
 145              		.global	__aeabi_d2iz
 146              		.global	__aeabi_idivmod
 147 002a C046     		.section	.text.print_value,"ax",%progbits
 148              		.align	2
 149              		.global	print_value
 150              		.code	16
 151              		.thumb_func
 152              		.type	print_value, %function
 153              	print_value:
 154              	.LFB36:
  58:main.c        **** 
  59:main.c        **** /**
  60:main.c        ****  * print_value
  61:main.c        ****  * Calculate distance from the duration
  62:main.c        ****  * Since the duration include both way of the trip
  63:main.c        ****  * to get the distance, the real duration is the half 
  64:main.c        ****  * of the duration.
  65:main.c        ****  *
  66:main.c        ****  * distance = duration * MACH(m/s) * 100(cm) / (2 * 12000000(Hz)) ;
  67:main.c        ****  *
  68:main.c        ****  */
  69:main.c        **** void print_value(uint32_t duration)
  70:main.c        **** {
 155              		.loc 1 70 0
 156              		.cfi_startproc
 157              		@ args = 0, pretend = 0, frame = 0
 158              		@ frame_needed = 0, uses_anonymous_args = 0
ARM GAS  C:\Users\user\AppData\Local\Temp\cclTfpIl.s 			page 5


 159              	.LVL13:
 160 0000 70B5     		push	{r4, r5, r6, lr}
 161              		.cfi_def_cfa_offset 16
 162              		.cfi_offset 4, -16
 163              		.cfi_offset 5, -12
 164              		.cfi_offset 6, -8
 165              		.cfi_offset 14, -4
 166              	.LVL14:
  71:main.c        ****     double distance = 0.0 ;
  72:main.c        ****     
  73:main.c        ****     distance = (double)(duration) * MACH / 240000.0 ;
 167              		.loc 1 73 0
 168 0002 FFF7FEFF 		bl	__aeabi_ui2d
 169              	.LVL15:
 170 0006 114A     		ldr	r2, .L7
 171 0008 114B     		ldr	r3, .L7+4
 172 000a FFF7FEFF 		bl	__aeabi_dmul
 173              	.LVL16:
 174 000e 0022     		movs	r2, #0
 175 0010 104B     		ldr	r3, .L7+8
 176 0012 FFF7FEFF 		bl	__aeabi_ddiv
 177              	.LVL17:
 178 0016 0400     		movs	r4, r0
 179 0018 0D00     		movs	r5, r1
 180              	.LVL18:
  74:main.c        ****     sprintf(str, "%d.%02dcm\n", (int)distance, (int)(100 * distance)%100) ;
 181              		.loc 1 74 0
 182 001a 0022     		movs	r2, #0
 183 001c 0E4B     		ldr	r3, .L7+12
 184 001e FFF7FEFF 		bl	__aeabi_dmul
 185              	.LVL19:
 186 0022 FFF7FEFF 		bl	__aeabi_d2iz
 187              	.LVL20:
 188 0026 6421     		movs	r1, #100
 189 0028 FFF7FEFF 		bl	__aeabi_idivmod
 190              	.LVL21:
 191 002c 0E00     		movs	r6, r1
 192 002e 2000     		movs	r0, r4
 193 0030 2900     		movs	r1, r5
 194 0032 FFF7FEFF 		bl	__aeabi_d2iz
 195              	.LVL22:
 196 0036 0200     		movs	r2, r0
 197 0038 084C     		ldr	r4, .L7+16
 198              	.LVL23:
 199 003a 3300     		movs	r3, r6
 200 003c 0849     		ldr	r1, .L7+20
 201 003e 2000     		movs	r0, r4
 202 0040 FFF7FEFF 		bl	sprintf
 203              	.LVL24:
  75:main.c        ****     UART_UartPutString(str) ;
 204              		.loc 1 75 0
 205 0044 2000     		movs	r0, r4
 206 0046 FFF7FEFF 		bl	UART_UartPutString
 207              	.LVL25:
  76:main.c        **** }
 208              		.loc 1 76 0
 209              		@ sp needed
ARM GAS  C:\Users\user\AppData\Local\Temp\cclTfpIl.s 			page 6


 210 004a 70BD     		pop	{r4, r5, r6, pc}
 211              	.L8:
 212              		.align	2
 213              	.L7:
 214 004c 91ED7C3F 		.word	1065151889
 215 0050 35A87540 		.word	1081452597
 216 0054 004C0D41 		.word	1091390464
 217 0058 00005940 		.word	1079574528
 218 005c 00000000 		.word	str
 219 0060 00000000 		.word	.LC0
 220              		.cfi_endproc
 221              	.LFE36:
 222              		.size	print_value, .-print_value
 223              		.section	.text.main,"ax",%progbits
 224              		.align	2
 225              		.global	main
 226              		.code	16
 227              		.thumb_func
 228              		.type	main, %function
 229              	main:
 230              	.LFB37:
  77:main.c        **** 
  78:main.c        **** int main(void)
  79:main.c        **** {
 231              		.loc 1 79 0
 232              		.cfi_startproc
 233              		@ args = 0, pretend = 0, frame = 0
 234              		@ frame_needed = 0, uses_anonymous_args = 0
 235 0000 10B5     		push	{r4, lr}
 236              		.cfi_def_cfa_offset 8
 237              		.cfi_offset 4, -8
 238              		.cfi_offset 14, -4
  80:main.c        ****     uint32_t duration ;
  81:main.c        ****     
  82:main.c        ****     init_hardware() ;
 239              		.loc 1 82 0
 240 0002 FFF7FEFF 		bl	init_hardware
 241              	.LVL26:
 242              	.L10:
  83:main.c        **** 
  84:main.c        ****     for(;;) {
  85:main.c        ****         pulse_trigger() ;
 243              		.loc 1 85 0 discriminator 1
 244 0006 FFF7FEFF 		bl	pulse_trigger
 245              	.LVL27:
  86:main.c        ****         duration = measure_echo() ;
 246              		.loc 1 86 0 discriminator 1
 247 000a FFF7FEFF 		bl	measure_echo
 248              	.LVL28:
  87:main.c        ****         print_value(duration) ;
 249              		.loc 1 87 0 discriminator 1
 250 000e FFF7FEFF 		bl	print_value
 251              	.LVL29:
  88:main.c        ****         CyDelay(1000) ;
 252              		.loc 1 88 0 discriminator 1
 253 0012 FA20     		movs	r0, #250
 254 0014 8000     		lsls	r0, r0, #2
ARM GAS  C:\Users\user\AppData\Local\Temp\cclTfpIl.s 			page 7


 255 0016 FFF7FEFF 		bl	CyDelay
 256              	.LVL30:
 257 001a F4E7     		b	.L10
 258              		.cfi_endproc
 259              	.LFE37:
 260              		.size	main, .-main
 261              		.comm	str,128,4
 262              		.section	.rodata.str1.4,"aMS",%progbits,1
 263              		.align	2
 264              	.LC0:
 265 0000 25642E25 		.ascii	"%d.%02dcm\012\000"
 265      30326463 
 265      6D0A00
 266              		.text
 267              	.Letext0:
 268              		.file 2 "c:\\program files (x86)\\cypress\\psoc creator\\4.4\\psoc creator\\import\\gnu\\arm\\5.4.
 269              		.file 3 "c:\\program files (x86)\\cypress\\psoc creator\\4.4\\psoc creator\\import\\gnu\\arm\\5.4.
 270              		.file 4 "Generated_Source\\PSoC4/Clock_12MHz.h"
 271              		.file 5 "Generated_Source\\PSoC4/UART.h"
 272              		.file 6 "Generated_Source\\PSoC4/Timer.h"
 273              		.file 7 "Generated_Source\\PSoC4/Trigger.h"
 274              		.file 8 "Generated_Source\\PSoC4/CyLib.h"
 275              		.file 9 "Generated_Source\\PSoC4/Echo.h"
 276              		.file 10 "c:\\program files (x86)\\cypress\\psoc creator\\4.4\\psoc creator\\import\\gnu\\arm\\5.4
 277              		.file 11 "Generated_Source\\PSoC4/UART_SPI_UART.h"