ARM GAS  C:\Users\Zeynep\AppData\Local\Temp\ccn1phKf.s 			page 1


   1              		.syntax unified
   2              		.cpu cortex-m0
   3              		.fpu softvfp
   4              		.eabi_attribute 20, 1
   5              		.eabi_attribute 21, 1
   6              		.eabi_attribute 23, 3
   7              		.eabi_attribute 24, 1
   8              		.eabi_attribute 25, 1
   9              		.eabi_attribute 26, 1
  10              		.eabi_attribute 30, 1
  11              		.eabi_attribute 34, 0
  12              		.eabi_attribute 18, 4
  13              		.thumb
  14              		.syntax unified
  15              		.file	"main.c"
  16              		.text
  17              	.Ltext0:
  18              		.cfi_sections	.debug_frame
  19              		.section	.text.delay,"ax",%progbits
  20              		.align	2
  21              		.global	delay
  22              		.code	16
  23              		.thumb_func
  24              		.type	delay, %function
  25              	delay:
  26              	.LFB32:
  27              		.file 1 "main.c"
   1:main.c        **** 
   2:main.c        **** #include "project.h"
   3:main.c        **** 
   4:main.c        **** void delay ()
   5:main.c        **** {
  28              		.loc 1 5 0
  29              		.cfi_startproc
  30              		@ args = 0, pretend = 0, frame = 0
  31              		@ frame_needed = 0, uses_anonymous_args = 0
  32              		@ link register save eliminated.
  33              	.LVL0:
   6:main.c        ****     int a;
   7:main.c        ****     for(a=0;a<1000;a++)
  34              		.loc 1 7 0
  35 0000 0023     		movs	r3, #0
  36 0002 00E0     		b	.L2
  37              	.LVL1:
  38              	.L3:
  39              		.loc 1 7 0 is_stmt 0 discriminator 3
  40 0004 0133     		adds	r3, r3, #1
  41              	.LVL2:
  42              	.L2:
  43              		.loc 1 7 0 discriminator 1
  44 0006 024A     		ldr	r2, .L4
  45 0008 9342     		cmp	r3, r2
  46 000a FBDD     		ble	.L3
   8:main.c        ****     { 
   9:main.c        ****     }
  10:main.c        **** }
  47              		.loc 1 10 0 is_stmt 1
ARM GAS  C:\Users\Zeynep\AppData\Local\Temp\ccn1phKf.s 			page 2


  48              		@ sp needed
  49 000c 7047     		bx	lr
  50              	.L5:
  51 000e C046     		.align	2
  52              	.L4:
  53 0010 E7030000 		.word	999
  54              		.cfi_endproc
  55              	.LFE32:
  56              		.size	delay, .-delay
  57              		.section	.text.main,"ax",%progbits
  58              		.align	2
  59              		.global	main
  60              		.code	16
  61              		.thumb_func
  62              		.type	main, %function
  63              	main:
  64              	.LFB33:
  11:main.c        **** unsigned int sutun[8]={0x7F,0xBF,0xDF,0xEF,0xF7,0xFB,0xFD,0xFE};
  12:main.c        **** unsigned int satir[8]={0x00,0x7E,0x40,0x40,0x40,0x00,0x00,0x00};
  13:main.c        **** int main(void)
  14:main.c        **** {
  65              		.loc 1 14 0
  66              		.cfi_startproc
  67              		@ args = 0, pretend = 0, frame = 0
  68              		@ frame_needed = 0, uses_anonymous_args = 0
  69 0000 70B5     		push	{r4, r5, r6, lr}
  70              		.cfi_def_cfa_offset 16
  71              		.cfi_offset 4, -16
  72              		.cfi_offset 5, -12
  73              		.cfi_offset 6, -8
  74              		.cfi_offset 14, -4
  15:main.c        ****     CyGlobalIntEnable; 
  75              		.loc 1 15 0
  76              		.syntax divided
  77              	@ 15 "main.c" 1
  78 0002 62B6     		CPSIE   i
  79              	@ 0 "" 2
  16:main.c        **** 
  17:main.c        ****        int i,j;
  18:main.c        **** 
  19:main.c        ****     for(;;)
  20:main.c        ****     {
  21:main.c        ****         for(j=1;j<8;j++)
  22:main.c        ****         {
  23:main.c        ****            for(i=0;j<8;i++)        
  80              		.loc 1 23 0
  81              		.thumb
  82              		.syntax unified
  83 0004 0025     		movs	r5, #0
  84              	.L7:
  85              	.LVL3:
  24:main.c        ****         {
  25:main.c        ****             Pin_1_Write(satir[i]);
  86              		.loc 1 25 0 discriminator 1
  87 0006 064E     		ldr	r6, .L8
  88 0008 AC00     		lsls	r4, r5, #2
  89 000a 305D     		ldrb	r0, [r6, r4]
ARM GAS  C:\Users\Zeynep\AppData\Local\Temp\ccn1phKf.s 			page 3


  90 000c FFF7FEFF 		bl	Pin_1_Write
  91              	.LVL4:
  26:main.c        ****             Pin_2_Write(sutun[i]);
  92              		.loc 1 26 0 discriminator 1
  93 0010 3419     		adds	r4, r6, r4
  94 0012 206A     		ldr	r0, [r4, #32]
  95 0014 C0B2     		uxtb	r0, r0
  96 0016 FFF7FEFF 		bl	Pin_2_Write
  97              	.LVL5:
  23:main.c        ****         {
  98              		.loc 1 23 0 discriminator 1
  99 001a 0135     		adds	r5, r5, #1
 100              	.LVL6:
 101 001c F3E7     		b	.L7
 102              	.L9:
 103 001e C046     		.align	2
 104              	.L8:
 105 0020 00000000 		.word	.LANCHOR0
 106              		.cfi_endproc
 107              	.LFE33:
 108              		.size	main, .-main
 109              		.global	satir
 110              		.global	sutun
 111              		.data
 112              		.align	2
 113              		.set	.LANCHOR0,. + 0
 114              		.type	satir, %object
 115              		.size	satir, 32
 116              	satir:
 117 0000 00000000 		.word	0
 118 0004 7E000000 		.word	126
 119 0008 40000000 		.word	64
 120 000c 40000000 		.word	64
 121 0010 40000000 		.word	64
 122 0014 00000000 		.word	0
 123 0018 00000000 		.word	0
 124 001c 00000000 		.word	0
 125              		.type	sutun, %object
 126              		.size	sutun, 32
 127              	sutun:
 128 0020 7F000000 		.word	127
 129 0024 BF000000 		.word	191
 130 0028 DF000000 		.word	223
 131 002c EF000000 		.word	239
 132 0030 F7000000 		.word	247
 133 0034 FB000000 		.word	251
 134 0038 FD000000 		.word	253
 135 003c FE000000 		.word	254
 136              		.text
 137              	.Letext0:
 138              		.file 2 "Generated_Source\\PSoC4/Pin_1.h"
 139              		.file 3 "Generated_Source\\PSoC4/Pin_2.h"