ARM GAS  C:\Users\Zeynep\AppData\Local\Temp\cc8P1ar8.s 			page 1


   1              		.syntax unified
   2              		.cpu cortex-m0
   3              		.fpu softvfp
   4              		.eabi_attribute 20, 1
   5              		.eabi_attribute 21, 1
   6              		.eabi_attribute 23, 3
   7              		.eabi_attribute 24, 1
   8              		.eabi_attribute 25, 1
   9              		.eabi_attribute 26, 1
  10              		.eabi_attribute 30, 1
  11              		.eabi_attribute 34, 0
  12              		.eabi_attribute 18, 4
  13              		.thumb
  14              		.syntax unified
  15              		.file	"Segment_disp.c"
  16              		.text
  17              	.Ltext0:
  18              		.cfi_sections	.debug_frame
  19              		.section	.text.Segment_disp_SetDriveMode,"ax",%progbits
  20              		.align	2
  21              		.global	Segment_disp_SetDriveMode
  22              		.code	16
  23              		.thumb_func
  24              		.type	Segment_disp_SetDriveMode, %function
  25              	Segment_disp_SetDriveMode:
  26              	.LFB0:
  27              		.file 1 "Generated_Source\\PSoC4\\Segment_disp.c"
   1:Generated_Source\PSoC4/Segment_disp.c **** /*******************************************************************************
   2:Generated_Source\PSoC4/Segment_disp.c **** * File Name: Segment_disp.c  
   3:Generated_Source\PSoC4/Segment_disp.c **** * Version 2.20
   4:Generated_Source\PSoC4/Segment_disp.c **** *
   5:Generated_Source\PSoC4/Segment_disp.c **** * Description:
   6:Generated_Source\PSoC4/Segment_disp.c **** *  This file contains API to enable firmware control of a Pins component.
   7:Generated_Source\PSoC4/Segment_disp.c **** *
   8:Generated_Source\PSoC4/Segment_disp.c **** ********************************************************************************
   9:Generated_Source\PSoC4/Segment_disp.c **** * Copyright 2008-2015, Cypress Semiconductor Corporation.  All rights reserved.
  10:Generated_Source\PSoC4/Segment_disp.c **** * You may use this file only in accordance with the license, terms, conditions, 
  11:Generated_Source\PSoC4/Segment_disp.c **** * disclaimers, and limitations in the end user license agreement accompanying 
  12:Generated_Source\PSoC4/Segment_disp.c **** * the software package with which this file was provided.
  13:Generated_Source\PSoC4/Segment_disp.c **** *******************************************************************************/
  14:Generated_Source\PSoC4/Segment_disp.c **** 
  15:Generated_Source\PSoC4/Segment_disp.c **** #include "cytypes.h"
  16:Generated_Source\PSoC4/Segment_disp.c **** #include "Segment_disp.h"
  17:Generated_Source\PSoC4/Segment_disp.c **** 
  18:Generated_Source\PSoC4/Segment_disp.c **** 
  19:Generated_Source\PSoC4/Segment_disp.c **** #if defined(Segment_disp__PC)
  20:Generated_Source\PSoC4/Segment_disp.c ****     #define Segment_disp_SetP4PinDriveMode(shift, mode)  \
  21:Generated_Source\PSoC4/Segment_disp.c ****     do { \
  22:Generated_Source\PSoC4/Segment_disp.c ****         Segment_disp_PC =   (Segment_disp_PC & \
  23:Generated_Source\PSoC4/Segment_disp.c ****                                 (uint32)(~(uint32)(Segment_disp_DRIVE_MODE_IND_MASK << \
  24:Generated_Source\PSoC4/Segment_disp.c ****                                 (Segment_disp_DRIVE_MODE_BITS * (shift))))) | \
  25:Generated_Source\PSoC4/Segment_disp.c ****                                 (uint32)((uint32)(mode) << \
  26:Generated_Source\PSoC4/Segment_disp.c ****                                 (Segment_disp_DRIVE_MODE_BITS * (shift))); \
  27:Generated_Source\PSoC4/Segment_disp.c ****     } while (0)
  28:Generated_Source\PSoC4/Segment_disp.c **** #else
  29:Generated_Source\PSoC4/Segment_disp.c ****     #if (CY_PSOC4_4200L)
  30:Generated_Source\PSoC4/Segment_disp.c ****         #define Segment_disp_SetP4PinDriveMode(shift, mode)  \
ARM GAS  C:\Users\Zeynep\AppData\Local\Temp\cc8P1ar8.s 			page 2


  31:Generated_Source\PSoC4/Segment_disp.c ****         do { \
  32:Generated_Source\PSoC4/Segment_disp.c ****             Segment_disp_USBIO_CTRL_REG = (Segment_disp_USBIO_CTRL_REG & \
  33:Generated_Source\PSoC4/Segment_disp.c ****                                     (uint32)(~(uint32)(Segment_disp_DRIVE_MODE_IND_MASK << \
  34:Generated_Source\PSoC4/Segment_disp.c ****                                     (Segment_disp_DRIVE_MODE_BITS * (shift))))) | \
  35:Generated_Source\PSoC4/Segment_disp.c ****                                     (uint32)((uint32)(mode) << \
  36:Generated_Source\PSoC4/Segment_disp.c ****                                     (Segment_disp_DRIVE_MODE_BITS * (shift))); \
  37:Generated_Source\PSoC4/Segment_disp.c ****         } while (0)
  38:Generated_Source\PSoC4/Segment_disp.c ****     #endif
  39:Generated_Source\PSoC4/Segment_disp.c **** #endif
  40:Generated_Source\PSoC4/Segment_disp.c ****   
  41:Generated_Source\PSoC4/Segment_disp.c **** 
  42:Generated_Source\PSoC4/Segment_disp.c **** #if defined(Segment_disp__PC) || (CY_PSOC4_4200L) 
  43:Generated_Source\PSoC4/Segment_disp.c ****     /*******************************************************************************
  44:Generated_Source\PSoC4/Segment_disp.c ****     * Function Name: Segment_disp_SetDriveMode
  45:Generated_Source\PSoC4/Segment_disp.c ****     ****************************************************************************//**
  46:Generated_Source\PSoC4/Segment_disp.c ****     *
  47:Generated_Source\PSoC4/Segment_disp.c ****     * \brief Sets the drive mode for each of the Pins component's pins.
  48:Generated_Source\PSoC4/Segment_disp.c ****     * 
  49:Generated_Source\PSoC4/Segment_disp.c ****     * <b>Note</b> This affects all pins in the Pins component instance. Use the
  50:Generated_Source\PSoC4/Segment_disp.c ****     * Per-Pin APIs if you wish to control individual pin's drive modes.
  51:Generated_Source\PSoC4/Segment_disp.c ****     *
  52:Generated_Source\PSoC4/Segment_disp.c ****     * <b>Note</b> USBIOs have limited drive functionality. Refer to the Drive Mode
  53:Generated_Source\PSoC4/Segment_disp.c ****     * parameter for more information.
  54:Generated_Source\PSoC4/Segment_disp.c ****     *
  55:Generated_Source\PSoC4/Segment_disp.c ****     * \param mode
  56:Generated_Source\PSoC4/Segment_disp.c ****     *  Mode for the selected signals. Valid options are documented in 
  57:Generated_Source\PSoC4/Segment_disp.c ****     *  \ref driveMode.
  58:Generated_Source\PSoC4/Segment_disp.c ****     *
  59:Generated_Source\PSoC4/Segment_disp.c ****     * \return
  60:Generated_Source\PSoC4/Segment_disp.c ****     *  None
  61:Generated_Source\PSoC4/Segment_disp.c ****     *
  62:Generated_Source\PSoC4/Segment_disp.c ****     * \sideeffect
  63:Generated_Source\PSoC4/Segment_disp.c ****     *  If you use read-modify-write operations that are not atomic, the ISR can
  64:Generated_Source\PSoC4/Segment_disp.c ****     *  cause corruption of this function. An ISR that interrupts this function 
  65:Generated_Source\PSoC4/Segment_disp.c ****     *  and performs writes to the Pins component Drive Mode registers can cause 
  66:Generated_Source\PSoC4/Segment_disp.c ****     *  corrupted port data. To avoid this issue, you should either use the Per-Pin
  67:Generated_Source\PSoC4/Segment_disp.c ****     *  APIs (primary method) or disable interrupts around this function.
  68:Generated_Source\PSoC4/Segment_disp.c ****     *
  69:Generated_Source\PSoC4/Segment_disp.c ****     * \funcusage
  70:Generated_Source\PSoC4/Segment_disp.c ****     *  \snippet Segment_disp_SUT.c usage_Segment_disp_SetDriveMode
  71:Generated_Source\PSoC4/Segment_disp.c ****     *******************************************************************************/
  72:Generated_Source\PSoC4/Segment_disp.c ****     void Segment_disp_SetDriveMode(uint8 mode)
  73:Generated_Source\PSoC4/Segment_disp.c ****     {
  28              		.loc 1 73 0
  29              		.cfi_startproc
  30              		@ args = 0, pretend = 0, frame = 0
  31              		@ frame_needed = 0, uses_anonymous_args = 0
  32              		@ link register save eliminated.
  33              	.LVL0:
  74:Generated_Source\PSoC4/Segment_disp.c **** 		Segment_disp_SetP4PinDriveMode(Segment_disp__0__SHIFT, mode);
  34              		.loc 1 74 0
  35 0000 154B     		ldr	r3, .L2
  36 0002 1A68     		ldr	r2, [r3]
  37 0004 0721     		movs	r1, #7
  38 0006 8A43     		bics	r2, r1
  39 0008 0243     		orrs	r2, r0
  40 000a 1A60     		str	r2, [r3]
ARM GAS  C:\Users\Zeynep\AppData\Local\Temp\cc8P1ar8.s 			page 3


  75:Generated_Source\PSoC4/Segment_disp.c **** 		Segment_disp_SetP4PinDriveMode(Segment_disp__1__SHIFT, mode);
  41              		.loc 1 75 0
  42 000c 1A68     		ldr	r2, [r3]
  43 000e 3131     		adds	r1, r1, #49
  44 0010 8A43     		bics	r2, r1
  45 0012 C100     		lsls	r1, r0, #3
  46 0014 0A43     		orrs	r2, r1
  47 0016 1A60     		str	r2, [r3]
  76:Generated_Source\PSoC4/Segment_disp.c **** 		Segment_disp_SetP4PinDriveMode(Segment_disp__2__SHIFT, mode);
  48              		.loc 1 76 0
  49 0018 1968     		ldr	r1, [r3]
  50 001a 104A     		ldr	r2, .L2+4
  51 001c 0A40     		ands	r2, r1
  52 001e 8101     		lsls	r1, r0, #6
  53 0020 0A43     		orrs	r2, r1
  54 0022 1A60     		str	r2, [r3]
  77:Generated_Source\PSoC4/Segment_disp.c **** 		Segment_disp_SetP4PinDriveMode(Segment_disp__3__SHIFT, mode);
  55              		.loc 1 77 0
  56 0024 1968     		ldr	r1, [r3]
  57 0026 0E4A     		ldr	r2, .L2+8
  58 0028 0A40     		ands	r2, r1
  59 002a 4102     		lsls	r1, r0, #9
  60 002c 0A43     		orrs	r2, r1
  61 002e 1A60     		str	r2, [r3]
  78:Generated_Source\PSoC4/Segment_disp.c **** 		Segment_disp_SetP4PinDriveMode(Segment_disp__4__SHIFT, mode);
  62              		.loc 1 78 0
  63 0030 1968     		ldr	r1, [r3]
  64 0032 0C4A     		ldr	r2, .L2+12
  65 0034 0A40     		ands	r2, r1
  66 0036 0103     		lsls	r1, r0, #12
  67 0038 0A43     		orrs	r2, r1
  68 003a 1A60     		str	r2, [r3]
  79:Generated_Source\PSoC4/Segment_disp.c **** 		Segment_disp_SetP4PinDriveMode(Segment_disp__5__SHIFT, mode);
  69              		.loc 1 79 0
  70 003c 1968     		ldr	r1, [r3]
  71 003e 0A4A     		ldr	r2, .L2+16
  72 0040 0A40     		ands	r2, r1
  73 0042 C103     		lsls	r1, r0, #15
  74 0044 0A43     		orrs	r2, r1
  75 0046 1A60     		str	r2, [r3]
  80:Generated_Source\PSoC4/Segment_disp.c **** 		Segment_disp_SetP4PinDriveMode(Segment_disp__6__SHIFT, mode);
  76              		.loc 1 80 0
  77 0048 1968     		ldr	r1, [r3]
  78 004a 084A     		ldr	r2, .L2+20
  79 004c 0A40     		ands	r2, r1
  80 004e 8004     		lsls	r0, r0, #18
  81              	.LVL1:
  82 0050 1043     		orrs	r0, r2
  83 0052 1860     		str	r0, [r3]
  81:Generated_Source\PSoC4/Segment_disp.c ****     }
  84              		.loc 1 81 0
  85              		@ sp needed
  86 0054 7047     		bx	lr
  87              	.L3:
  88 0056 C046     		.align	2
  89              	.L2:
  90 0058 08000440 		.word	1074003976
ARM GAS  C:\Users\Zeynep\AppData\Local\Temp\cc8P1ar8.s 			page 4


  91 005c 3FFEFFFF 		.word	-449
  92 0060 FFF1FFFF 		.word	-3585
  93 0064 FF8FFFFF 		.word	-28673
  94 0068 FF7FFCFF 		.word	-229377
  95 006c FFFFE3FF 		.word	-1835009
  96              		.cfi_endproc
  97              	.LFE0:
  98              		.size	Segment_disp_SetDriveMode, .-Segment_disp_SetDriveMode
  99              		.section	.text.Segment_disp_Write,"ax",%progbits
 100              		.align	2
 101              		.global	Segment_disp_Write
 102              		.code	16
 103              		.thumb_func
 104              		.type	Segment_disp_Write, %function
 105              	Segment_disp_Write:
 106              	.LFB1:
  82:Generated_Source\PSoC4/Segment_disp.c **** #endif
  83:Generated_Source\PSoC4/Segment_disp.c **** 
  84:Generated_Source\PSoC4/Segment_disp.c **** 
  85:Generated_Source\PSoC4/Segment_disp.c **** /*******************************************************************************
  86:Generated_Source\PSoC4/Segment_disp.c **** * Function Name: Segment_disp_Write
  87:Generated_Source\PSoC4/Segment_disp.c **** ****************************************************************************//**
  88:Generated_Source\PSoC4/Segment_disp.c **** *
  89:Generated_Source\PSoC4/Segment_disp.c **** * \brief Writes the value to the physical port (data output register), masking
  90:Generated_Source\PSoC4/Segment_disp.c **** *  and shifting the bits appropriately. 
  91:Generated_Source\PSoC4/Segment_disp.c **** *
  92:Generated_Source\PSoC4/Segment_disp.c **** * The data output register controls the signal applied to the physical pin in 
  93:Generated_Source\PSoC4/Segment_disp.c **** * conjunction with the drive mode parameter. This function avoids changing 
  94:Generated_Source\PSoC4/Segment_disp.c **** * other bits in the port by using the appropriate method (read-modify-write or
  95:Generated_Source\PSoC4/Segment_disp.c **** * bit banding).
  96:Generated_Source\PSoC4/Segment_disp.c **** *
  97:Generated_Source\PSoC4/Segment_disp.c **** * <b>Note</b> This function should not be used on a hardware digital output pin 
  98:Generated_Source\PSoC4/Segment_disp.c **** * as it is driven by the hardware signal attached to it.
  99:Generated_Source\PSoC4/Segment_disp.c **** *
 100:Generated_Source\PSoC4/Segment_disp.c **** * \param value
 101:Generated_Source\PSoC4/Segment_disp.c **** *  Value to write to the component instance.
 102:Generated_Source\PSoC4/Segment_disp.c **** *
 103:Generated_Source\PSoC4/Segment_disp.c **** * \return 
 104:Generated_Source\PSoC4/Segment_disp.c **** *  None 
 105:Generated_Source\PSoC4/Segment_disp.c **** *
 106:Generated_Source\PSoC4/Segment_disp.c **** * \sideeffect
 107:Generated_Source\PSoC4/Segment_disp.c **** *  If you use read-modify-write operations that are not atomic; the Interrupt 
 108:Generated_Source\PSoC4/Segment_disp.c **** *  Service Routines (ISR) can cause corruption of this function. An ISR that 
 109:Generated_Source\PSoC4/Segment_disp.c **** *  interrupts this function and performs writes to the Pins component data 
 110:Generated_Source\PSoC4/Segment_disp.c **** *  register can cause corrupted port data. To avoid this issue, you should 
 111:Generated_Source\PSoC4/Segment_disp.c **** *  either use the Per-Pin APIs (primary method) or disable interrupts around 
 112:Generated_Source\PSoC4/Segment_disp.c **** *  this function.
 113:Generated_Source\PSoC4/Segment_disp.c **** *
 114:Generated_Source\PSoC4/Segment_disp.c **** * \funcusage
 115:Generated_Source\PSoC4/Segment_disp.c **** *  \snippet Segment_disp_SUT.c usage_Segment_disp_Write
 116:Generated_Source\PSoC4/Segment_disp.c **** *******************************************************************************/
 117:Generated_Source\PSoC4/Segment_disp.c **** void Segment_disp_Write(uint8 value)
 118:Generated_Source\PSoC4/Segment_disp.c **** {
 107              		.loc 1 118 0
 108              		.cfi_startproc
 109              		@ args = 0, pretend = 0, frame = 0
 110              		@ frame_needed = 0, uses_anonymous_args = 0
ARM GAS  C:\Users\Zeynep\AppData\Local\Temp\cc8P1ar8.s 			page 5


 111              		@ link register save eliminated.
 112              	.LVL2:
 119:Generated_Source\PSoC4/Segment_disp.c ****     uint8 drVal = (uint8)(Segment_disp_DR & (uint8)(~Segment_disp_MASK));
 113              		.loc 1 119 0
 114 0000 044A     		ldr	r2, .L5
 115 0002 1368     		ldr	r3, [r2]
 116 0004 DBB2     		uxtb	r3, r3
 117 0006 7F21     		movs	r1, #127
 118 0008 8B43     		bics	r3, r1
 119              	.LVL3:
 120:Generated_Source\PSoC4/Segment_disp.c ****     drVal = (drVal | ((uint8)(value << Segment_disp_SHIFT) & Segment_disp_MASK));
 120              		.loc 1 120 0
 121 000a 0840     		ands	r0, r1
 122              	.LVL4:
 123 000c 1843     		orrs	r0, r3
 124              	.LVL5:
 121:Generated_Source\PSoC4/Segment_disp.c ****     Segment_disp_DR = (uint32)drVal;
 125              		.loc 1 121 0
 126 000e 1060     		str	r0, [r2]
 122:Generated_Source\PSoC4/Segment_disp.c **** }
 127              		.loc 1 122 0
 128              		@ sp needed
 129 0010 7047     		bx	lr
 130              	.L6:
 131 0012 C046     		.align	2
 132              	.L5:
 133 0014 00000440 		.word	1074003968
 134              		.cfi_endproc
 135              	.LFE1:
 136              		.size	Segment_disp_Write, .-Segment_disp_Write
 137              		.section	.text.Segment_disp_Read,"ax",%progbits
 138              		.align	2
 139              		.global	Segment_disp_Read
 140              		.code	16
 141              		.thumb_func
 142              		.type	Segment_disp_Read, %function
 143              	Segment_disp_Read:
 144              	.LFB2:
 123:Generated_Source\PSoC4/Segment_disp.c **** 
 124:Generated_Source\PSoC4/Segment_disp.c **** 
 125:Generated_Source\PSoC4/Segment_disp.c **** /*******************************************************************************
 126:Generated_Source\PSoC4/Segment_disp.c **** * Function Name: Segment_disp_Read
 127:Generated_Source\PSoC4/Segment_disp.c **** ****************************************************************************//**
 128:Generated_Source\PSoC4/Segment_disp.c **** *
 129:Generated_Source\PSoC4/Segment_disp.c **** * \brief Reads the associated physical port (pin status register) and masks 
 130:Generated_Source\PSoC4/Segment_disp.c **** *  the required bits according to the width and bit position of the component
 131:Generated_Source\PSoC4/Segment_disp.c **** *  instance. 
 132:Generated_Source\PSoC4/Segment_disp.c **** *
 133:Generated_Source\PSoC4/Segment_disp.c **** * The pin's status register returns the current logic level present on the 
 134:Generated_Source\PSoC4/Segment_disp.c **** * physical pin.
 135:Generated_Source\PSoC4/Segment_disp.c **** *
 136:Generated_Source\PSoC4/Segment_disp.c **** * \return 
 137:Generated_Source\PSoC4/Segment_disp.c **** *  The current value for the pins in the component as a right justified number.
 138:Generated_Source\PSoC4/Segment_disp.c **** *
 139:Generated_Source\PSoC4/Segment_disp.c **** * \funcusage
 140:Generated_Source\PSoC4/Segment_disp.c **** *  \snippet Segment_disp_SUT.c usage_Segment_disp_Read  
 141:Generated_Source\PSoC4/Segment_disp.c **** *******************************************************************************/
ARM GAS  C:\Users\Zeynep\AppData\Local\Temp\cc8P1ar8.s 			page 6


 142:Generated_Source\PSoC4/Segment_disp.c **** uint8 Segment_disp_Read(void)
 143:Generated_Source\PSoC4/Segment_disp.c **** {
 145              		.loc 1 143 0
 146              		.cfi_startproc
 147              		@ args = 0, pretend = 0, frame = 0
 148              		@ frame_needed = 0, uses_anonymous_args = 0
 149              		@ link register save eliminated.
 144:Generated_Source\PSoC4/Segment_disp.c ****     return (uint8)((Segment_disp_PS & Segment_disp_MASK) >> Segment_disp_SHIFT);
 150              		.loc 1 144 0
 151 0000 024B     		ldr	r3, .L8
 152 0002 1B68     		ldr	r3, [r3]
 153 0004 7F20     		movs	r0, #127
 154 0006 1840     		ands	r0, r3
 145:Generated_Source\PSoC4/Segment_disp.c **** }
 155              		.loc 1 145 0
 156              		@ sp needed
 157 0008 7047     		bx	lr
 158              	.L9:
 159 000a C046     		.align	2
 160              	.L8:
 161 000c 04000440 		.word	1074003972
 162              		.cfi_endproc
 163              	.LFE2:
 164              		.size	Segment_disp_Read, .-Segment_disp_Read
 165              		.section	.text.Segment_disp_ReadDataReg,"ax",%progbits
 166              		.align	2
 167              		.global	Segment_disp_ReadDataReg
 168              		.code	16
 169              		.thumb_func
 170              		.type	Segment_disp_ReadDataReg, %function
 171              	Segment_disp_ReadDataReg:
 172              	.LFB3:
 146:Generated_Source\PSoC4/Segment_disp.c **** 
 147:Generated_Source\PSoC4/Segment_disp.c **** 
 148:Generated_Source\PSoC4/Segment_disp.c **** /*******************************************************************************
 149:Generated_Source\PSoC4/Segment_disp.c **** * Function Name: Segment_disp_ReadDataReg
 150:Generated_Source\PSoC4/Segment_disp.c **** ****************************************************************************//**
 151:Generated_Source\PSoC4/Segment_disp.c **** *
 152:Generated_Source\PSoC4/Segment_disp.c **** * \brief Reads the associated physical port's data output register and masks 
 153:Generated_Source\PSoC4/Segment_disp.c **** *  the correct bits according to the width and bit position of the component 
 154:Generated_Source\PSoC4/Segment_disp.c **** *  instance. 
 155:Generated_Source\PSoC4/Segment_disp.c **** *
 156:Generated_Source\PSoC4/Segment_disp.c **** * The data output register controls the signal applied to the physical pin in 
 157:Generated_Source\PSoC4/Segment_disp.c **** * conjunction with the drive mode parameter. This is not the same as the 
 158:Generated_Source\PSoC4/Segment_disp.c **** * preferred Segment_disp_Read() API because the 
 159:Generated_Source\PSoC4/Segment_disp.c **** * Segment_disp_ReadDataReg() reads the data register instead of the status 
 160:Generated_Source\PSoC4/Segment_disp.c **** * register. For output pins this is a useful function to determine the value 
 161:Generated_Source\PSoC4/Segment_disp.c **** * just written to the pin.
 162:Generated_Source\PSoC4/Segment_disp.c **** *
 163:Generated_Source\PSoC4/Segment_disp.c **** * \return 
 164:Generated_Source\PSoC4/Segment_disp.c **** *  The current value of the data register masked and shifted into a right 
 165:Generated_Source\PSoC4/Segment_disp.c **** *  justified number for the component instance.
 166:Generated_Source\PSoC4/Segment_disp.c **** *
 167:Generated_Source\PSoC4/Segment_disp.c **** * \funcusage
 168:Generated_Source\PSoC4/Segment_disp.c **** *  \snippet Segment_disp_SUT.c usage_Segment_disp_ReadDataReg 
 169:Generated_Source\PSoC4/Segment_disp.c **** *******************************************************************************/
 170:Generated_Source\PSoC4/Segment_disp.c **** uint8 Segment_disp_ReadDataReg(void)
ARM GAS  C:\Users\Zeynep\AppData\Local\Temp\cc8P1ar8.s 			page 7


 171:Generated_Source\PSoC4/Segment_disp.c **** {
 173              		.loc 1 171 0
 174              		.cfi_startproc
 175              		@ args = 0, pretend = 0, frame = 0
 176              		@ frame_needed = 0, uses_anonymous_args = 0
 177              		@ link register save eliminated.
 172:Generated_Source\PSoC4/Segment_disp.c ****     return (uint8)((Segment_disp_DR & Segment_disp_MASK) >> Segment_disp_SHIFT);
 178              		.loc 1 172 0
 179 0000 024B     		ldr	r3, .L11
 180 0002 1B68     		ldr	r3, [r3]
 181 0004 7F20     		movs	r0, #127
 182 0006 1840     		ands	r0, r3
 173:Generated_Source\PSoC4/Segment_disp.c **** }
 183              		.loc 1 173 0
 184              		@ sp needed
 185 0008 7047     		bx	lr
 186              	.L12:
 187 000a C046     		.align	2
 188              	.L11:
 189 000c 00000440 		.word	1074003968
 190              		.cfi_endproc
 191              	.LFE3:
 192              		.size	Segment_disp_ReadDataReg, .-Segment_disp_ReadDataReg
 193              		.section	.text.Segment_disp_SetInterruptMode,"ax",%progbits
 194              		.align	2
 195              		.global	Segment_disp_SetInterruptMode
 196              		.code	16
 197              		.thumb_func
 198              		.type	Segment_disp_SetInterruptMode, %function
 199              	Segment_disp_SetInterruptMode:
 200              	.LFB4:
 174:Generated_Source\PSoC4/Segment_disp.c **** 
 175:Generated_Source\PSoC4/Segment_disp.c **** 
 176:Generated_Source\PSoC4/Segment_disp.c **** /*******************************************************************************
 177:Generated_Source\PSoC4/Segment_disp.c **** * Function Name: Segment_disp_SetInterruptMode
 178:Generated_Source\PSoC4/Segment_disp.c **** ****************************************************************************//**
 179:Generated_Source\PSoC4/Segment_disp.c **** *
 180:Generated_Source\PSoC4/Segment_disp.c **** * \brief Configures the interrupt mode for each of the Pins component's
 181:Generated_Source\PSoC4/Segment_disp.c **** *  pins. Alternatively you may set the interrupt mode for all the pins
 182:Generated_Source\PSoC4/Segment_disp.c **** *  specified in the Pins component.
 183:Generated_Source\PSoC4/Segment_disp.c **** *
 184:Generated_Source\PSoC4/Segment_disp.c **** *  <b>Note</b> The interrupt is port-wide and therefore any enabled pin
 185:Generated_Source\PSoC4/Segment_disp.c **** *  interrupt may trigger it.
 186:Generated_Source\PSoC4/Segment_disp.c **** *
 187:Generated_Source\PSoC4/Segment_disp.c **** * \param position
 188:Generated_Source\PSoC4/Segment_disp.c **** *  The pin position as listed in the Pins component. You may OR these to be 
 189:Generated_Source\PSoC4/Segment_disp.c **** *  able to configure the interrupt mode of multiple pins within a Pins 
 190:Generated_Source\PSoC4/Segment_disp.c **** *  component. Or you may use Segment_disp_INTR_ALL to configure the
 191:Generated_Source\PSoC4/Segment_disp.c **** *  interrupt mode of all the pins in the Pins component.       
 192:Generated_Source\PSoC4/Segment_disp.c **** *  - Segment_disp_0_INTR       (First pin in the list)
 193:Generated_Source\PSoC4/Segment_disp.c **** *  - Segment_disp_1_INTR       (Second pin in the list)
 194:Generated_Source\PSoC4/Segment_disp.c **** *  - ...
 195:Generated_Source\PSoC4/Segment_disp.c **** *  - Segment_disp_INTR_ALL     (All pins in Pins component)
 196:Generated_Source\PSoC4/Segment_disp.c **** *
 197:Generated_Source\PSoC4/Segment_disp.c **** * \param mode
 198:Generated_Source\PSoC4/Segment_disp.c **** *  Interrupt mode for the selected pins. Valid options are documented in
 199:Generated_Source\PSoC4/Segment_disp.c **** *  \ref intrMode.
ARM GAS  C:\Users\Zeynep\AppData\Local\Temp\cc8P1ar8.s 			page 8


 200:Generated_Source\PSoC4/Segment_disp.c **** *
 201:Generated_Source\PSoC4/Segment_disp.c **** * \return 
 202:Generated_Source\PSoC4/Segment_disp.c **** *  None
 203:Generated_Source\PSoC4/Segment_disp.c **** *  
 204:Generated_Source\PSoC4/Segment_disp.c **** * \sideeffect
 205:Generated_Source\PSoC4/Segment_disp.c **** *  It is recommended that the interrupt be disabled before calling this 
 206:Generated_Source\PSoC4/Segment_disp.c **** *  function to avoid unintended interrupt requests. Note that the interrupt
 207:Generated_Source\PSoC4/Segment_disp.c **** *  type is port wide, and therefore will trigger for any enabled pin on the 
 208:Generated_Source\PSoC4/Segment_disp.c **** *  port.
 209:Generated_Source\PSoC4/Segment_disp.c **** *
 210:Generated_Source\PSoC4/Segment_disp.c **** * \funcusage
 211:Generated_Source\PSoC4/Segment_disp.c **** *  \snippet Segment_disp_SUT.c usage_Segment_disp_SetInterruptMode
 212:Generated_Source\PSoC4/Segment_disp.c **** *******************************************************************************/
 213:Generated_Source\PSoC4/Segment_disp.c **** void Segment_disp_SetInterruptMode(uint16 position, uint16 mode)
 214:Generated_Source\PSoC4/Segment_disp.c **** {
 201              		.loc 1 214 0
 202              		.cfi_startproc
 203              		@ args = 0, pretend = 0, frame = 0
 204              		@ frame_needed = 0, uses_anonymous_args = 0
 205              		@ link register save eliminated.
 206              	.LVL6:
 215:Generated_Source\PSoC4/Segment_disp.c ****     uint32 intrCfg;
 216:Generated_Source\PSoC4/Segment_disp.c ****     
 217:Generated_Source\PSoC4/Segment_disp.c ****     intrCfg =  Segment_disp_INTCFG & (uint32)(~(uint32)position);
 207              		.loc 1 217 0
 208 0000 034A     		ldr	r2, .L14
 209 0002 1368     		ldr	r3, [r2]
 210 0004 8343     		bics	r3, r0
 211              	.LVL7:
 218:Generated_Source\PSoC4/Segment_disp.c ****     Segment_disp_INTCFG = intrCfg | ((uint32)position & (uint32)mode);
 212              		.loc 1 218 0
 213 0006 0840     		ands	r0, r1
 214              	.LVL8:
 215 0008 1843     		orrs	r0, r3
 216 000a 1060     		str	r0, [r2]
 219:Generated_Source\PSoC4/Segment_disp.c **** }
 217              		.loc 1 219 0
 218              		@ sp needed
 219 000c 7047     		bx	lr
 220              	.L15:
 221 000e C046     		.align	2
 222              	.L14:
 223 0010 0C000440 		.word	1074003980
 224              		.cfi_endproc
 225              	.LFE4:
 226              		.size	Segment_disp_SetInterruptMode, .-Segment_disp_SetInterruptMode
 227              		.section	.text.Segment_disp_ClearInterrupt,"ax",%progbits
 228              		.align	2
 229              		.global	Segment_disp_ClearInterrupt
 230              		.code	16
 231              		.thumb_func
 232              		.type	Segment_disp_ClearInterrupt, %function
 233              	Segment_disp_ClearInterrupt:
 234              	.LFB5:
 220:Generated_Source\PSoC4/Segment_disp.c **** 
 221:Generated_Source\PSoC4/Segment_disp.c **** 
 222:Generated_Source\PSoC4/Segment_disp.c **** /*******************************************************************************
ARM GAS  C:\Users\Zeynep\AppData\Local\Temp\cc8P1ar8.s 			page 9


 223:Generated_Source\PSoC4/Segment_disp.c **** * Function Name: Segment_disp_ClearInterrupt
 224:Generated_Source\PSoC4/Segment_disp.c **** ****************************************************************************//**
 225:Generated_Source\PSoC4/Segment_disp.c **** *
 226:Generated_Source\PSoC4/Segment_disp.c **** * \brief Clears any active interrupts attached with the component and returns 
 227:Generated_Source\PSoC4/Segment_disp.c **** *  the value of the interrupt status register allowing determination of which
 228:Generated_Source\PSoC4/Segment_disp.c **** *  pins generated an interrupt event.
 229:Generated_Source\PSoC4/Segment_disp.c **** *
 230:Generated_Source\PSoC4/Segment_disp.c **** * \return 
 231:Generated_Source\PSoC4/Segment_disp.c **** *  The right-shifted current value of the interrupt status register. Each pin 
 232:Generated_Source\PSoC4/Segment_disp.c **** *  has one bit set if it generated an interrupt event. For example, bit 0 is 
 233:Generated_Source\PSoC4/Segment_disp.c **** *  for pin 0 and bit 1 is for pin 1 of the Pins component.
 234:Generated_Source\PSoC4/Segment_disp.c **** *  
 235:Generated_Source\PSoC4/Segment_disp.c **** * \sideeffect
 236:Generated_Source\PSoC4/Segment_disp.c **** *  Clears all bits of the physical port's interrupt status register, not just
 237:Generated_Source\PSoC4/Segment_disp.c **** *  those associated with the Pins component.
 238:Generated_Source\PSoC4/Segment_disp.c **** *
 239:Generated_Source\PSoC4/Segment_disp.c **** * \funcusage
 240:Generated_Source\PSoC4/Segment_disp.c **** *  \snippet Segment_disp_SUT.c usage_Segment_disp_ClearInterrupt
 241:Generated_Source\PSoC4/Segment_disp.c **** *******************************************************************************/
 242:Generated_Source\PSoC4/Segment_disp.c **** uint8 Segment_disp_ClearInterrupt(void)
 243:Generated_Source\PSoC4/Segment_disp.c **** {
 235              		.loc 1 243 0
 236              		.cfi_startproc
 237              		@ args = 0, pretend = 0, frame = 0
 238              		@ frame_needed = 0, uses_anonymous_args = 0
 239              		@ link register save eliminated.
 244:Generated_Source\PSoC4/Segment_disp.c **** 	uint8 maskedStatus = (uint8)(Segment_disp_INTSTAT & Segment_disp_MASK);
 240              		.loc 1 244 0
 241 0000 024A     		ldr	r2, .L17
 242 0002 1068     		ldr	r0, [r2]
 243 0004 7F23     		movs	r3, #127
 244 0006 1840     		ands	r0, r3
 245              	.LVL9:
 245:Generated_Source\PSoC4/Segment_disp.c **** 	Segment_disp_INTSTAT = maskedStatus;
 246              		.loc 1 245 0
 247 0008 1060     		str	r0, [r2]
 246:Generated_Source\PSoC4/Segment_disp.c ****     return maskedStatus >> Segment_disp_SHIFT;
 247:Generated_Source\PSoC4/Segment_disp.c **** }
 248              		.loc 1 247 0
 249              		@ sp needed
 250 000a 7047     		bx	lr
 251              	.L18:
 252              		.align	2
 253              	.L17:
 254 000c 10000440 		.word	1074003984
 255              		.cfi_endproc
 256              	.LFE5:
 257              		.size	Segment_disp_ClearInterrupt, .-Segment_disp_ClearInterrupt
 258              		.text
 259              	.Letext0:
 260              		.file 2 "Generated_Source\\PSoC4\\cytypes.h"