ARM GAS  C:\Users\Zeynep\AppData\Local\Temp\ccgAGQqu.s 			page 1


   1              		.syntax unified
   2              		.cpu cortex-m0
   3              		.fpu softvfp
   4              		.eabi_attribute 20, 1
   5              		.eabi_attribute 21, 1
   6              		.eabi_attribute 23, 3
   7              		.eabi_attribute 24, 1
   8              		.eabi_attribute 25, 1
   9              		.eabi_attribute 26, 1
  10              		.eabi_attribute 30, 1
  11              		.eabi_attribute 34, 0
  12              		.eabi_attribute 18, 4
  13              		.thumb
  14              		.syntax unified
  15              		.file	"CapSense.c"
  16              		.text
  17              	.Ltext0:
  18              		.cfi_sections	.debug_frame
  19              		.section	.text.CapSense_CsdHwBlockInit,"ax",%progbits
  20              		.align	2
  21              		.global	CapSense_CsdHwBlockInit
  22              		.code	16
  23              		.thumb_func
  24              		.type	CapSense_CsdHwBlockInit, %function
  25              	CapSense_CsdHwBlockInit:
  26              	.LFB33:
  27              		.file 1 "Generated_Source\\PSoC4\\CapSense.c"
   1:Generated_Source\PSoC4/CapSense.c **** /*******************************************************************************
   2:Generated_Source\PSoC4/CapSense.c **** * File Name: CapSense.c
   3:Generated_Source\PSoC4/CapSense.c **** * Version 2.60
   4:Generated_Source\PSoC4/CapSense.c **** *
   5:Generated_Source\PSoC4/CapSense.c **** * Description:
   6:Generated_Source\PSoC4/CapSense.c **** *  This file provides the source code for scanning APIs for the CapSense CSD
   7:Generated_Source\PSoC4/CapSense.c **** *  component.
   8:Generated_Source\PSoC4/CapSense.c **** *
   9:Generated_Source\PSoC4/CapSense.c **** * Note:
  10:Generated_Source\PSoC4/CapSense.c **** *
  11:Generated_Source\PSoC4/CapSense.c **** ********************************************************************************
  12:Generated_Source\PSoC4/CapSense.c **** * Copyright 2013-2016, Cypress Semiconductor Corporation.  All rights reserved.
  13:Generated_Source\PSoC4/CapSense.c **** * You may use this file only in accordance with the license, terms, conditions,
  14:Generated_Source\PSoC4/CapSense.c **** * disclaimers, and limitations in the end user license agreement accompanying
  15:Generated_Source\PSoC4/CapSense.c **** * the software package with which this file was provided.
  16:Generated_Source\PSoC4/CapSense.c **** *******************************************************************************/
  17:Generated_Source\PSoC4/CapSense.c **** 
  18:Generated_Source\PSoC4/CapSense.c **** #include "CapSense.h"
  19:Generated_Source\PSoC4/CapSense.c **** #include "CapSense_PVT.h"
  20:Generated_Source\PSoC4/CapSense.c **** #include "cypins.h"
  21:Generated_Source\PSoC4/CapSense.c **** #include "cyapicallbacks.h"
  22:Generated_Source\PSoC4/CapSense.c **** 
  23:Generated_Source\PSoC4/CapSense.c **** #if(0u != CapSense_CSHL_API_GENERATE)
  24:Generated_Source\PSoC4/CapSense.c ****     #include "CapSense_CSHL.h"
  25:Generated_Source\PSoC4/CapSense.c **** #endif /* (0u != CapSense_CSHL_API_GENERATE) */
  26:Generated_Source\PSoC4/CapSense.c **** 
  27:Generated_Source\PSoC4/CapSense.c **** /* This definition is intended to prevent unexpected linker error.
  28:Generated_Source\PSoC4/CapSense.c ****    For more details please see the IAR Technical Note 49981 */
  29:Generated_Source\PSoC4/CapSense.c **** #if defined(__ICCARM__)
  30:Generated_Source\PSoC4/CapSense.c ****     extern void CapSense_EnableSensor(uint32 sensor);
ARM GAS  C:\Users\Zeynep\AppData\Local\Temp\ccgAGQqu.s 			page 2


  31:Generated_Source\PSoC4/CapSense.c ****     extern void CapSense_DisableSensor(uint32 sensor);
  32:Generated_Source\PSoC4/CapSense.c **** #endif /* (__ICCARM__) */
  33:Generated_Source\PSoC4/CapSense.c **** 
  34:Generated_Source\PSoC4/CapSense.c **** /* SmartSense functions */
  35:Generated_Source\PSoC4/CapSense.c **** #if (CapSense_TUNING_METHOD == CapSense__TUNING_AUTO)
  36:Generated_Source\PSoC4/CapSense.c ****     uint8 CapSense_lowLevelTuningDone = 0u;
  37:Generated_Source\PSoC4/CapSense.c ****     uint8 CapSense_scanSpeedTbl[((CapSense_TOTAL_SENSOR_COUNT - 1u) / 8u) + 1u];
  38:Generated_Source\PSoC4/CapSense.c **** #endif /* (CapSense_TUNING_METHOD == CapSense__TUNING_AUTO) */
  39:Generated_Source\PSoC4/CapSense.c **** 
  40:Generated_Source\PSoC4/CapSense.c **** #if(CapSense_PRS_OPTIONS != CapSense__PRS_NONE)
  41:Generated_Source\PSoC4/CapSense.c ****     uint8 CapSense_prescalersTuningDone = 0u;
  42:Generated_Source\PSoC4/CapSense.c **** #endif /* (CapSense_PRS_OPTIONS == CapSense__PRS_NONE) */
  43:Generated_Source\PSoC4/CapSense.c **** 
  44:Generated_Source\PSoC4/CapSense.c **** /* Global software variables */
  45:Generated_Source\PSoC4/CapSense.c **** volatile uint8 CapSense_csdStatusVar = 0u;   /* CapSense CSD status, variable */
  46:Generated_Source\PSoC4/CapSense.c **** volatile uint8 CapSense_sensorIndex = 0u;    /* Index of scannig sensor */
  47:Generated_Source\PSoC4/CapSense.c **** 
  48:Generated_Source\PSoC4/CapSense.c **** /* Global array of Raw Counts */
  49:Generated_Source\PSoC4/CapSense.c **** uint16 CapSense_sensorRaw[CapSense_TOTAL_SENSOR_COUNT] = {0u};
  50:Generated_Source\PSoC4/CapSense.c **** 
  51:Generated_Source\PSoC4/CapSense.c **** /* Backup variables for trim registers*/
  52:Generated_Source\PSoC4/CapSense.c **** #if (CapSense_IDAC1_POLARITY == CapSense__IDAC_SINK)
  53:Generated_Source\PSoC4/CapSense.c ****     uint8 CapSense_csdTrim2;
  54:Generated_Source\PSoC4/CapSense.c **** #else
  55:Generated_Source\PSoC4/CapSense.c ****     uint8 CapSense_csdTrim1;
  56:Generated_Source\PSoC4/CapSense.c **** #endif /* (CapSense_IDAC1_POLARITY == CapSense__IDAC_SINK) */
  57:Generated_Source\PSoC4/CapSense.c **** 
  58:Generated_Source\PSoC4/CapSense.c **** /* Global array of un-scanned sensors state */
  59:Generated_Source\PSoC4/CapSense.c **** uint8 CapSense_unscannedSnsDriveMode[CapSense_PORT_PIN_CONFIG_TBL_ZISE];
  60:Generated_Source\PSoC4/CapSense.c **** 
  61:Generated_Source\PSoC4/CapSense.c **** /* Backup array for CapSense_sensorEnableMask */
  62:Generated_Source\PSoC4/CapSense.c **** uint8 CapSense_sensorEnableMaskBackup[(((CapSense_TOTAL_SENSOR_COUNT - 1u) / 8u) + 1u)];
  63:Generated_Source\PSoC4/CapSense.c **** 
  64:Generated_Source\PSoC4/CapSense.c **** /* Configured constants and arrays by Customizer */
  65:Generated_Source\PSoC4/CapSense.c **** uint8 CapSense_sensorEnableMask[(((CapSense_TOTAL_SENSOR_COUNT - 1u) / 8u) + 1u)] = {
  66:Generated_Source\PSoC4/CapSense.c **** 0x1Fu, };
  67:Generated_Source\PSoC4/CapSense.c **** 
  68:Generated_Source\PSoC4/CapSense.c **** reg32 * CapSense_pcTable[] = {
  69:Generated_Source\PSoC4/CapSense.c ****     (reg32 *)CapSense_Sns__LinearSlider0_e0__LS__PC, 
  70:Generated_Source\PSoC4/CapSense.c ****     (reg32 *)CapSense_Sns__LinearSlider0_e1__LS__PC, 
  71:Generated_Source\PSoC4/CapSense.c ****     (reg32 *)CapSense_Sns__LinearSlider0_e2__LS__PC, 
  72:Generated_Source\PSoC4/CapSense.c ****     (reg32 *)CapSense_Sns__LinearSlider0_e3__LS__PC, 
  73:Generated_Source\PSoC4/CapSense.c ****     (reg32 *)CapSense_Sns__LinearSlider0_e4__LS__PC, 
  74:Generated_Source\PSoC4/CapSense.c **** };
  75:Generated_Source\PSoC4/CapSense.c **** 
  76:Generated_Source\PSoC4/CapSense.c **** const uint8 CapSense_portTable[] = {
  77:Generated_Source\PSoC4/CapSense.c ****     CapSense_Sns__LinearSlider0_e0__LS__PORT, 
  78:Generated_Source\PSoC4/CapSense.c ****     CapSense_Sns__LinearSlider0_e1__LS__PORT, 
  79:Generated_Source\PSoC4/CapSense.c ****     CapSense_Sns__LinearSlider0_e2__LS__PORT, 
  80:Generated_Source\PSoC4/CapSense.c ****     CapSense_Sns__LinearSlider0_e3__LS__PORT, 
  81:Generated_Source\PSoC4/CapSense.c ****     CapSense_Sns__LinearSlider0_e4__LS__PORT, 
  82:Generated_Source\PSoC4/CapSense.c **** };
  83:Generated_Source\PSoC4/CapSense.c **** 
  84:Generated_Source\PSoC4/CapSense.c **** const uint32 CapSense_maskTable[] = {
  85:Generated_Source\PSoC4/CapSense.c ****     CapSense_Sns__LinearSlider0_e0__LS__MASK, 
  86:Generated_Source\PSoC4/CapSense.c ****     CapSense_Sns__LinearSlider0_e1__LS__MASK, 
  87:Generated_Source\PSoC4/CapSense.c ****     CapSense_Sns__LinearSlider0_e2__LS__MASK, 
ARM GAS  C:\Users\Zeynep\AppData\Local\Temp\ccgAGQqu.s 			page 3


  88:Generated_Source\PSoC4/CapSense.c ****     CapSense_Sns__LinearSlider0_e3__LS__MASK, 
  89:Generated_Source\PSoC4/CapSense.c ****     CapSense_Sns__LinearSlider0_e4__LS__MASK, 
  90:Generated_Source\PSoC4/CapSense.c **** };
  91:Generated_Source\PSoC4/CapSense.c **** 
  92:Generated_Source\PSoC4/CapSense.c **** const uint8 CapSense_pinShiftTbl[] = {
  93:Generated_Source\PSoC4/CapSense.c ****     (uint8) CapSense_Sns__LinearSlider0_e0__LS__SHIFT, 
  94:Generated_Source\PSoC4/CapSense.c ****     (uint8) CapSense_Sns__LinearSlider0_e1__LS__SHIFT, 
  95:Generated_Source\PSoC4/CapSense.c ****     (uint8) CapSense_Sns__LinearSlider0_e2__LS__SHIFT, 
  96:Generated_Source\PSoC4/CapSense.c ****     (uint8) CapSense_Sns__LinearSlider0_e3__LS__SHIFT, 
  97:Generated_Source\PSoC4/CapSense.c ****     (uint8) CapSense_Sns__LinearSlider0_e4__LS__SHIFT, 
  98:Generated_Source\PSoC4/CapSense.c **** };
  99:Generated_Source\PSoC4/CapSense.c **** 
 100:Generated_Source\PSoC4/CapSense.c **** uint8 CapSense_modulationIDAC[CapSense_TOTAL_SENSOR_COUNT];
 101:Generated_Source\PSoC4/CapSense.c **** uint8 CapSense_compensationIDAC[CapSense_TOTAL_SENSOR_COUNT];
 102:Generated_Source\PSoC4/CapSense.c **** 
 103:Generated_Source\PSoC4/CapSense.c **** uint32 CapSense_widgetResolution[CapSense_RESOLUTIONS_TBL_SIZE] = {
 104:Generated_Source\PSoC4/CapSense.c ****     CapSense_RESOLUTION_12_BITS,
 105:Generated_Source\PSoC4/CapSense.c **** };
 106:Generated_Source\PSoC4/CapSense.c **** 
 107:Generated_Source\PSoC4/CapSense.c **** uint8 CapSense_senseClkDividerVal[CapSense_TOTAL_SCANSLOT_COUNT];
 108:Generated_Source\PSoC4/CapSense.c **** uint8 CapSense_sampleClkDividerVal[CapSense_TOTAL_SCANSLOT_COUNT];
 109:Generated_Source\PSoC4/CapSense.c **** 
 110:Generated_Source\PSoC4/CapSense.c **** const uint8 CapSense_widgetNumber[CapSense_TOTAL_SENSOR_COUNT] = {
 111:Generated_Source\PSoC4/CapSense.c ****     0u, 0u, 0u, 0u, 0u, /* LinearSlider0__LS */
 112:Generated_Source\PSoC4/CapSense.c **** };
 113:Generated_Source\PSoC4/CapSense.c **** 
 114:Generated_Source\PSoC4/CapSense.c **** reg32* const CapSense_prtSelTbl[CapSense_CFG_REG_TBL_SIZE] = {
 115:Generated_Source\PSoC4/CapSense.c ****     ((reg32 *) CYREG_HSIOM_PORT_SEL0),
 116:Generated_Source\PSoC4/CapSense.c ****     ((reg32 *) CYREG_HSIOM_PORT_SEL1),
 117:Generated_Source\PSoC4/CapSense.c ****     ((reg32 *) CYREG_HSIOM_PORT_SEL2),
 118:Generated_Source\PSoC4/CapSense.c ****     ((reg32 *) CYREG_HSIOM_PORT_SEL3),
 119:Generated_Source\PSoC4/CapSense.c ****     ((reg32 *) CYREG_HSIOM_PORT_SEL4),
 120:Generated_Source\PSoC4/CapSense.c **** };
 121:Generated_Source\PSoC4/CapSense.c **** 
 122:Generated_Source\PSoC4/CapSense.c **** reg32* const CapSense_prtCfgTbl[CapSense_CFG_REG_TBL_SIZE] = {
 123:Generated_Source\PSoC4/CapSense.c ****     ((reg32 *) CYREG_PRT0_PC),
 124:Generated_Source\PSoC4/CapSense.c ****     ((reg32 *) CYREG_PRT1_PC),
 125:Generated_Source\PSoC4/CapSense.c ****     ((reg32 *) CYREG_PRT2_PC),
 126:Generated_Source\PSoC4/CapSense.c ****     ((reg32 *) CYREG_PRT3_PC),
 127:Generated_Source\PSoC4/CapSense.c ****     ((reg32 *) CYREG_PRT4_PC),
 128:Generated_Source\PSoC4/CapSense.c **** };
 129:Generated_Source\PSoC4/CapSense.c **** 
 130:Generated_Source\PSoC4/CapSense.c **** reg32* const CapSense_prtDRTbl[CapSense_CFG_REG_TBL_SIZE] = {
 131:Generated_Source\PSoC4/CapSense.c ****     ((reg32 *) CYREG_PRT0_DR),
 132:Generated_Source\PSoC4/CapSense.c ****     ((reg32 *) CYREG_PRT1_DR),
 133:Generated_Source\PSoC4/CapSense.c ****     ((reg32 *) CYREG_PRT2_DR),
 134:Generated_Source\PSoC4/CapSense.c ****     ((reg32 *) CYREG_PRT3_DR),
 135:Generated_Source\PSoC4/CapSense.c ****     ((reg32 *) CYREG_PRT4_DR),
 136:Generated_Source\PSoC4/CapSense.c **** };
 137:Generated_Source\PSoC4/CapSense.c **** 
 138:Generated_Source\PSoC4/CapSense.c **** 
 139:Generated_Source\PSoC4/CapSense.c **** 
 140:Generated_Source\PSoC4/CapSense.c **** /*******************************************************************************
 141:Generated_Source\PSoC4/CapSense.c **** * Function Name: CapSense_Init
 142:Generated_Source\PSoC4/CapSense.c **** ********************************************************************************
 143:Generated_Source\PSoC4/CapSense.c **** *
 144:Generated_Source\PSoC4/CapSense.c **** * Summary:
ARM GAS  C:\Users\Zeynep\AppData\Local\Temp\ccgAGQqu.s 			page 4


 145:Generated_Source\PSoC4/CapSense.c **** *  API initializes default CapSense configuration provided by the customizer that defines
 146:Generated_Source\PSoC4/CapSense.c **** *  the mode of component operations and resets all the sensors to an inactive state.
 147:Generated_Source\PSoC4/CapSense.c **** *
 148:Generated_Source\PSoC4/CapSense.c **** * Parameters:
 149:Generated_Source\PSoC4/CapSense.c **** *  None
 150:Generated_Source\PSoC4/CapSense.c **** *
 151:Generated_Source\PSoC4/CapSense.c **** * Return:
 152:Generated_Source\PSoC4/CapSense.c **** *  None
 153:Generated_Source\PSoC4/CapSense.c **** *
 154:Generated_Source\PSoC4/CapSense.c **** * Global Variables:
 155:Generated_Source\PSoC4/CapSense.c **** *  CapSense_immunityIndex - defines immunity level.
 156:Generated_Source\PSoC4/CapSense.c **** *
 157:Generated_Source\PSoC4/CapSense.c **** * Side Effects:
 158:Generated_Source\PSoC4/CapSense.c **** *  None
 159:Generated_Source\PSoC4/CapSense.c **** *
 160:Generated_Source\PSoC4/CapSense.c **** *******************************************************************************/
 161:Generated_Source\PSoC4/CapSense.c **** void CapSense_Init(void)
 162:Generated_Source\PSoC4/CapSense.c **** {
 163:Generated_Source\PSoC4/CapSense.c ****     uint32 curSensor;
 164:Generated_Source\PSoC4/CapSense.c **** 
 165:Generated_Source\PSoC4/CapSense.c ****     #if(CapSense_IS_SHIELD_ENABLE)
 166:Generated_Source\PSoC4/CapSense.c **** 
 167:Generated_Source\PSoC4/CapSense.c ****         #if((CapSense_CSH_TANK_PREGARGE_OPTION == CapSense__CAPPRIOBUF) || (0u != CapSense_CSH_TANK
 168:Generated_Source\PSoC4/CapSense.c ****             uint32 newRegValue;
 169:Generated_Source\PSoC4/CapSense.c **** 
 170:Generated_Source\PSoC4/CapSense.c ****             newRegValue = CapSense_CTANK_CONNECTION_REG;
 171:Generated_Source\PSoC4/CapSense.c ****             newRegValue &= ~(CapSense_CSD_CTANK_CONNECTION_MASK);
 172:Generated_Source\PSoC4/CapSense.c ****             newRegValue |= CapSense_CSD_CTANK_TO_AMUXBUS_B;
 173:Generated_Source\PSoC4/CapSense.c ****             CapSense_CTANK_CONNECTION_REG = newRegValue;
 174:Generated_Source\PSoC4/CapSense.c **** 
 175:Generated_Source\PSoC4/CapSense.c ****             #if(CapSense_CSH_TANK_PREGARGE_OPTION == CapSense__CAPPRIOBUF)
 176:Generated_Source\PSoC4/CapSense.c ****                 newRegValue = CapSense_CTANK_PORT_PC_REG;
 177:Generated_Source\PSoC4/CapSense.c ****                 newRegValue &= ~(CapSense_CSD_CTANK_PC_MASK);
 178:Generated_Source\PSoC4/CapSense.c ****                 newRegValue |= CapSense_CTANK_PC_STRONG_MODE;
 179:Generated_Source\PSoC4/CapSense.c ****                 CapSense_CTANK_PORT_PC_REG = newRegValue;
 180:Generated_Source\PSoC4/CapSense.c **** 
 181:Generated_Source\PSoC4/CapSense.c ****                 newRegValue = CapSense_CTANK_PORT_DR_REG;
 182:Generated_Source\PSoC4/CapSense.c ****                 newRegValue &= ~(CapSense_CTANK_DR_MASK);
 183:Generated_Source\PSoC4/CapSense.c ****                 newRegValue |= CapSense_CTANK_DR_CONFIG;
 184:Generated_Source\PSoC4/CapSense.c ****                 CapSense_CTANK_PORT_DR_REG = newRegValue;
 185:Generated_Source\PSoC4/CapSense.c ****             #endif /* (CapSense_CSH_TANK_PREGARGE_OPTION == CapSense__CAPPRIOBUF) */
 186:Generated_Source\PSoC4/CapSense.c **** 
 187:Generated_Source\PSoC4/CapSense.c ****         #endif /* ((CapSense_CSH_TANK_PREGARGE_OPTION == CapSense__CAPPRIOBUF) || (CapSense_CSH_TAN
 188:Generated_Source\PSoC4/CapSense.c **** 
 189:Generated_Source\PSoC4/CapSense.c ****         CapSense_EnableShieldElectrode((uint32)CapSense_SHIELD_PIN_NUMBER, (uint32)CapSense_SHIELD_
 190:Generated_Source\PSoC4/CapSense.c **** 
 191:Generated_Source\PSoC4/CapSense.c ****     #endif /* (CapSense_IS_SHIELD_ENABLE) */
 192:Generated_Source\PSoC4/CapSense.c **** 
 193:Generated_Source\PSoC4/CapSense.c ****     for(curSensor = 0u; curSensor < CapSense_TOTAL_SENSOR_COUNT; curSensor++)
 194:Generated_Source\PSoC4/CapSense.c ****     {
 195:Generated_Source\PSoC4/CapSense.c ****         CapSense_SetUnscannedSensorState(curSensor, CapSense_CONNECT_INACTIVE_SNS);
 196:Generated_Source\PSoC4/CapSense.c ****     }
 197:Generated_Source\PSoC4/CapSense.c **** 
 198:Generated_Source\PSoC4/CapSense.c ****     CapSense_CsdHwBlockInit();
 199:Generated_Source\PSoC4/CapSense.c ****     CapSense_SetShieldDelay(CapSense_SHIELD_DELAY );
 200:Generated_Source\PSoC4/CapSense.c **** 
 201:Generated_Source\PSoC4/CapSense.c ****     /* Clear all sensors */
ARM GAS  C:\Users\Zeynep\AppData\Local\Temp\ccgAGQqu.s 			page 5


 202:Generated_Source\PSoC4/CapSense.c ****     CapSense_ClearSensors();
 203:Generated_Source\PSoC4/CapSense.c **** }
 204:Generated_Source\PSoC4/CapSense.c **** 
 205:Generated_Source\PSoC4/CapSense.c **** /*******************************************************************************
 206:Generated_Source\PSoC4/CapSense.c **** * Function Name: CapSense_CsdHwBlockInit
 207:Generated_Source\PSoC4/CapSense.c **** ********************************************************************************
 208:Generated_Source\PSoC4/CapSense.c **** *
 209:Generated_Source\PSoC4/CapSense.c **** * Summary:
 210:Generated_Source\PSoC4/CapSense.c **** *  Initialises the hardware parameters of the CSD block
 211:Generated_Source\PSoC4/CapSense.c **** *
 212:Generated_Source\PSoC4/CapSense.c **** * Parameters:
 213:Generated_Source\PSoC4/CapSense.c **** *  None
 214:Generated_Source\PSoC4/CapSense.c **** *
 215:Generated_Source\PSoC4/CapSense.c **** * Return:
 216:Generated_Source\PSoC4/CapSense.c **** *  None
 217:Generated_Source\PSoC4/CapSense.c **** *
 218:Generated_Source\PSoC4/CapSense.c **** * Global Variables:
 219:Generated_Source\PSoC4/CapSense.c **** *  CapSense_csdTrim1 - Contains IDAC trim register value for Sourcing Mode.
 220:Generated_Source\PSoC4/CapSense.c **** *  CapSense_csdTrim2 - Contains IDAC trim register value for Sinking Mode.
 221:Generated_Source\PSoC4/CapSense.c **** *
 222:Generated_Source\PSoC4/CapSense.c **** * Side Effects:
 223:Generated_Source\PSoC4/CapSense.c **** *  None
 224:Generated_Source\PSoC4/CapSense.c **** *
 225:Generated_Source\PSoC4/CapSense.c **** *******************************************************************************/
 226:Generated_Source\PSoC4/CapSense.c **** void CapSense_CsdHwBlockInit(void)
 227:Generated_Source\PSoC4/CapSense.c **** {
  28              		.loc 1 227 0
  29              		.cfi_startproc
  30              		@ args = 0, pretend = 0, frame = 0
  31              		@ frame_needed = 0, uses_anonymous_args = 0
  32 0000 70B5     		push	{r4, r5, r6, lr}
  33              		.cfi_def_cfa_offset 16
  34              		.cfi_offset 4, -16
  35              		.cfi_offset 5, -12
  36              		.cfi_offset 6, -8
  37              		.cfi_offset 14, -4
 228:Generated_Source\PSoC4/CapSense.c ****     uint32 newRegValue;
 229:Generated_Source\PSoC4/CapSense.c **** 
 230:Generated_Source\PSoC4/CapSense.c ****         /* Set trim registers for CSD Mode */
 231:Generated_Source\PSoC4/CapSense.c ****     #if (CapSense_IDAC1_POLARITY == CapSense__IDAC_SINK)
 232:Generated_Source\PSoC4/CapSense.c ****         /* iDAC1 Sinking Mode */
 233:Generated_Source\PSoC4/CapSense.c ****         CapSense_csdTrim2 = (uint8)CapSense_CSD_TRIM2_REG;
 234:Generated_Source\PSoC4/CapSense.c ****         newRegValue = CapSense_csdTrim2;
 235:Generated_Source\PSoC4/CapSense.c ****         newRegValue &= CapSense_CSD_IDAC1_TRIM_MASK;
 236:Generated_Source\PSoC4/CapSense.c ****         newRegValue |= (uint32)((uint32)CapSense_SFLASH_CSD_TRIM2_REG & (uint32)CapSense_CSFLASH_TR
 237:Generated_Source\PSoC4/CapSense.c **** 
 238:Generated_Source\PSoC4/CapSense.c ****         #if (CapSense_IDAC_CNT == 2u)
 239:Generated_Source\PSoC4/CapSense.c ****             /* iDAC2 Sinking Mode */
 240:Generated_Source\PSoC4/CapSense.c ****             newRegValue &= CapSense_CSD_IDAC2_TRIM_MASK;
 241:Generated_Source\PSoC4/CapSense.c ****             newRegValue |= (uint32)((uint32)CapSense_SFLASH_CSD_TRIM2_REG & (uint32)CapSense_CSFLAS
 242:Generated_Source\PSoC4/CapSense.c ****         #endif /* (CapSense_IDAC_CNT == 2u) */
 243:Generated_Source\PSoC4/CapSense.c ****         CapSense_CSD_TRIM2_REG = newRegValue;
 244:Generated_Source\PSoC4/CapSense.c ****     #else
 245:Generated_Source\PSoC4/CapSense.c ****         /* iDAC1 Sourcing Mode */
 246:Generated_Source\PSoC4/CapSense.c ****         CapSense_csdTrim1 = (uint8)CapSense_CSD_TRIM1_REG;
  38              		.loc 1 246 0
  39 0002 1648     		ldr	r0, .L2
ARM GAS  C:\Users\Zeynep\AppData\Local\Temp\ccgAGQqu.s 			page 6


  40 0004 0368     		ldr	r3, [r0]
  41 0006 DBB2     		uxtb	r3, r3
  42 0008 154A     		ldr	r2, .L2+4
  43 000a 1370     		strb	r3, [r2]
  44              	.LVL0:
 247:Generated_Source\PSoC4/CapSense.c ****         newRegValue = CapSense_csdTrim1;
 248:Generated_Source\PSoC4/CapSense.c ****         newRegValue &= CapSense_CSD_IDAC1_TRIM_MASK;
  45              		.loc 1 248 0
  46 000c 0F24     		movs	r4, #15
  47 000e A343     		bics	r3, r4
  48              	.LVL1:
  49 0010 1900     		movs	r1, r3
  50              	.LVL2:
 249:Generated_Source\PSoC4/CapSense.c ****         newRegValue |= (uint32)((uint32)CapSense_SFLASH_CSD_TRIM1_REG & (uint32)CapSense_CSFLASH_TR
  51              		.loc 1 249 0
  52 0012 144D     		ldr	r5, .L2+8
  53 0014 2B78     		ldrb	r3, [r5]
  54 0016 0F22     		movs	r2, #15
  55 0018 1340     		ands	r3, r2
  56 001a 0B43     		orrs	r3, r1
  57              	.LVL3:
 250:Generated_Source\PSoC4/CapSense.c ****         #if (CapSense_IDAC_CNT == 2u)
 251:Generated_Source\PSoC4/CapSense.c ****              /* iDAC2 Sourcing Mode */
 252:Generated_Source\PSoC4/CapSense.c ****             newRegValue &= CapSense_CSD_IDAC2_TRIM_MASK;
  58              		.loc 1 252 0
  59 001c E132     		adds	r2, r2, #225
  60 001e 9343     		bics	r3, r2
  61              	.LVL4:
 253:Generated_Source\PSoC4/CapSense.c ****             newRegValue |= (uint32)((uint32)CapSense_SFLASH_CSD_TRIM1_REG & (uint32)CapSense_CSFLAS
  62              		.loc 1 253 0
  63 0020 2A78     		ldrb	r2, [r5]
  64 0022 A243     		bics	r2, r4
  65 0024 1343     		orrs	r3, r2
  66              	.LVL5:
 254:Generated_Source\PSoC4/CapSense.c ****         #endif
 255:Generated_Source\PSoC4/CapSense.c ****         CapSense_CSD_TRIM1_REG = newRegValue;
  67              		.loc 1 255 0
  68 0026 0360     		str	r3, [r0]
 256:Generated_Source\PSoC4/CapSense.c ****     #endif /* (CapSense_IDAC1_POLARITY == CapSense__IDAC_SINK) */
 257:Generated_Source\PSoC4/CapSense.c **** 
 258:Generated_Source\PSoC4/CapSense.c ****     /* Configure CSD and IDAC */
 259:Generated_Source\PSoC4/CapSense.c ****     #if (CapSense_IDAC_CNT > 1u)
 260:Generated_Source\PSoC4/CapSense.c ****         CapSense_CSD_IDAC_REG = CapSense_DEFAULT_CSD_IDAC_CONFIG;
  69              		.loc 1 260 0
  70 0028 0F4A     		ldr	r2, .L2+12
  71 002a 104B     		ldr	r3, .L2+16
  72              	.LVL6:
  73 002c 1A60     		str	r2, [r3]
  74              	.LVL7:
 261:Generated_Source\PSoC4/CapSense.c ****         CapSense_CSD_CFG_REG = CapSense_DEFAULT_CSD_CONFIG;
  75              		.loc 1 261 0
  76 002e 104A     		ldr	r2, .L2+20
  77 0030 104B     		ldr	r3, .L2+24
  78 0032 1A60     		str	r2, [r3]
 262:Generated_Source\PSoC4/CapSense.c ****     #else
 263:Generated_Source\PSoC4/CapSense.c ****         CapSense_CSD_IDAC_REG &= ~(CapSense_CSD_IDAC1_MODE_MASK  | CapSense_CSD_IDAC1_DATA_MASK);
 264:Generated_Source\PSoC4/CapSense.c ****         CapSense_CSD_IDAC_REG |= CapSense_DEFAULT_CSD_IDAC_CONFIG;
ARM GAS  C:\Users\Zeynep\AppData\Local\Temp\ccgAGQqu.s 			page 7


 265:Generated_Source\PSoC4/CapSense.c **** 
 266:Generated_Source\PSoC4/CapSense.c ****         CapSense_CSD_CFG_REG &= ~(CapSense_CSD_CONFIG_MASK);
 267:Generated_Source\PSoC4/CapSense.c ****         CapSense_CSD_CFG_REG |= (CapSense_DEFAULT_CSD_CONFIG);
 268:Generated_Source\PSoC4/CapSense.c ****     #endif /* (CapSense_IDAC_CNT > 1u) */
 269:Generated_Source\PSoC4/CapSense.c **** 
 270:Generated_Source\PSoC4/CapSense.c **** 
 271:Generated_Source\PSoC4/CapSense.c ****     /* Connect Cmod to AMUX bus */
 272:Generated_Source\PSoC4/CapSense.c ****     newRegValue = CapSense_CMOD_CONNECTION_REG;
  79              		.loc 1 272 0
  80 0034 104A     		ldr	r2, .L2+28
  81 0036 1168     		ldr	r1, [r2]
  82              	.LVL8:
 273:Generated_Source\PSoC4/CapSense.c ****     newRegValue &= ~(CapSense_CSD_CMOD_CONNECTION_MASK);
  83              		.loc 1 273 0
  84 0038 104B     		ldr	r3, .L2+32
  85 003a 0B40     		ands	r3, r1
  86              	.LVL9:
 274:Generated_Source\PSoC4/CapSense.c ****     newRegValue |= CapSense_CSD_CMOD_TO_AMUXBUS_A;
  87              		.loc 1 274 0
  88 003c C021     		movs	r1, #192
  89 003e C900     		lsls	r1, r1, #3
  90 0040 0B43     		orrs	r3, r1
  91              	.LVL10:
 275:Generated_Source\PSoC4/CapSense.c ****     CapSense_CMOD_CONNECTION_REG = newRegValue;
  92              		.loc 1 275 0
  93 0042 1360     		str	r3, [r2]
 276:Generated_Source\PSoC4/CapSense.c **** 
 277:Generated_Source\PSoC4/CapSense.c ****     /* Configure Dead Band PWM if it is enabled */
 278:Generated_Source\PSoC4/CapSense.c ****     #if(CapSense_CSD_4B_PWM_MODE != CapSense__PWM_OFF)
 279:Generated_Source\PSoC4/CapSense.c ****         CapSense_CSD_4B_PWM_REG = CapSense_DEFAULT_CSD_4B_PWM_CONFIG;
 280:Generated_Source\PSoC4/CapSense.c ****     #endif /* (CapSense_CSD_4B_PWM_MODE != CapSense__PWM_OFF) */
 281:Generated_Source\PSoC4/CapSense.c **** 
 282:Generated_Source\PSoC4/CapSense.c ****     /* Setup ISR */
 283:Generated_Source\PSoC4/CapSense.c ****     CyIntDisable(CapSense_ISR_NUMBER);
  94              		.loc 1 283 0
  95 0044 0F20     		movs	r0, #15
  96 0046 FFF7FEFF 		bl	CyIntDisable
  97              	.LVL11:
 284:Generated_Source\PSoC4/CapSense.c ****     #if !defined(CY_EXTERNAL_INTERRUPT_CONFIG)
 285:Generated_Source\PSoC4/CapSense.c ****         (void)CyIntSetVector(CapSense_ISR_NUMBER, &CapSense_ISR);
  98              		.loc 1 285 0
  99 004a 0D49     		ldr	r1, .L2+36
 100 004c 0F20     		movs	r0, #15
 101 004e FFF7FEFF 		bl	CyIntSetVector
 102              	.LVL12:
 286:Generated_Source\PSoC4/CapSense.c ****         CyIntSetPriority(CapSense_ISR_NUMBER, CapSense_ISR_PRIORITY);
 103              		.loc 1 286 0
 104 0052 0321     		movs	r1, #3
 105 0054 0F20     		movs	r0, #15
 106 0056 FFF7FEFF 		bl	CyIntSetPriority
 107              	.LVL13:
 287:Generated_Source\PSoC4/CapSense.c ****     #endif /* (CY_EXTERNAL_INTERRUPT_CONFIG) */
 288:Generated_Source\PSoC4/CapSense.c **** }
 108              		.loc 1 288 0
 109              		@ sp needed
 110 005a 70BD     		pop	{r4, r5, r6, pc}
 111              	.L3:
ARM GAS  C:\Users\Zeynep\AppData\Local\Temp\ccgAGQqu.s 			page 8


 112              		.align	2
 113              	.L2:
 114 005c 00FF0840 		.word	1074331392
 115 0060 00000000 		.word	CapSense_csdTrim1
 116 0064 62F1FF0F 		.word	268431714
 117 0068 00020001 		.word	16777728
 118 006c 08000840 		.word	1074266120
 119 0070 0008A001 		.word	27265024
 120 0074 04000840 		.word	1074266116
 121 0078 10000140 		.word	1073807376
 122 007c FFF0FFFF 		.word	-3841
 123 0080 00000000 		.word	CapSense_ISR
 124              		.cfi_endproc
 125              	.LFE33:
 126              		.size	CapSense_CsdHwBlockInit, .-CapSense_CsdHwBlockInit
 127              		.section	.text.CapSense_Enable,"ax",%progbits
 128              		.align	2
 129              		.global	CapSense_Enable
 130              		.code	16
 131              		.thumb_func
 132              		.type	CapSense_Enable, %function
 133              	CapSense_Enable:
 134              	.LFB34:
 289:Generated_Source\PSoC4/CapSense.c **** 
 290:Generated_Source\PSoC4/CapSense.c **** 
 291:Generated_Source\PSoC4/CapSense.c **** /*******************************************************************************
 292:Generated_Source\PSoC4/CapSense.c **** * Function Name: CapSense_Enable
 293:Generated_Source\PSoC4/CapSense.c **** ********************************************************************************
 294:Generated_Source\PSoC4/CapSense.c **** *
 295:Generated_Source\PSoC4/CapSense.c **** * Summary:
 296:Generated_Source\PSoC4/CapSense.c **** *  Enables the CSD block and related resources to an active mode.
 297:Generated_Source\PSoC4/CapSense.c **** *
 298:Generated_Source\PSoC4/CapSense.c **** * Parameters:
 299:Generated_Source\PSoC4/CapSense.c **** *  None
 300:Generated_Source\PSoC4/CapSense.c **** *
 301:Generated_Source\PSoC4/CapSense.c **** * Return:
 302:Generated_Source\PSoC4/CapSense.c **** *  None
 303:Generated_Source\PSoC4/CapSense.c **** *
 304:Generated_Source\PSoC4/CapSense.c **** * Global Variables:
 305:Generated_Source\PSoC4/CapSense.c **** *  None.
 306:Generated_Source\PSoC4/CapSense.c **** *
 307:Generated_Source\PSoC4/CapSense.c **** * Side Effects:
 308:Generated_Source\PSoC4/CapSense.c **** *  None
 309:Generated_Source\PSoC4/CapSense.c **** *
 310:Generated_Source\PSoC4/CapSense.c **** *******************************************************************************/
 311:Generated_Source\PSoC4/CapSense.c **** void CapSense_Enable(void)
 312:Generated_Source\PSoC4/CapSense.c **** {
 135              		.loc 1 312 0
 136              		.cfi_startproc
 137              		@ args = 0, pretend = 0, frame = 0
 138              		@ frame_needed = 0, uses_anonymous_args = 0
 139 0000 10B5     		push	{r4, lr}
 140              		.cfi_def_cfa_offset 8
 141              		.cfi_offset 4, -8
 142              		.cfi_offset 14, -4
 313:Generated_Source\PSoC4/CapSense.c ****     uint32 newRegValue;
 314:Generated_Source\PSoC4/CapSense.c **** 
ARM GAS  C:\Users\Zeynep\AppData\Local\Temp\ccgAGQqu.s 			page 9


 315:Generated_Source\PSoC4/CapSense.c ****     /* Enable Clocks */
 316:Generated_Source\PSoC4/CapSense.c ****     CapSense_SenseClk_Stop();
 143              		.loc 1 316 0
 144 0002 FFF7FEFF 		bl	CapSense_SenseClk_Stop
 145              	.LVL14:
 317:Generated_Source\PSoC4/CapSense.c ****     CapSense_SampleClk_Stop();
 146              		.loc 1 317 0
 147 0006 FFF7FEFF 		bl	CapSense_SampleClk_Stop
 148              	.LVL15:
 318:Generated_Source\PSoC4/CapSense.c **** 
 319:Generated_Source\PSoC4/CapSense.c ****     CapSense_SampleClk_SetDividerValue((uint16)CapSense_INITIAL_CLK_DIVIDER);
 149              		.loc 1 319 0
 150 000a 0021     		movs	r1, #0
 151 000c 0020     		movs	r0, #0
 152 000e FFF7FEFF 		bl	CapSense_SampleClk_SetFractionalDividerRegister
 153              	.LVL16:
 320:Generated_Source\PSoC4/CapSense.c ****     CapSense_SenseClk_SetDividerValue((uint16)CapSense_INITIAL_CLK_DIVIDER);
 154              		.loc 1 320 0
 155 0012 0021     		movs	r1, #0
 156 0014 0020     		movs	r0, #0
 157 0016 FFF7FEFF 		bl	CapSense_SenseClk_SetFractionalDividerRegister
 158              	.LVL17:
 321:Generated_Source\PSoC4/CapSense.c **** 
 322:Generated_Source\PSoC4/CapSense.c ****     #if (0u == CapSense_IS_M0S8PERI_BLOCK)
 323:Generated_Source\PSoC4/CapSense.c ****         CapSense_SenseClk_Start();
 159              		.loc 1 323 0
 160 001a FFF7FEFF 		bl	CapSense_SenseClk_Start
 161              	.LVL18:
 324:Generated_Source\PSoC4/CapSense.c ****         CapSense_SampleClk_Start();
 162              		.loc 1 324 0
 163 001e FFF7FEFF 		bl	CapSense_SampleClk_Start
 164              	.LVL19:
 325:Generated_Source\PSoC4/CapSense.c ****     #else
 326:Generated_Source\PSoC4/CapSense.c ****         CapSense_SampleClk_Start();
 327:Generated_Source\PSoC4/CapSense.c ****         CapSense_SenseClk_StartEx(CapSense_SampleClk__DIV_ID);
 328:Generated_Source\PSoC4/CapSense.c ****     #endif /* (0u == CapSense_IS_M0S8PERI_BLOCK) */
 329:Generated_Source\PSoC4/CapSense.c **** 
 330:Generated_Source\PSoC4/CapSense.c ****     /* Enable the CSD block */
 331:Generated_Source\PSoC4/CapSense.c ****     newRegValue = CapSense_CSD_CFG_REG;
 165              		.loc 1 331 0
 166 0022 044A     		ldr	r2, .L5
 167 0024 1368     		ldr	r3, [r2]
 168              	.LVL20:
 332:Generated_Source\PSoC4/CapSense.c ****     newRegValue |= (CapSense_CSD_CFG_ENABLE | CapSense_CSD_CFG_SENSE_COMP_EN
 169              		.loc 1 332 0
 170 0026 0449     		ldr	r1, .L5+4
 171 0028 0B43     		orrs	r3, r1
 172              	.LVL21:
 333:Generated_Source\PSoC4/CapSense.c ****                                                    | CapSense_CSD_CFG_SENSE_EN);
 334:Generated_Source\PSoC4/CapSense.c ****     CapSense_CSD_CFG_REG = newRegValue;
 173              		.loc 1 334 0
 174 002a 1360     		str	r3, [r2]
 335:Generated_Source\PSoC4/CapSense.c **** 
 336:Generated_Source\PSoC4/CapSense.c ****     /* Enable interrupt */
 337:Generated_Source\PSoC4/CapSense.c ****     CyIntEnable(CapSense_ISR_NUMBER);
 175              		.loc 1 337 0
 176 002c 0F20     		movs	r0, #15
ARM GAS  C:\Users\Zeynep\AppData\Local\Temp\ccgAGQqu.s 			page 10


 177 002e FFF7FEFF 		bl	CyIntEnable
 178              	.LVL22:
 338:Generated_Source\PSoC4/CapSense.c **** }
 179              		.loc 1 338 0
 180              		@ sp needed
 181 0032 10BD     		pop	{r4, pc}
 182              	.L6:
 183              		.align	2
 184              	.L5:
 185 0034 04000840 		.word	1074266116
 186 0038 00100880 		.word	-2146955264
 187              		.cfi_endproc
 188              	.LFE34:
 189              		.size	CapSense_Enable, .-CapSense_Enable
 190              		.section	.text.CapSense_Stop,"ax",%progbits
 191              		.align	2
 192              		.global	CapSense_Stop
 193              		.code	16
 194              		.thumb_func
 195              		.type	CapSense_Stop, %function
 196              	CapSense_Stop:
 197              	.LFB36:
 339:Generated_Source\PSoC4/CapSense.c **** 
 340:Generated_Source\PSoC4/CapSense.c **** 
 341:Generated_Source\PSoC4/CapSense.c **** /*******************************************************************************
 342:Generated_Source\PSoC4/CapSense.c **** * Function Name: CapSense_Start
 343:Generated_Source\PSoC4/CapSense.c **** ********************************************************************************
 344:Generated_Source\PSoC4/CapSense.c **** *
 345:Generated_Source\PSoC4/CapSense.c **** * Summary:
 346:Generated_Source\PSoC4/CapSense.c **** *  This is the preferred method to begin the component operation. CapSense_Start()
 347:Generated_Source\PSoC4/CapSense.c **** *  calls the CapSense_Init() function, and then calls the CapSense_Enable()
 348:Generated_Source\PSoC4/CapSense.c **** *  function. Initializes the registers and starts the CSD method of the CapSense
 349:Generated_Source\PSoC4/CapSense.c **** *  component. Resets all the sensors to an inactive state. Enables interrupts for
 350:Generated_Source\PSoC4/CapSense.c **** *  sensors scanning. When the SmartSense tuning mode is selected, the tuning procedure
 351:Generated_Source\PSoC4/CapSense.c **** *  is applied for all the sensors. The CapSense_Start() routine must be called before
 352:Generated_Source\PSoC4/CapSense.c **** *  any other API routines.
 353:Generated_Source\PSoC4/CapSense.c **** *
 354:Generated_Source\PSoC4/CapSense.c **** * Parameters:
 355:Generated_Source\PSoC4/CapSense.c **** *  None
 356:Generated_Source\PSoC4/CapSense.c **** *
 357:Generated_Source\PSoC4/CapSense.c **** * Return:
 358:Generated_Source\PSoC4/CapSense.c **** *  None
 359:Generated_Source\PSoC4/CapSense.c **** *
 360:Generated_Source\PSoC4/CapSense.c **** * Global Variables:
 361:Generated_Source\PSoC4/CapSense.c **** *   CapSense_initVar - used to check the initial configuration,
 362:Generated_Source\PSoC4/CapSense.c **** *   modified on the first function call.
 363:Generated_Source\PSoC4/CapSense.c **** *  CapSense_lowLevelTuningDone - Used to notify the Tuner GUI that
 364:Generated_Source\PSoC4/CapSense.c **** *   tuning of the scanning parameters is done.
 365:Generated_Source\PSoC4/CapSense.c **** *
 366:Generated_Source\PSoC4/CapSense.c **** * Side Effects:
 367:Generated_Source\PSoC4/CapSense.c **** *  None
 368:Generated_Source\PSoC4/CapSense.c **** *
 369:Generated_Source\PSoC4/CapSense.c **** *******************************************************************************/
 370:Generated_Source\PSoC4/CapSense.c **** void CapSense_Start(void)
 371:Generated_Source\PSoC4/CapSense.c **** {
 372:Generated_Source\PSoC4/CapSense.c **** 
 373:Generated_Source\PSoC4/CapSense.c ****     static uint8 CapSense_initVar = 0u;
ARM GAS  C:\Users\Zeynep\AppData\Local\Temp\ccgAGQqu.s 			page 11


 374:Generated_Source\PSoC4/CapSense.c **** 
 375:Generated_Source\PSoC4/CapSense.c ****     #if((0u != CapSense_AUTOCALIBRATION_ENABLE) && (CapSense_TUNING_METHOD != CapSense__TUNING_AUTO
 376:Generated_Source\PSoC4/CapSense.c ****         uint32 curSensor;
 377:Generated_Source\PSoC4/CapSense.c ****         uint32 rawLevel;
 378:Generated_Source\PSoC4/CapSense.c ****         uint32 widget;
 379:Generated_Source\PSoC4/CapSense.c ****     #endif /* ((0u != CapSense_AUTOCALIBRATION_ENABLE) && (CapSense_TUNING_METHOD != CapSense__TUNI
 380:Generated_Source\PSoC4/CapSense.c **** 
 381:Generated_Source\PSoC4/CapSense.c ****     if (CapSense_initVar == 0u)
 382:Generated_Source\PSoC4/CapSense.c ****     {
 383:Generated_Source\PSoC4/CapSense.c ****         CapSense_Init();
 384:Generated_Source\PSoC4/CapSense.c ****         CapSense_initVar = 1u;
 385:Generated_Source\PSoC4/CapSense.c ****     }
 386:Generated_Source\PSoC4/CapSense.c ****     CapSense_Enable();
 387:Generated_Source\PSoC4/CapSense.c **** 
 388:Generated_Source\PSoC4/CapSense.c ****     /* AutoTunning start */
 389:Generated_Source\PSoC4/CapSense.c ****     #if(CapSense_TUNING_METHOD == CapSense__TUNING_AUTO)
 390:Generated_Source\PSoC4/CapSense.c ****         #if(0u != CapSense_CSHL_API_GENERATE)
 391:Generated_Source\PSoC4/CapSense.c ****             CapSense_AutoTune();
 392:Generated_Source\PSoC4/CapSense.c ****             CapSense_lowLevelTuningDone = 1u;
 393:Generated_Source\PSoC4/CapSense.c ****         #endif /* (0u != CapSense_CSHL_API_GENERATE) */
 394:Generated_Source\PSoC4/CapSense.c ****     #else
 395:Generated_Source\PSoC4/CapSense.c ****         #if(0u != CapSense_AUTOCALIBRATION_ENABLE)
 396:Generated_Source\PSoC4/CapSense.c **** 
 397:Generated_Source\PSoC4/CapSense.c ****             #if(CapSense_IDAC_CNT > 1u)
 398:Generated_Source\PSoC4/CapSense.c ****                 CapSense_CSD_IDAC_REG &= ~(CapSense_CSD_IDAC2_MODE_MASK);
 399:Generated_Source\PSoC4/CapSense.c ****             #endif /* (CapSense_IDAC_CNT > 1u) */
 400:Generated_Source\PSoC4/CapSense.c **** 
 401:Generated_Source\PSoC4/CapSense.c ****             for(curSensor = 0u; curSensor < CapSense_TOTAL_SCANSLOT_COUNT; curSensor++)
 402:Generated_Source\PSoC4/CapSense.c ****             {
 403:Generated_Source\PSoC4/CapSense.c ****                 widget = CapSense_widgetNumber[curSensor];
 404:Generated_Source\PSoC4/CapSense.c ****                 rawLevel = CapSense_widgetResolution[widget] >> CapSense_RESOLUTION_OFFSET;
 405:Generated_Source\PSoC4/CapSense.c **** 
 406:Generated_Source\PSoC4/CapSense.c ****                 /* Calibration level should be equal to 85% from scanning resolution */
 407:Generated_Source\PSoC4/CapSense.c ****                 rawLevel = (rawLevel * 85u) / 100u;
 408:Generated_Source\PSoC4/CapSense.c **** 
 409:Generated_Source\PSoC4/CapSense.c ****                 CapSense_CalibrateSensor(curSensor, rawLevel, CapSense_modulationIDAC);
 410:Generated_Source\PSoC4/CapSense.c ****             }
 411:Generated_Source\PSoC4/CapSense.c **** 
 412:Generated_Source\PSoC4/CapSense.c ****             #if(0u != CapSense_TOTAL_CENTROIDS_COUNT)
 413:Generated_Source\PSoC4/CapSense.c ****                 CapSense_NormalizeWidgets(CapSense_END_OF_WIDGETS_INDEX, CapSense_modulationIDAC);
 414:Generated_Source\PSoC4/CapSense.c ****             #endif /* (0u != CapSense_TOTAL_CENTROIDS_COUNT)  */
 415:Generated_Source\PSoC4/CapSense.c **** 
 416:Generated_Source\PSoC4/CapSense.c ****             #if(CapSense_IDAC_CNT > 1u)
 417:Generated_Source\PSoC4/CapSense.c ****                 for(curSensor = 0u; curSensor < CapSense_TOTAL_SCANSLOT_COUNT; curSensor++)
 418:Generated_Source\PSoC4/CapSense.c ****                 {
 419:Generated_Source\PSoC4/CapSense.c ****                     CapSense_compensationIDAC[curSensor] = CapSense_modulationIDAC[curSensor] / 2u;
 420:Generated_Source\PSoC4/CapSense.c ****                     CapSense_modulationIDAC[curSensor] = (CapSense_modulationIDAC[curSensor] + 1u) 
 421:Generated_Source\PSoC4/CapSense.c ****                 }
 422:Generated_Source\PSoC4/CapSense.c ****                 CapSense_CSD_IDAC_REG |= CapSense_CSD_IDAC2_MODE_FIXED;
 423:Generated_Source\PSoC4/CapSense.c ****             #endif /* (CapSense_IDAC_CNT > 1u) */
 424:Generated_Source\PSoC4/CapSense.c **** 
 425:Generated_Source\PSoC4/CapSense.c ****         #endif /* (0u != CapSense_AUTOCALIBRATION_ENABLE) */
 426:Generated_Source\PSoC4/CapSense.c **** 
 427:Generated_Source\PSoC4/CapSense.c ****     #endif /* ((CapSense_TUNING_METHOD == CapSense__TUNING_AUTO) */
 428:Generated_Source\PSoC4/CapSense.c **** 
 429:Generated_Source\PSoC4/CapSense.c ****     /* Initialize Advanced Centroid */
 430:Generated_Source\PSoC4/CapSense.c ****     #if(CapSense_TOTAL_TRACKPAD_GESTURES_COUNT > 0u)
ARM GAS  C:\Users\Zeynep\AppData\Local\Temp\ccgAGQqu.s 			page 12


 431:Generated_Source\PSoC4/CapSense.c ****         CapSense_AdvancedCentroidInit();
 432:Generated_Source\PSoC4/CapSense.c ****     #endif /* (CapSense_TOTAL_TRACKPAD_GESTURES_COUNT > 0u) */
 433:Generated_Source\PSoC4/CapSense.c **** 
 434:Generated_Source\PSoC4/CapSense.c ****     /* Connect sense comparator input to AMUXA */
 435:Generated_Source\PSoC4/CapSense.c ****     CapSense_CSD_CFG_REG |= CapSense_CSD_CFG_SENSE_INSEL;
 436:Generated_Source\PSoC4/CapSense.c **** }
 437:Generated_Source\PSoC4/CapSense.c **** 
 438:Generated_Source\PSoC4/CapSense.c **** 
 439:Generated_Source\PSoC4/CapSense.c **** /*******************************************************************************
 440:Generated_Source\PSoC4/CapSense.c **** * Function Name: CapSense_Stop
 441:Generated_Source\PSoC4/CapSense.c **** ********************************************************************************
 442:Generated_Source\PSoC4/CapSense.c **** *
 443:Generated_Source\PSoC4/CapSense.c **** * Summary:
 444:Generated_Source\PSoC4/CapSense.c **** *  Stops the sensor scanning, disables component interrupts, and resets all the
 445:Generated_Source\PSoC4/CapSense.c **** *  sensors to an inactive state. Disables the Active mode power template bits for
 446:Generated_Source\PSoC4/CapSense.c **** *  the subcomponents used within CapSense.
 447:Generated_Source\PSoC4/CapSense.c **** *
 448:Generated_Source\PSoC4/CapSense.c **** * Parameters:
 449:Generated_Source\PSoC4/CapSense.c **** *  None
 450:Generated_Source\PSoC4/CapSense.c **** *
 451:Generated_Source\PSoC4/CapSense.c **** * Return:
 452:Generated_Source\PSoC4/CapSense.c **** *  None
 453:Generated_Source\PSoC4/CapSense.c **** *
 454:Generated_Source\PSoC4/CapSense.c **** * Global Variables:
 455:Generated_Source\PSoC4/CapSense.c **** *  CapSense_csdTrim1 - Contains the IDAC trim register value for the Sourcing Mode.
 456:Generated_Source\PSoC4/CapSense.c **** *  CapSense_csdTrim2 - Contains the IDAC trim register value for vSinking Mode.
 457:Generated_Source\PSoC4/CapSense.c **** *
 458:Generated_Source\PSoC4/CapSense.c **** * Side Effects:
 459:Generated_Source\PSoC4/CapSense.c **** *  This function should be called after scans are completed.
 460:Generated_Source\PSoC4/CapSense.c **** *
 461:Generated_Source\PSoC4/CapSense.c **** *******************************************************************************/
 462:Generated_Source\PSoC4/CapSense.c **** void CapSense_Stop(void)
 463:Generated_Source\PSoC4/CapSense.c **** {
 198              		.loc 1 463 0
 199              		.cfi_startproc
 200              		@ args = 0, pretend = 0, frame = 0
 201              		@ frame_needed = 0, uses_anonymous_args = 0
 202 0000 10B5     		push	{r4, lr}
 203              		.cfi_def_cfa_offset 8
 204              		.cfi_offset 4, -8
 205              		.cfi_offset 14, -4
 464:Generated_Source\PSoC4/CapSense.c ****     /* Disable interrupt */
 465:Generated_Source\PSoC4/CapSense.c ****     CyIntDisable(CapSense_ISR_NUMBER);
 206              		.loc 1 465 0
 207 0002 0F20     		movs	r0, #15
 208 0004 FFF7FEFF 		bl	CyIntDisable
 209              	.LVL23:
 466:Generated_Source\PSoC4/CapSense.c **** 
 467:Generated_Source\PSoC4/CapSense.c ****     CapSense_CSD_CFG_REG &= ~(CapSense_CSD_CFG_SENSE_COMP_EN | CapSense_CSD_CFG_SENSE_EN);
 210              		.loc 1 467 0
 211 0008 064A     		ldr	r2, .L8
 212 000a 1168     		ldr	r1, [r2]
 213 000c 064B     		ldr	r3, .L8+4
 214 000e 0B40     		ands	r3, r1
 215 0010 1360     		str	r3, [r2]
 468:Generated_Source\PSoC4/CapSense.c **** 
 469:Generated_Source\PSoC4/CapSense.c ****     #if(CapSense_IDAC_CNT == 2u)
ARM GAS  C:\Users\Zeynep\AppData\Local\Temp\ccgAGQqu.s 			page 13


 470:Generated_Source\PSoC4/CapSense.c ****         CapSense_CSD_CFG_REG &= ~(CapSense_CSD_CFG_ENABLE);
 216              		.loc 1 470 0
 217 0012 1368     		ldr	r3, [r2]
 218 0014 5B00     		lsls	r3, r3, #1
 219 0016 5B08     		lsrs	r3, r3, #1
 220 0018 1360     		str	r3, [r2]
 471:Generated_Source\PSoC4/CapSense.c ****     #endif /* (CapSense_IDAC_CNT == 2u) */
 472:Generated_Source\PSoC4/CapSense.c **** 
 473:Generated_Source\PSoC4/CapSense.c ****     /* Disable the Clocks */
 474:Generated_Source\PSoC4/CapSense.c ****     CapSense_SenseClk_Stop();
 221              		.loc 1 474 0
 222 001a FFF7FEFF 		bl	CapSense_SenseClk_Stop
 223              	.LVL24:
 475:Generated_Source\PSoC4/CapSense.c ****     CapSense_SampleClk_Stop();
 224              		.loc 1 475 0
 225 001e FFF7FEFF 		bl	CapSense_SampleClk_Stop
 226              	.LVL25:
 476:Generated_Source\PSoC4/CapSense.c **** }
 227              		.loc 1 476 0
 228              		@ sp needed
 229 0022 10BD     		pop	{r4, pc}
 230              	.L9:
 231              		.align	2
 232              	.L8:
 233 0024 04000840 		.word	1074266116
 234 0028 FFEFF7FF 		.word	-528385
 235              		.cfi_endproc
 236              	.LFE36:
 237              		.size	CapSense_Stop, .-CapSense_Stop
 238              		.section	.text.CapSense_IsBusy,"ax",%progbits
 239              		.align	2
 240              		.global	CapSense_IsBusy
 241              		.code	16
 242              		.thumb_func
 243              		.type	CapSense_IsBusy, %function
 244              	CapSense_IsBusy:
 245              	.LFB41:
 477:Generated_Source\PSoC4/CapSense.c **** 
 478:Generated_Source\PSoC4/CapSense.c **** 
 479:Generated_Source\PSoC4/CapSense.c **** /*******************************************************************************
 480:Generated_Source\PSoC4/CapSense.c **** * Function Name: CapSense_FindNextSensor
 481:Generated_Source\PSoC4/CapSense.c **** ********************************************************************************
 482:Generated_Source\PSoC4/CapSense.c **** *
 483:Generated_Source\PSoC4/CapSense.c **** * Summary:
 484:Generated_Source\PSoC4/CapSense.c **** *  Finds the next sensor to scan.
 485:Generated_Source\PSoC4/CapSense.c **** *
 486:Generated_Source\PSoC4/CapSense.c **** * Parameters:
 487:Generated_Source\PSoC4/CapSense.c **** *  snsIndex:  Current index of sensor.
 488:Generated_Source\PSoC4/CapSense.c **** *
 489:Generated_Source\PSoC4/CapSense.c **** * Return:
 490:Generated_Source\PSoC4/CapSense.c **** *  Returns the next sensor index to scan.
 491:Generated_Source\PSoC4/CapSense.c **** *
 492:Generated_Source\PSoC4/CapSense.c **** * Global Variables:
 493:Generated_Source\PSoC4/CapSense.c **** *  CapSense_sensorEnableMask[] - used to store bit masks of the enabled sensors.
 494:Generated_Source\PSoC4/CapSense.c **** *
 495:Generated_Source\PSoC4/CapSense.c **** * Side Effects:
 496:Generated_Source\PSoC4/CapSense.c **** *  This function affects the  current scanning and should not
ARM GAS  C:\Users\Zeynep\AppData\Local\Temp\ccgAGQqu.s 			page 14


 497:Generated_Source\PSoC4/CapSense.c **** *  be used outside the component.
 498:Generated_Source\PSoC4/CapSense.c **** *
 499:Generated_Source\PSoC4/CapSense.c **** *******************************************************************************/
 500:Generated_Source\PSoC4/CapSense.c **** uint8 CapSense_FindNextSensor(uint8 snsIndex)
 501:Generated_Source\PSoC4/CapSense.c **** {
 502:Generated_Source\PSoC4/CapSense.c ****     uint32 enableFlag;
 503:Generated_Source\PSoC4/CapSense.c **** 
 504:Generated_Source\PSoC4/CapSense.c ****     /* Check if sensor enabled */
 505:Generated_Source\PSoC4/CapSense.c ****     do
 506:Generated_Source\PSoC4/CapSense.c ****     {
 507:Generated_Source\PSoC4/CapSense.c ****         /* Proceed with next sensor */
 508:Generated_Source\PSoC4/CapSense.c ****         snsIndex++;
 509:Generated_Source\PSoC4/CapSense.c ****         if(snsIndex == CapSense_TOTAL_SENSOR_COUNT)
 510:Generated_Source\PSoC4/CapSense.c ****         {
 511:Generated_Source\PSoC4/CapSense.c ****             break;
 512:Generated_Source\PSoC4/CapSense.c ****         }
 513:Generated_Source\PSoC4/CapSense.c ****         enableFlag = CapSense_GetBitValue(CapSense_sensorEnableMask, (uint32)snsIndex);
 514:Generated_Source\PSoC4/CapSense.c ****     }
 515:Generated_Source\PSoC4/CapSense.c ****     while(enableFlag == 0u);
 516:Generated_Source\PSoC4/CapSense.c **** 
 517:Generated_Source\PSoC4/CapSense.c ****     return ((uint8)snsIndex);
 518:Generated_Source\PSoC4/CapSense.c **** }
 519:Generated_Source\PSoC4/CapSense.c **** 
 520:Generated_Source\PSoC4/CapSense.c **** 
 521:Generated_Source\PSoC4/CapSense.c **** /*******************************************************************************
 522:Generated_Source\PSoC4/CapSense.c **** * Function Name: CapSense_ScanSensor
 523:Generated_Source\PSoC4/CapSense.c **** ********************************************************************************
 524:Generated_Source\PSoC4/CapSense.c **** *
 525:Generated_Source\PSoC4/CapSense.c **** * Summary:
 526:Generated_Source\PSoC4/CapSense.c **** *  Sets the scan settings and starts scanning a sensor. After scanning is complete,
 527:Generated_Source\PSoC4/CapSense.c **** *  the ISR copies the measured sensor raw data to the global raw sensor array.
 528:Generated_Source\PSoC4/CapSense.c **** *  Use of the ISR ensures this function is non-blocking.
 529:Generated_Source\PSoC4/CapSense.c **** *  Each sensor has a unique number within the sensor array.
 530:Generated_Source\PSoC4/CapSense.c **** *  This number is assigned by the CapSense customizer in sequence.
 531:Generated_Source\PSoC4/CapSense.c **** *
 532:Generated_Source\PSoC4/CapSense.c **** * Parameters:
 533:Generated_Source\PSoC4/CapSense.c **** *  sensor:  Sensor number.
 534:Generated_Source\PSoC4/CapSense.c **** *
 535:Generated_Source\PSoC4/CapSense.c **** * Return:
 536:Generated_Source\PSoC4/CapSense.c **** *  None
 537:Generated_Source\PSoC4/CapSense.c **** *
 538:Generated_Source\PSoC4/CapSense.c **** * Global Variables:
 539:Generated_Source\PSoC4/CapSense.c **** *  CapSense_csdStatusVar - used to provide the status and mode of the scanning process.
 540:Generated_Source\PSoC4/CapSense.c **** *  Sets the busy status(scan in progress) and mode of scan as single scan.
 541:Generated_Source\PSoC4/CapSense.c **** *  CapSense_sensorIndex - used to store a sensor scanning sensor number.
 542:Generated_Source\PSoC4/CapSense.c **** *  Sets to the provided sensor argument.
 543:Generated_Source\PSoC4/CapSense.c **** *
 544:Generated_Source\PSoC4/CapSense.c **** * Side Effects:
 545:Generated_Source\PSoC4/CapSense.c **** *  None
 546:Generated_Source\PSoC4/CapSense.c **** *
 547:Generated_Source\PSoC4/CapSense.c **** *******************************************************************************/
 548:Generated_Source\PSoC4/CapSense.c **** void CapSense_ScanSensor(uint32 sensor)
 549:Generated_Source\PSoC4/CapSense.c **** {
 550:Generated_Source\PSoC4/CapSense.c ****     /* Clears status/control variable and set sensorIndex */
 551:Generated_Source\PSoC4/CapSense.c ****     CapSense_csdStatusVar = 0u;
 552:Generated_Source\PSoC4/CapSense.c ****     CapSense_sensorIndex = (uint8)sensor;
 553:Generated_Source\PSoC4/CapSense.c **** 
ARM GAS  C:\Users\Zeynep\AppData\Local\Temp\ccgAGQqu.s 			page 15


 554:Generated_Source\PSoC4/CapSense.c ****     /* Start of sensor scan */
 555:Generated_Source\PSoC4/CapSense.c ****     CapSense_csdStatusVar = (CapSense_SW_STS_BUSY | CapSense_SW_CTRL_SINGLE_SCAN);
 556:Generated_Source\PSoC4/CapSense.c ****     CapSense_PreScan(sensor);
 557:Generated_Source\PSoC4/CapSense.c **** }
 558:Generated_Source\PSoC4/CapSense.c **** 
 559:Generated_Source\PSoC4/CapSense.c **** 
 560:Generated_Source\PSoC4/CapSense.c **** #if(0u != CapSense_CSHL_API_GENERATE)
 561:Generated_Source\PSoC4/CapSense.c **** /*******************************************************************************
 562:Generated_Source\PSoC4/CapSense.c **** * Function Name: CapSense_ScanWidget
 563:Generated_Source\PSoC4/CapSense.c **** ********************************************************************************
 564:Generated_Source\PSoC4/CapSense.c **** *
 565:Generated_Source\PSoC4/CapSense.c **** * Summary:
 566:Generated_Source\PSoC4/CapSense.c **** *  Sets the scan settings and starts scanning a widget.
 567:Generated_Source\PSoC4/CapSense.c **** *
 568:Generated_Source\PSoC4/CapSense.c **** * Parameters:
 569:Generated_Source\PSoC4/CapSense.c **** *  uint32 widget: Widget number.
 570:Generated_Source\PSoC4/CapSense.c **** *
 571:Generated_Source\PSoC4/CapSense.c **** * Return:
 572:Generated_Source\PSoC4/CapSense.c **** *  None
 573:Generated_Source\PSoC4/CapSense.c **** *
 574:Generated_Source\PSoC4/CapSense.c **** * Global Variables:
 575:Generated_Source\PSoC4/CapSense.c **** *  CapSense_csdStatusVar - used to provide the status and mode of the scanning process.
 576:Generated_Source\PSoC4/CapSense.c **** *  Sets the busy status(scan in progress) and clears the single scan mode.
 577:Generated_Source\PSoC4/CapSense.c **** *  CapSense_sensorIndex - used to store a sensor scanning sensor number.
 578:Generated_Source\PSoC4/CapSense.c **** *  Sets to 0xFF and provided to function CapSense_FindNextSensor or
 579:Generated_Source\PSoC4/CapSense.c **** *  CapSense_sensorEnableMask[] - used to store bit masks of the enabled sensors.
 580:Generated_Source\PSoC4/CapSense.c **** *  CapSense_sensorEnableMaskBackup[] - used to backup bit masks of the enabled
 581:Generated_Source\PSoC4/CapSense.c **** *   sensors.
 582:Generated_Source\PSoC4/CapSense.c **** *
 583:Generated_Source\PSoC4/CapSense.c **** * Side Effects:
 584:Generated_Source\PSoC4/CapSense.c **** *  None
 585:Generated_Source\PSoC4/CapSense.c **** *
 586:Generated_Source\PSoC4/CapSense.c **** *******************************************************************************/
 587:Generated_Source\PSoC4/CapSense.c **** void CapSense_ScanWidget(uint32 widget)
 588:Generated_Source\PSoC4/CapSense.c **** {
 589:Generated_Source\PSoC4/CapSense.c ****     uint32 sensorsPerWidget;
 590:Generated_Source\PSoC4/CapSense.c ****     uint32 lastSensor;
 591:Generated_Source\PSoC4/CapSense.c ****     uint32 snsIndex;
 592:Generated_Source\PSoC4/CapSense.c **** 
 593:Generated_Source\PSoC4/CapSense.c ****     /* Get first sensor in widget */
 594:Generated_Source\PSoC4/CapSense.c ****     CapSense_sensorIndex = CapSense_rawDataIndex[widget];
 595:Generated_Source\PSoC4/CapSense.c **** 
 596:Generated_Source\PSoC4/CapSense.c ****     /* Get number of sensors in widget */
 597:Generated_Source\PSoC4/CapSense.c ****     sensorsPerWidget = CapSense_numberOfSensors[widget];
 598:Generated_Source\PSoC4/CapSense.c **** 
 599:Generated_Source\PSoC4/CapSense.c ****     /* Check if generic Sensor */
 600:Generated_Source\PSoC4/CapSense.c ****     if(sensorsPerWidget == 0u)
 601:Generated_Source\PSoC4/CapSense.c ****     {
 602:Generated_Source\PSoC4/CapSense.c ****         sensorsPerWidget = 1u;
 603:Generated_Source\PSoC4/CapSense.c ****     }
 604:Generated_Source\PSoC4/CapSense.c **** 
 605:Generated_Source\PSoC4/CapSense.c ****     /* Get last sensor in widget */
 606:Generated_Source\PSoC4/CapSense.c ****     lastSensor = (CapSense_rawDataIndex[widget] + sensorsPerWidget) - 1u;
 607:Generated_Source\PSoC4/CapSense.c **** 
 608:Generated_Source\PSoC4/CapSense.c ****     /* Backup sensorEnableMask array */
 609:Generated_Source\PSoC4/CapSense.c ****     for(snsIndex = 0u; snsIndex < CapSense_TOTAL_SENSOR_MASK; snsIndex++)
 610:Generated_Source\PSoC4/CapSense.c ****     {
ARM GAS  C:\Users\Zeynep\AppData\Local\Temp\ccgAGQqu.s 			page 16


 611:Generated_Source\PSoC4/CapSense.c ****         /* Backup sensorEnableMask array */
 612:Generated_Source\PSoC4/CapSense.c ****         CapSense_sensorEnableMaskBackup[snsIndex] = CapSense_sensorEnableMask[snsIndex];
 613:Generated_Source\PSoC4/CapSense.c ****     }
 614:Generated_Source\PSoC4/CapSense.c **** 
 615:Generated_Source\PSoC4/CapSense.c ****     /* Update sensorEnableMask to scan the sensors that belong to widget */
 616:Generated_Source\PSoC4/CapSense.c ****     for(snsIndex = 0u; snsIndex < CapSense_TOTAL_SENSOR_COUNT; snsIndex++)
 617:Generated_Source\PSoC4/CapSense.c ****     {
 618:Generated_Source\PSoC4/CapSense.c ****         /* Update sensorEnableMask array bits to scan the widget only */
 619:Generated_Source\PSoC4/CapSense.c ****         if((snsIndex >= CapSense_sensorIndex) && (snsIndex <= lastSensor))
 620:Generated_Source\PSoC4/CapSense.c ****         {
 621:Generated_Source\PSoC4/CapSense.c ****             /* Set sensor bit to scan */
 622:Generated_Source\PSoC4/CapSense.c ****             CapSense_SetBitValue(CapSense_sensorEnableMask, snsIndex, 1u);
 623:Generated_Source\PSoC4/CapSense.c ****         }
 624:Generated_Source\PSoC4/CapSense.c ****         else
 625:Generated_Source\PSoC4/CapSense.c ****         {
 626:Generated_Source\PSoC4/CapSense.c ****             /* Reset sensor bit to do not scan */
 627:Generated_Source\PSoC4/CapSense.c ****             CapSense_SetBitValue(CapSense_sensorEnableMask, snsIndex, 0u);
 628:Generated_Source\PSoC4/CapSense.c ****         }
 629:Generated_Source\PSoC4/CapSense.c ****     }
 630:Generated_Source\PSoC4/CapSense.c **** 
 631:Generated_Source\PSoC4/CapSense.c ****     /* Check end of scan condition */
 632:Generated_Source\PSoC4/CapSense.c ****     if(CapSense_sensorIndex < CapSense_TOTAL_SENSOR_COUNT)
 633:Generated_Source\PSoC4/CapSense.c ****     {
 634:Generated_Source\PSoC4/CapSense.c ****         /* Set widget busy bit in status/control variable*/
 635:Generated_Source\PSoC4/CapSense.c ****         CapSense_csdStatusVar = (CapSense_SW_STS_BUSY | CapSense_SW_CTRL_WIDGET_SCAN);
 636:Generated_Source\PSoC4/CapSense.c ****         /* Scan first sensor of widget*/
 637:Generated_Source\PSoC4/CapSense.c ****         CapSense_PreScan((uint32)CapSense_sensorIndex);
 638:Generated_Source\PSoC4/CapSense.c ****     }
 639:Generated_Source\PSoC4/CapSense.c **** }
 640:Generated_Source\PSoC4/CapSense.c **** #endif /* (0u != CapSense_CSHL_API_GENERATE) */
 641:Generated_Source\PSoC4/CapSense.c **** 
 642:Generated_Source\PSoC4/CapSense.c **** 
 643:Generated_Source\PSoC4/CapSense.c **** /*******************************************************************************
 644:Generated_Source\PSoC4/CapSense.c **** * Function Name: CapSense_ScanEnableWidgets
 645:Generated_Source\PSoC4/CapSense.c **** ********************************************************************************
 646:Generated_Source\PSoC4/CapSense.c **** *
 647:Generated_Source\PSoC4/CapSense.c **** * Summary:
 648:Generated_Source\PSoC4/CapSense.c **** *  This is the preferred method to scan all of the enabled widgets.
 649:Generated_Source\PSoC4/CapSense.c **** *  The API starts scanning a sensor within the enabled widgets.
 650:Generated_Source\PSoC4/CapSense.c **** *  The ISR continues scanning the sensors until all the enabled widgets are scanned.
 651:Generated_Source\PSoC4/CapSense.c **** *  Use of the ISR ensures this function is non-blocking.
 652:Generated_Source\PSoC4/CapSense.c **** *  All the widgets are enabled by default except proximity widgets.
 653:Generated_Source\PSoC4/CapSense.c **** *  The proximity widgets must be manually enabled as their long scan time
 654:Generated_Source\PSoC4/CapSense.c **** *  is incompatible with a fast response required of other widget types.
 655:Generated_Source\PSoC4/CapSense.c **** *
 656:Generated_Source\PSoC4/CapSense.c **** * Parameters:
 657:Generated_Source\PSoC4/CapSense.c **** *  None
 658:Generated_Source\PSoC4/CapSense.c **** *
 659:Generated_Source\PSoC4/CapSense.c **** * Return:
 660:Generated_Source\PSoC4/CapSense.c **** *  None
 661:Generated_Source\PSoC4/CapSense.c **** *
 662:Generated_Source\PSoC4/CapSense.c **** * Global Variables:
 663:Generated_Source\PSoC4/CapSense.c **** *  CapSense_csdStatusVar - used to provide the status and mode of the scanning process.
 664:Generated_Source\PSoC4/CapSense.c **** *  Sets the busy status(scan in progress) and clears the single scan mode.
 665:Generated_Source\PSoC4/CapSense.c **** *  CapSense_sensorIndex - used to store a sensor scanning sensor number.
 666:Generated_Source\PSoC4/CapSense.c **** *  Sets to 0xFF and provided to function CapSense_FindNextSensor or
 667:Generated_Source\PSoC4/CapSense.c **** *
ARM GAS  C:\Users\Zeynep\AppData\Local\Temp\ccgAGQqu.s 			page 17


 668:Generated_Source\PSoC4/CapSense.c **** * Side Effects:
 669:Generated_Source\PSoC4/CapSense.c **** *  None
 670:Generated_Source\PSoC4/CapSense.c **** *
 671:Generated_Source\PSoC4/CapSense.c **** *******************************************************************************/
 672:Generated_Source\PSoC4/CapSense.c **** void CapSense_ScanEnabledWidgets(void)
 673:Generated_Source\PSoC4/CapSense.c **** {
 674:Generated_Source\PSoC4/CapSense.c ****     /* Clears status/control variable and set sensorIndex */
 675:Generated_Source\PSoC4/CapSense.c ****     CapSense_csdStatusVar = 0u;
 676:Generated_Source\PSoC4/CapSense.c ****     CapSense_sensorIndex = 0xFFu;
 677:Generated_Source\PSoC4/CapSense.c **** 
 678:Generated_Source\PSoC4/CapSense.c ****     /* Find next sensor */
 679:Generated_Source\PSoC4/CapSense.c ****     CapSense_sensorIndex = (uint8)CapSense_FindNextSensor(CapSense_sensorIndex);
 680:Generated_Source\PSoC4/CapSense.c **** 
 681:Generated_Source\PSoC4/CapSense.c ****     /* Check end of scan condition */
 682:Generated_Source\PSoC4/CapSense.c ****     if(CapSense_sensorIndex < CapSense_TOTAL_SENSOR_COUNT)
 683:Generated_Source\PSoC4/CapSense.c ****     {
 684:Generated_Source\PSoC4/CapSense.c ****         CapSense_csdStatusVar |= CapSense_SW_STS_BUSY;
 685:Generated_Source\PSoC4/CapSense.c ****         CapSense_PreScan((uint32)CapSense_sensorIndex);
 686:Generated_Source\PSoC4/CapSense.c ****     }
 687:Generated_Source\PSoC4/CapSense.c **** }
 688:Generated_Source\PSoC4/CapSense.c **** 
 689:Generated_Source\PSoC4/CapSense.c **** 
 690:Generated_Source\PSoC4/CapSense.c **** /*******************************************************************************
 691:Generated_Source\PSoC4/CapSense.c **** * Function Name: CapSense_IsBusy
 692:Generated_Source\PSoC4/CapSense.c **** ********************************************************************************
 693:Generated_Source\PSoC4/CapSense.c **** *
 694:Generated_Source\PSoC4/CapSense.c **** * Summary:
 695:Generated_Source\PSoC4/CapSense.c **** *  Returns the state of the CapSense component. 1 means that scanning in
 696:Generated_Source\PSoC4/CapSense.c **** *  progress and 0 means that scanning is complete.
 697:Generated_Source\PSoC4/CapSense.c **** *
 698:Generated_Source\PSoC4/CapSense.c **** * Parameters:
 699:Generated_Source\PSoC4/CapSense.c **** *  None
 700:Generated_Source\PSoC4/CapSense.c **** *
 701:Generated_Source\PSoC4/CapSense.c **** * Return:
 702:Generated_Source\PSoC4/CapSense.c **** *  Returns the state of scanning. 1 - scanning in progress, 0 - scanning
 703:Generated_Source\PSoC4/CapSense.c **** *  completed.
 704:Generated_Source\PSoC4/CapSense.c **** *
 705:Generated_Source\PSoC4/CapSense.c **** * Global Variables:
 706:Generated_Source\PSoC4/CapSense.c **** *  CapSense_csdStatusVar - used to provide the status and mode of the scanning process.
 707:Generated_Source\PSoC4/CapSense.c **** *  Checks the busy status.
 708:Generated_Source\PSoC4/CapSense.c **** *
 709:Generated_Source\PSoC4/CapSense.c **** * Side Effects:
 710:Generated_Source\PSoC4/CapSense.c **** *  None
 711:Generated_Source\PSoC4/CapSense.c **** *
 712:Generated_Source\PSoC4/CapSense.c **** *******************************************************************************/
 713:Generated_Source\PSoC4/CapSense.c **** uint32 CapSense_IsBusy(void)
 714:Generated_Source\PSoC4/CapSense.c **** {
 246              		.loc 1 714 0
 247              		.cfi_startproc
 248              		@ args = 0, pretend = 0, frame = 0
 249              		@ frame_needed = 0, uses_anonymous_args = 0
 250              		@ link register save eliminated.
 715:Generated_Source\PSoC4/CapSense.c ****     return ((uint32)((0u != (CapSense_csdStatusVar & CapSense_SW_STS_BUSY)) ? 1u : 0u));
 251              		.loc 1 715 0
 252 0000 024B     		ldr	r3, .L11
 253 0002 1878     		ldrb	r0, [r3]
 254 0004 0123     		movs	r3, #1
ARM GAS  C:\Users\Zeynep\AppData\Local\Temp\ccgAGQqu.s 			page 18


 255 0006 1840     		ands	r0, r3
 716:Generated_Source\PSoC4/CapSense.c **** }
 256              		.loc 1 716 0
 257              		@ sp needed
 258 0008 7047     		bx	lr
 259              	.L12:
 260 000a C046     		.align	2
 261              	.L11:
 262 000c 00000000 		.word	.LANCHOR0
 263              		.cfi_endproc
 264              	.LFE41:
 265              		.size	CapSense_IsBusy, .-CapSense_IsBusy
 266              		.section	.text.CapSense_ReadSensorRaw,"ax",%progbits
 267              		.align	2
 268              		.global	CapSense_ReadSensorRaw
 269              		.code	16
 270              		.thumb_func
 271              		.type	CapSense_ReadSensorRaw, %function
 272              	CapSense_ReadSensorRaw:
 273              	.LFB42:
 717:Generated_Source\PSoC4/CapSense.c **** 
 718:Generated_Source\PSoC4/CapSense.c **** 
 719:Generated_Source\PSoC4/CapSense.c **** /*******************************************************************************
 720:Generated_Source\PSoC4/CapSense.c **** * Function Name: CapSense_ReadSensorRaw
 721:Generated_Source\PSoC4/CapSense.c **** ********************************************************************************
 722:Generated_Source\PSoC4/CapSense.c **** *
 723:Generated_Source\PSoC4/CapSense.c **** * Summary:
 724:Generated_Source\PSoC4/CapSense.c **** *  Returns sensor raw data from the global CapSense_sensorRaw[ ] array.
 725:Generated_Source\PSoC4/CapSense.c **** *  Each scan sensor has a unique number within the sensor array.
 726:Generated_Source\PSoC4/CapSense.c **** *  This number is assigned by the CapSense customizer in sequence.
 727:Generated_Source\PSoC4/CapSense.c **** *  Raw data can be used to perform calculations outside of the CapSense
 728:Generated_Source\PSoC4/CapSense.c **** *  provided framework.
 729:Generated_Source\PSoC4/CapSense.c **** *
 730:Generated_Source\PSoC4/CapSense.c **** * Parameters:
 731:Generated_Source\PSoC4/CapSense.c **** *  sensor:  Sensor number.
 732:Generated_Source\PSoC4/CapSense.c **** *
 733:Generated_Source\PSoC4/CapSense.c **** * Return:
 734:Generated_Source\PSoC4/CapSense.c **** *  Returns the current raw data value for a defined sensor number.
 735:Generated_Source\PSoC4/CapSense.c **** *
 736:Generated_Source\PSoC4/CapSense.c **** * Global Variables:
 737:Generated_Source\PSoC4/CapSense.c **** *  CapSense_sensorRaw[] - used to store sensors raw data.
 738:Generated_Source\PSoC4/CapSense.c **** *
 739:Generated_Source\PSoC4/CapSense.c **** * Side Effects:
 740:Generated_Source\PSoC4/CapSense.c **** *  None
 741:Generated_Source\PSoC4/CapSense.c **** *
 742:Generated_Source\PSoC4/CapSense.c **** *******************************************************************************/
 743:Generated_Source\PSoC4/CapSense.c **** uint16 CapSense_ReadSensorRaw(uint32 sensor)
 744:Generated_Source\PSoC4/CapSense.c **** {
 274              		.loc 1 744 0
 275              		.cfi_startproc
 276              		@ args = 0, pretend = 0, frame = 0
 277              		@ frame_needed = 0, uses_anonymous_args = 0
 278              		@ link register save eliminated.
 279              	.LVL26:
 745:Generated_Source\PSoC4/CapSense.c ****     return CapSense_sensorRaw[sensor];
 280              		.loc 1 745 0
 281 0000 4000     		lsls	r0, r0, #1
ARM GAS  C:\Users\Zeynep\AppData\Local\Temp\ccgAGQqu.s 			page 19


 282              	.LVL27:
 283 0002 024B     		ldr	r3, .L14
 284 0004 1818     		adds	r0, r3, r0
 285 0006 8088     		ldrh	r0, [r0, #4]
 746:Generated_Source\PSoC4/CapSense.c **** }
 286              		.loc 1 746 0
 287              		@ sp needed
 288 0008 7047     		bx	lr
 289              	.L15:
 290 000a C046     		.align	2
 291              	.L14:
 292 000c 00000000 		.word	.LANCHOR0
 293              		.cfi_endproc
 294              	.LFE42:
 295              		.size	CapSense_ReadSensorRaw, .-CapSense_ReadSensorRaw
 296              		.section	.text.CapSense_WriteSensorRaw,"ax",%progbits
 297              		.align	2
 298              		.global	CapSense_WriteSensorRaw
 299              		.code	16
 300              		.thumb_func
 301              		.type	CapSense_WriteSensorRaw, %function
 302              	CapSense_WriteSensorRaw:
 303              	.LFB43:
 747:Generated_Source\PSoC4/CapSense.c **** 
 748:Generated_Source\PSoC4/CapSense.c **** 
 749:Generated_Source\PSoC4/CapSense.c **** /*******************************************************************************
 750:Generated_Source\PSoC4/CapSense.c **** * Function Name: CapSense_WriteSensorRaw
 751:Generated_Source\PSoC4/CapSense.c **** ********************************************************************************
 752:Generated_Source\PSoC4/CapSense.c **** *
 753:Generated_Source\PSoC4/CapSense.c **** * Summary:
 754:Generated_Source\PSoC4/CapSense.c **** *  This API writes the raw count value passed as an argument to the sensor Raw count array.
 755:Generated_Source\PSoC4/CapSense.c **** *
 756:Generated_Source\PSoC4/CapSense.c **** * Parameters:
 757:Generated_Source\PSoC4/CapSense.c **** *  sensor:  Sensor number.
 758:Generated_Source\PSoC4/CapSense.c **** *  value: Raw count value.
 759:Generated_Source\PSoC4/CapSense.c **** *
 760:Generated_Source\PSoC4/CapSense.c **** * Global Variables:
 761:Generated_Source\PSoC4/CapSense.c **** *  CapSense_sensorRaw[] - used to store sensors raw data.
 762:Generated_Source\PSoC4/CapSense.c **** *
 763:Generated_Source\PSoC4/CapSense.c **** * Return:
 764:Generated_Source\PSoC4/CapSense.c **** *  None
 765:Generated_Source\PSoC4/CapSense.c **** *
 766:Generated_Source\PSoC4/CapSense.c **** * Side Effects:
 767:Generated_Source\PSoC4/CapSense.c **** *  None
 768:Generated_Source\PSoC4/CapSense.c **** *
 769:Generated_Source\PSoC4/CapSense.c **** *******************************************************************************/
 770:Generated_Source\PSoC4/CapSense.c **** void CapSense_WriteSensorRaw(uint32 sensor, uint16 value)
 771:Generated_Source\PSoC4/CapSense.c **** {
 304              		.loc 1 771 0
 305              		.cfi_startproc
 306              		@ args = 0, pretend = 0, frame = 0
 307              		@ frame_needed = 0, uses_anonymous_args = 0
 308              		@ link register save eliminated.
 309              	.LVL28:
 772:Generated_Source\PSoC4/CapSense.c ****     CapSense_sensorRaw[sensor] = value;
 310              		.loc 1 772 0
 311 0000 4000     		lsls	r0, r0, #1
ARM GAS  C:\Users\Zeynep\AppData\Local\Temp\ccgAGQqu.s 			page 20


 312              	.LVL29:
 313 0002 024B     		ldr	r3, .L17
 314 0004 1818     		adds	r0, r3, r0
 315 0006 8180     		strh	r1, [r0, #4]
 773:Generated_Source\PSoC4/CapSense.c **** }
 316              		.loc 1 773 0
 317              		@ sp needed
 318 0008 7047     		bx	lr
 319              	.L18:
 320 000a C046     		.align	2
 321              	.L17:
 322 000c 00000000 		.word	.LANCHOR0
 323              		.cfi_endproc
 324              	.LFE43:
 325              		.size	CapSense_WriteSensorRaw, .-CapSense_WriteSensorRaw
 326              		.section	.text.CapSense_SetScanResolution,"ax",%progbits
 327              		.align	2
 328              		.global	CapSense_SetScanResolution
 329              		.code	16
 330              		.thumb_func
 331              		.type	CapSense_SetScanResolution, %function
 332              	CapSense_SetScanResolution:
 333              	.LFB44:
 774:Generated_Source\PSoC4/CapSense.c **** 
 775:Generated_Source\PSoC4/CapSense.c **** 
 776:Generated_Source\PSoC4/CapSense.c **** #if (CapSense_TUNING_METHOD != CapSense__TUNING_NONE)
 777:Generated_Source\PSoC4/CapSense.c ****     /*******************************************************************************
 778:Generated_Source\PSoC4/CapSense.c ****     * Function Name: CapSense_SetScanResolution
 779:Generated_Source\PSoC4/CapSense.c ****     ********************************************************************************
 780:Generated_Source\PSoC4/CapSense.c ****     *
 781:Generated_Source\PSoC4/CapSense.c ****     * Summary:
 782:Generated_Source\PSoC4/CapSense.c ****     *  Sets a value of the sensor scan resolution for a widget.
 783:Generated_Source\PSoC4/CapSense.c ****     *  The MIN resolution can be set 8-bit. The MAX Resolution can be set 16 bit.
 784:Generated_Source\PSoC4/CapSense.c ****     *  This function is not available for the tuning mode "None".
 785:Generated_Source\PSoC4/CapSense.c ****     *
 786:Generated_Source\PSoC4/CapSense.c ****     * Parameters:
 787:Generated_Source\PSoC4/CapSense.c ****     *  widget:     Widget index.
 788:Generated_Source\PSoC4/CapSense.c ****     *  resolution: Represents the resolution value. The following defines which are available in th
 789:Generated_Source\PSoC4/CapSense.c ****     *              CapSense.h file should be used:
 790:Generated_Source\PSoC4/CapSense.c ****     *              CapSense_RESOLUTION_6_BITS
 791:Generated_Source\PSoC4/CapSense.c ****     *              CapSense_RESOLUTION_7_BITS
 792:Generated_Source\PSoC4/CapSense.c ****     *              CapSense_RESOLUTION_8_BITS
 793:Generated_Source\PSoC4/CapSense.c ****     *              CapSense_RESOLUTION_9_BITS
 794:Generated_Source\PSoC4/CapSense.c ****     *              CapSense_RESOLUTION_10_BITS
 795:Generated_Source\PSoC4/CapSense.c ****     *              CapSense_RESOLUTION_11_BITS
 796:Generated_Source\PSoC4/CapSense.c ****     *              CapSense_RESOLUTION_12_BITS
 797:Generated_Source\PSoC4/CapSense.c ****     *              CapSense_RESOLUTION_13_BITS
 798:Generated_Source\PSoC4/CapSense.c ****     *              CapSense_RESOLUTION_14_BITS
 799:Generated_Source\PSoC4/CapSense.c ****     *              CapSense_RESOLUTION_15_BITS
 800:Generated_Source\PSoC4/CapSense.c ****     *              CapSense_RESOLUTION_16_BITS
 801:Generated_Source\PSoC4/CapSense.c ****     *
 802:Generated_Source\PSoC4/CapSense.c ****     * Return:
 803:Generated_Source\PSoC4/CapSense.c ****     *  None
 804:Generated_Source\PSoC4/CapSense.c ****     *
 805:Generated_Source\PSoC4/CapSense.c ****     * Global Variables:
 806:Generated_Source\PSoC4/CapSense.c ****     *  CapSense_widgetResolution[] - used to store scan resolution of each widget.
 807:Generated_Source\PSoC4/CapSense.c ****     *
ARM GAS  C:\Users\Zeynep\AppData\Local\Temp\ccgAGQqu.s 			page 21


 808:Generated_Source\PSoC4/CapSense.c ****     * Side Effects:
 809:Generated_Source\PSoC4/CapSense.c ****     *  None
 810:Generated_Source\PSoC4/CapSense.c ****     *
 811:Generated_Source\PSoC4/CapSense.c ****     *******************************************************************************/
 812:Generated_Source\PSoC4/CapSense.c ****     void CapSense_SetScanResolution(uint32 widget, uint32 resolution)
 813:Generated_Source\PSoC4/CapSense.c ****     {
 334              		.loc 1 813 0
 335              		.cfi_startproc
 336              		@ args = 0, pretend = 0, frame = 0
 337              		@ frame_needed = 0, uses_anonymous_args = 0
 338              		@ link register save eliminated.
 339              	.LVL30:
 814:Generated_Source\PSoC4/CapSense.c ****         CapSense_widgetResolution[widget] = resolution;
 340              		.loc 1 814 0
 341 0000 8000     		lsls	r0, r0, #2
 342              	.LVL31:
 343 0002 014B     		ldr	r3, .L20
 344 0004 C150     		str	r1, [r0, r3]
 815:Generated_Source\PSoC4/CapSense.c ****     }
 345              		.loc 1 815 0
 346              		@ sp needed
 347 0006 7047     		bx	lr
 348              	.L21:
 349              		.align	2
 350              	.L20:
 351 0008 00000000 		.word	.LANCHOR1
 352              		.cfi_endproc
 353              	.LFE44:
 354              		.size	CapSense_SetScanResolution, .-CapSense_SetScanResolution
 355              		.section	.text.CapSense_GetScanResolution,"ax",%progbits
 356              		.align	2
 357              		.global	CapSense_GetScanResolution
 358              		.code	16
 359              		.thumb_func
 360              		.type	CapSense_GetScanResolution, %function
 361              	CapSense_GetScanResolution:
 362              	.LFB45:
 816:Generated_Source\PSoC4/CapSense.c **** #endif /* (CapSense_TUNING_METHOD != CapSense__TUNING_NONE) */
 817:Generated_Source\PSoC4/CapSense.c **** 
 818:Generated_Source\PSoC4/CapSense.c **** 
 819:Generated_Source\PSoC4/CapSense.c **** /*******************************************************************************
 820:Generated_Source\PSoC4/CapSense.c **** * Function Name: CapSense_GetScanResolution
 821:Generated_Source\PSoC4/CapSense.c **** ********************************************************************************
 822:Generated_Source\PSoC4/CapSense.c **** *
 823:Generated_Source\PSoC4/CapSense.c **** * Summary:
 824:Generated_Source\PSoC4/CapSense.c **** *  Returns the resolution value for the appropriate sensor.
 825:Generated_Source\PSoC4/CapSense.c **** *  This function is not available for tuning mode "None".
 826:Generated_Source\PSoC4/CapSense.c **** *
 827:Generated_Source\PSoC4/CapSense.c **** * Parameters:
 828:Generated_Source\PSoC4/CapSense.c **** *  widget:     Widget index.
 829:Generated_Source\PSoC4/CapSense.c **** *
 830:Generated_Source\PSoC4/CapSense.c **** * Return:
 831:Generated_Source\PSoC4/CapSense.c **** *  resolution: Returns the resolution value for the appropriate sensor.
 832:Generated_Source\PSoC4/CapSense.c **** *              The resolution values are defined in the CapSense.h file
 833:Generated_Source\PSoC4/CapSense.c **** *              The defines are encountered below:
 834:Generated_Source\PSoC4/CapSense.c **** *              CapSense_RESOLUTION_6_BITS
 835:Generated_Source\PSoC4/CapSense.c **** *              CapSense_RESOLUTION_7_BITS
ARM GAS  C:\Users\Zeynep\AppData\Local\Temp\ccgAGQqu.s 			page 22


 836:Generated_Source\PSoC4/CapSense.c **** *              CapSense_RESOLUTION_8_BITS
 837:Generated_Source\PSoC4/CapSense.c **** *              CapSense_RESOLUTION_9_BITS
 838:Generated_Source\PSoC4/CapSense.c **** *              CapSense_RESOLUTION_10_BITS
 839:Generated_Source\PSoC4/CapSense.c **** *              CapSense_RESOLUTION_11_BITS
 840:Generated_Source\PSoC4/CapSense.c **** *              CapSense_RESOLUTION_12_BITS
 841:Generated_Source\PSoC4/CapSense.c **** *              CapSense_RESOLUTION_13_BITS
 842:Generated_Source\PSoC4/CapSense.c **** *              CapSense_RESOLUTION_14_BITS
 843:Generated_Source\PSoC4/CapSense.c **** *              CapSense_RESOLUTION_15_BITS
 844:Generated_Source\PSoC4/CapSense.c **** *              CapSense_RESOLUTION_16_BITS
 845:Generated_Source\PSoC4/CapSense.c **** *
 846:Generated_Source\PSoC4/CapSense.c **** * Global Variables:
 847:Generated_Source\PSoC4/CapSense.c **** *  CapSense_widgetResolution[] - used to store scan resolution of every widget.
 848:Generated_Source\PSoC4/CapSense.c **** *
 849:Generated_Source\PSoC4/CapSense.c **** * Side Effects:
 850:Generated_Source\PSoC4/CapSense.c **** *  None
 851:Generated_Source\PSoC4/CapSense.c **** *
 852:Generated_Source\PSoC4/CapSense.c **** *******************************************************************************/
 853:Generated_Source\PSoC4/CapSense.c **** uint32 CapSense_GetScanResolution(uint32 widget)
 854:Generated_Source\PSoC4/CapSense.c **** {
 363              		.loc 1 854 0
 364              		.cfi_startproc
 365              		@ args = 0, pretend = 0, frame = 0
 366              		@ frame_needed = 0, uses_anonymous_args = 0
 367              		@ link register save eliminated.
 368              	.LVL32:
 855:Generated_Source\PSoC4/CapSense.c ****     return(CapSense_widgetResolution[widget]);
 369              		.loc 1 855 0
 370 0000 8000     		lsls	r0, r0, #2
 371              	.LVL33:
 372 0002 014B     		ldr	r3, .L23
 373 0004 C058     		ldr	r0, [r0, r3]
 856:Generated_Source\PSoC4/CapSense.c **** }
 374              		.loc 1 856 0
 375              		@ sp needed
 376 0006 7047     		bx	lr
 377              	.L24:
 378              		.align	2
 379              	.L23:
 380 0008 00000000 		.word	.LANCHOR1
 381              		.cfi_endproc
 382              	.LFE45:
 383              		.size	CapSense_GetScanResolution, .-CapSense_GetScanResolution
 384              		.section	.text.CapSense_EnableSensor,"ax",%progbits
 385              		.align	2
 386              		.global	CapSense_EnableSensor
 387              		.code	16
 388              		.thumb_func
 389              		.type	CapSense_EnableSensor, %function
 390              	CapSense_EnableSensor:
 391              	.LFB47:
 857:Generated_Source\PSoC4/CapSense.c **** 
 858:Generated_Source\PSoC4/CapSense.c **** 
 859:Generated_Source\PSoC4/CapSense.c **** /*******************************************************************************
 860:Generated_Source\PSoC4/CapSense.c **** * Function Name: CapSense_ClearSensors
 861:Generated_Source\PSoC4/CapSense.c **** ********************************************************************************
 862:Generated_Source\PSoC4/CapSense.c **** *
 863:Generated_Source\PSoC4/CapSense.c **** * Summary:
ARM GAS  C:\Users\Zeynep\AppData\Local\Temp\ccgAGQqu.s 			page 23


 864:Generated_Source\PSoC4/CapSense.c **** *  Resets all the sensors to the non-sampling state by sequentially disconnecting
 865:Generated_Source\PSoC4/CapSense.c **** *  all the sensors from Analog MUX Bus and putting them to an inactive state.
 866:Generated_Source\PSoC4/CapSense.c **** *
 867:Generated_Source\PSoC4/CapSense.c **** * Parameters:
 868:Generated_Source\PSoC4/CapSense.c **** *  None
 869:Generated_Source\PSoC4/CapSense.c **** *
 870:Generated_Source\PSoC4/CapSense.c **** * Return:
 871:Generated_Source\PSoC4/CapSense.c **** *  None
 872:Generated_Source\PSoC4/CapSense.c **** *
 873:Generated_Source\PSoC4/CapSense.c **** * Global Variables:
 874:Generated_Source\PSoC4/CapSense.c **** *  None
 875:Generated_Source\PSoC4/CapSense.c **** *
 876:Generated_Source\PSoC4/CapSense.c **** * Side Effects:
 877:Generated_Source\PSoC4/CapSense.c **** *  None
 878:Generated_Source\PSoC4/CapSense.c **** *
 879:Generated_Source\PSoC4/CapSense.c **** *******************************************************************************/
 880:Generated_Source\PSoC4/CapSense.c **** void CapSense_ClearSensors(void)
 881:Generated_Source\PSoC4/CapSense.c **** {
 882:Generated_Source\PSoC4/CapSense.c ****     uint32 snsIndex;
 883:Generated_Source\PSoC4/CapSense.c **** 
 884:Generated_Source\PSoC4/CapSense.c ****     for (snsIndex = 0u; snsIndex < CapSense_TOTAL_SENSOR_COUNT; snsIndex++)
 885:Generated_Source\PSoC4/CapSense.c ****     {
 886:Generated_Source\PSoC4/CapSense.c ****         CapSense_DisableScanSlot(snsIndex);
 887:Generated_Source\PSoC4/CapSense.c ****     }
 888:Generated_Source\PSoC4/CapSense.c **** }
 889:Generated_Source\PSoC4/CapSense.c **** 
 890:Generated_Source\PSoC4/CapSense.c **** 
 891:Generated_Source\PSoC4/CapSense.c **** #if (CapSense_IS_COMPLEX_SCANSLOTS)
 892:Generated_Source\PSoC4/CapSense.c ****     /*******************************************************************************
 893:Generated_Source\PSoC4/CapSense.c ****     * Function Name: CapSense_EnableScanSlot
 894:Generated_Source\PSoC4/CapSense.c ****     ********************************************************************************
 895:Generated_Source\PSoC4/CapSense.c ****     *
 896:Generated_Source\PSoC4/CapSense.c ****     * Summary:
 897:Generated_Source\PSoC4/CapSense.c ****     *  Configures the selected slot to measure during the next measurement
 898:Generated_Source\PSoC4/CapSense.c ****     *  cycle. The corresponding pin/pins are set to Analog High-Z mode and
 899:Generated_Source\PSoC4/CapSense.c ****     *  connected to the Analog Mux Bus. This also enables the comparator function.
 900:Generated_Source\PSoC4/CapSense.c ****     *
 901:Generated_Source\PSoC4/CapSense.c ****     * Parameters:
 902:Generated_Source\PSoC4/CapSense.c ****     *  slot:  Slot number.
 903:Generated_Source\PSoC4/CapSense.c ****     *
 904:Generated_Source\PSoC4/CapSense.c ****     * Return:
 905:Generated_Source\PSoC4/CapSense.c ****     *  None
 906:Generated_Source\PSoC4/CapSense.c ****     *
 907:Generated_Source\PSoC4/CapSense.c ****     * Global Constants:
 908:Generated_Source\PSoC4/CapSense.c ****     *  CapSense_portTable[]  - used to store the port number that pin
 909:Generated_Source\PSoC4/CapSense.c ****     *  belongs to for each sensor.
 910:Generated_Source\PSoC4/CapSense.c ****     *  CapSense_maskTable[]  - used to store the pin within the port for
 911:Generated_Source\PSoC4/CapSense.c ****     *  each sensor.
 912:Generated_Source\PSoC4/CapSense.c ****     *  CapSense_indexTable[] - used to store indexes of complex sensors.
 913:Generated_Source\PSoC4/CapSense.c ****     *  The offset and position in this array are stored in a port and mask table for
 914:Generated_Source\PSoC4/CapSense.c ****     *  complex sensors.
 915:Generated_Source\PSoC4/CapSense.c ****     *  Bit 7 (msb) is used to define the sensor type: single or complex.
 916:Generated_Source\PSoC4/CapSense.c ****     *
 917:Generated_Source\PSoC4/CapSense.c ****     * Side Effects:
 918:Generated_Source\PSoC4/CapSense.c ****     *  None
 919:Generated_Source\PSoC4/CapSense.c ****     *
 920:Generated_Source\PSoC4/CapSense.c ****     *******************************************************************************/
ARM GAS  C:\Users\Zeynep\AppData\Local\Temp\ccgAGQqu.s 			page 24


 921:Generated_Source\PSoC4/CapSense.c ****     void CapSense_EnableScanSlot(uint32 slot)
 922:Generated_Source\PSoC4/CapSense.c ****     {
 923:Generated_Source\PSoC4/CapSense.c ****         uint8 j;
 924:Generated_Source\PSoC4/CapSense.c ****         uint8 snsNumber;
 925:Generated_Source\PSoC4/CapSense.c ****         const uint8 *index;
 926:Generated_Source\PSoC4/CapSense.c ****         /* Read sensor type: single or complex */
 927:Generated_Source\PSoC4/CapSense.c ****         uint8 snsType = CapSense_portTable[slot];
 928:Generated_Source\PSoC4/CapSense.c **** 
 929:Generated_Source\PSoC4/CapSense.c ****         /* Check if sensor is complex */
 930:Generated_Source\PSoC4/CapSense.c ****         if ((snsType & CapSense_COMPLEX_SS_FLAG) == 0u)
 931:Generated_Source\PSoC4/CapSense.c ****         {
 932:Generated_Source\PSoC4/CapSense.c ****             /* Enable sensor (single) */
 933:Generated_Source\PSoC4/CapSense.c ****             CapSense_EnableSensor(slot);
 934:Generated_Source\PSoC4/CapSense.c ****         }
 935:Generated_Source\PSoC4/CapSense.c ****         else
 936:Generated_Source\PSoC4/CapSense.c ****         {
 937:Generated_Source\PSoC4/CapSense.c ****             /* Enable complex sensor */
 938:Generated_Source\PSoC4/CapSense.c ****             snsType &= ~CapSense_COMPLEX_SS_FLAG;
 939:Generated_Source\PSoC4/CapSense.c ****             index = &CapSense_indexTable[snsType];
 940:Generated_Source\PSoC4/CapSense.c ****             snsNumber = CapSense_maskTable[slot];
 941:Generated_Source\PSoC4/CapSense.c **** 
 942:Generated_Source\PSoC4/CapSense.c ****             for (j = 0u; j < snsNumber; j++)
 943:Generated_Source\PSoC4/CapSense.c ****             {
 944:Generated_Source\PSoC4/CapSense.c ****                 CapSense_EnableSensor(index[j]);
 945:Generated_Source\PSoC4/CapSense.c ****             }
 946:Generated_Source\PSoC4/CapSense.c ****         }
 947:Generated_Source\PSoC4/CapSense.c ****     }
 948:Generated_Source\PSoC4/CapSense.c **** 
 949:Generated_Source\PSoC4/CapSense.c **** 
 950:Generated_Source\PSoC4/CapSense.c ****     /*******************************************************************************
 951:Generated_Source\PSoC4/CapSense.c ****     * Function Name: CapSense_DisableScanSlot
 952:Generated_Source\PSoC4/CapSense.c ****     ********************************************************************************
 953:Generated_Source\PSoC4/CapSense.c ****     *
 954:Generated_Source\PSoC4/CapSense.c ****     * Summary:
 955:Generated_Source\PSoC4/CapSense.c ****     *  Disables the selected slot. The corresponding pin/pins is/are disconnected
 956:Generated_Source\PSoC4/CapSense.c ****     *  from the Analog Mux Bus and connected to GND, High_Z or Shield electrode.
 957:Generated_Source\PSoC4/CapSense.c ****     *
 958:Generated_Source\PSoC4/CapSense.c ****     * Parameters:
 959:Generated_Source\PSoC4/CapSense.c ****     *  slot:  Slot number.
 960:Generated_Source\PSoC4/CapSense.c ****     *
 961:Generated_Source\PSoC4/CapSense.c ****     * Return:
 962:Generated_Source\PSoC4/CapSense.c ****     *  None
 963:Generated_Source\PSoC4/CapSense.c ****     *
 964:Generated_Source\PSoC4/CapSense.c ****     * Global Variables:
 965:Generated_Source\PSoC4/CapSense.c ****     *  CapSense_portTable[]  - used to store the port number that pin
 966:Generated_Source\PSoC4/CapSense.c ****     *  belongs to for each sensor.
 967:Generated_Source\PSoC4/CapSense.c ****     *  CapSense_maskTable[]  - used to store the pin within the port for
 968:Generated_Source\PSoC4/CapSense.c ****     *  each sensor.
 969:Generated_Source\PSoC4/CapSense.c ****     *  CapSense_indexTable[] - used to store indexes of complex sensors.
 970:Generated_Source\PSoC4/CapSense.c ****     *  The offset and position in this array are stored in a port and mask table for
 971:Generated_Source\PSoC4/CapSense.c ****     *  complex sensors.
 972:Generated_Source\PSoC4/CapSense.c ****     *  7bit(msb) is used to define the sensor type: single or complex.
 973:Generated_Source\PSoC4/CapSense.c ****     *
 974:Generated_Source\PSoC4/CapSense.c ****     * Side Effects:
 975:Generated_Source\PSoC4/CapSense.c ****     *  None
 976:Generated_Source\PSoC4/CapSense.c ****     *
 977:Generated_Source\PSoC4/CapSense.c ****     *******************************************************************************/
ARM GAS  C:\Users\Zeynep\AppData\Local\Temp\ccgAGQqu.s 			page 25


 978:Generated_Source\PSoC4/CapSense.c ****     void CapSense_DisableScanSlot(uint32 slot)
 979:Generated_Source\PSoC4/CapSense.c ****     {
 980:Generated_Source\PSoC4/CapSense.c ****         uint8 j;
 981:Generated_Source\PSoC4/CapSense.c ****         uint8 snsNumber;
 982:Generated_Source\PSoC4/CapSense.c ****         const uint8 *index;
 983:Generated_Source\PSoC4/CapSense.c **** 
 984:Generated_Source\PSoC4/CapSense.c ****         /* Read sensor type: single or complex */
 985:Generated_Source\PSoC4/CapSense.c ****         uint8 snsType = CapSense_portTable[slot];
 986:Generated_Source\PSoC4/CapSense.c **** 
 987:Generated_Source\PSoC4/CapSense.c ****         /* Check if sensor is complex */
 988:Generated_Source\PSoC4/CapSense.c ****         if ((snsType & CapSense_COMPLEX_SS_FLAG) == 0u)
 989:Generated_Source\PSoC4/CapSense.c ****         {
 990:Generated_Source\PSoC4/CapSense.c ****             /* Disable sensor (single) */
 991:Generated_Source\PSoC4/CapSense.c ****             CapSense_DisableSensor(slot);
 992:Generated_Source\PSoC4/CapSense.c ****         }
 993:Generated_Source\PSoC4/CapSense.c ****         else
 994:Generated_Source\PSoC4/CapSense.c ****         {
 995:Generated_Source\PSoC4/CapSense.c ****             /* Disable complex sensor */
 996:Generated_Source\PSoC4/CapSense.c ****             snsType &= ~CapSense_COMPLEX_SS_FLAG;
 997:Generated_Source\PSoC4/CapSense.c ****             index = &CapSense_indexTable[snsType];
 998:Generated_Source\PSoC4/CapSense.c ****             snsNumber = CapSense_maskTable[slot];
 999:Generated_Source\PSoC4/CapSense.c **** 
1000:Generated_Source\PSoC4/CapSense.c ****             for (j=0; j < snsNumber; j++)
1001:Generated_Source\PSoC4/CapSense.c ****             {
1002:Generated_Source\PSoC4/CapSense.c ****                 CapSense_DisableSensor(index[j]);
1003:Generated_Source\PSoC4/CapSense.c ****             }
1004:Generated_Source\PSoC4/CapSense.c ****         }
1005:Generated_Source\PSoC4/CapSense.c ****     }
1006:Generated_Source\PSoC4/CapSense.c **** #endif  /* CapSense_IS_COMPLEX_SCANSLOTS */
1007:Generated_Source\PSoC4/CapSense.c **** 
1008:Generated_Source\PSoC4/CapSense.c **** 
1009:Generated_Source\PSoC4/CapSense.c **** /*******************************************************************************
1010:Generated_Source\PSoC4/CapSense.c **** * Function Name: CapSense_EnableSensor
1011:Generated_Source\PSoC4/CapSense.c **** ********************************************************************************
1012:Generated_Source\PSoC4/CapSense.c **** *
1013:Generated_Source\PSoC4/CapSense.c **** * Summary:
1014:Generated_Source\PSoC4/CapSense.c **** *  Configures the selected sensor to measure during the next measurement cycle.
1015:Generated_Source\PSoC4/CapSense.c **** *  The corresponding pins are set to Analog High-Z mode and connected to the
1016:Generated_Source\PSoC4/CapSense.c **** *  Analog Mux Bus. This also enables the comparator function.
1017:Generated_Source\PSoC4/CapSense.c **** *
1018:Generated_Source\PSoC4/CapSense.c **** * Parameters:
1019:Generated_Source\PSoC4/CapSense.c **** *  sensor:  Sensor number.
1020:Generated_Source\PSoC4/CapSense.c **** *
1021:Generated_Source\PSoC4/CapSense.c **** * Return:
1022:Generated_Source\PSoC4/CapSense.c **** *  None
1023:Generated_Source\PSoC4/CapSense.c **** *
1024:Generated_Source\PSoC4/CapSense.c **** * Global Variables:
1025:Generated_Source\PSoC4/CapSense.c **** *  CapSense_portTable[] - used to store the port number that pin
1026:Generated_Source\PSoC4/CapSense.c **** *  belongs to for each sensor.
1027:Generated_Source\PSoC4/CapSense.c **** *  CapSense_pinShiftTbl[] - used to store position of pin that
1028:Generated_Source\PSoC4/CapSense.c **** *  configured as sensor in port.
1029:Generated_Source\PSoC4/CapSense.c **** *  CapSense_prtSelTbl[] - Contains pointers to the HSIOM
1030:Generated_Source\PSoC4/CapSense.c **** *  registers for each port.
1031:Generated_Source\PSoC4/CapSense.c **** *  CapSense_PrtCfgTb[] - Contains pointers to the port config
1032:Generated_Source\PSoC4/CapSense.c **** *  registers for each port.
1033:Generated_Source\PSoC4/CapSense.c **** *
1034:Generated_Source\PSoC4/CapSense.c **** * Side Effects:
ARM GAS  C:\Users\Zeynep\AppData\Local\Temp\ccgAGQqu.s 			page 26


1035:Generated_Source\PSoC4/CapSense.c **** *  None
1036:Generated_Source\PSoC4/CapSense.c **** *
1037:Generated_Source\PSoC4/CapSense.c **** *******************************************************************************/
1038:Generated_Source\PSoC4/CapSense.c **** void CapSense_EnableSensor(uint32 sensor)
1039:Generated_Source\PSoC4/CapSense.c **** {
 392              		.loc 1 1039 0
 393              		.cfi_startproc
 394              		@ args = 0, pretend = 0, frame = 0
 395              		@ frame_needed = 0, uses_anonymous_args = 0
 396              	.LVL34:
 397 0000 F8B5     		push	{r3, r4, r5, r6, r7, lr}
 398              		.cfi_def_cfa_offset 24
 399              		.cfi_offset 3, -24
 400              		.cfi_offset 4, -20
 401              		.cfi_offset 5, -16
 402              		.cfi_offset 6, -12
 403              		.cfi_offset 7, -8
 404              		.cfi_offset 14, -4
1040:Generated_Source\PSoC4/CapSense.c ****     uint8  pinModeShift;
1041:Generated_Source\PSoC4/CapSense.c ****     uint8  pinHSIOMShift;
1042:Generated_Source\PSoC4/CapSense.c ****     uint8 interruptState;
1043:Generated_Source\PSoC4/CapSense.c ****     uint32 newRegisterValue;
1044:Generated_Source\PSoC4/CapSense.c ****     uint32 port;
1045:Generated_Source\PSoC4/CapSense.c **** 
1046:Generated_Source\PSoC4/CapSense.c ****     port = (uint32) CapSense_portTable[sensor];
 405              		.loc 1 1046 0
 406 0002 104F     		ldr	r7, .L26
 407 0004 3E5C     		ldrb	r6, [r7, r0]
 408              	.LVL35:
1047:Generated_Source\PSoC4/CapSense.c ****     pinModeShift = CapSense_pinShiftTbl[sensor]  * CapSense_PC_PIN_CFG_SIZE;
 409              		.loc 1 1047 0
 410 0006 3818     		adds	r0, r7, r0
 411              	.LVL36:
 412 0008 037A     		ldrb	r3, [r0, #8]
 413 000a 5D00     		lsls	r5, r3, #1
 414 000c 5D19     		adds	r5, r3, r5
 415 000e EDB2     		uxtb	r5, r5
 416              	.LVL37:
1048:Generated_Source\PSoC4/CapSense.c ****     pinHSIOMShift = CapSense_pinShiftTbl[sensor] * CapSense_HSIOM_PIN_CFG_SIZE;
 417              		.loc 1 1048 0
 418 0010 9B00     		lsls	r3, r3, #2
 419 0012 DCB2     		uxtb	r4, r3
 420              	.LVL38:
1049:Generated_Source\PSoC4/CapSense.c **** 
1050:Generated_Source\PSoC4/CapSense.c ****     interruptState = CyEnterCriticalSection();
 421              		.loc 1 1050 0
 422 0014 FFF7FEFF 		bl	CyEnterCriticalSection
 423              	.LVL39:
1051:Generated_Source\PSoC4/CapSense.c **** 
1052:Generated_Source\PSoC4/CapSense.c ****     newRegisterValue = *CapSense_prtSelTbl[port];
 424              		.loc 1 1052 0
 425 0018 B300     		lsls	r3, r6, #2
 426 001a FB18     		adds	r3, r7, r3
 427 001c 1E69     		ldr	r6, [r3, #16]
 428              	.LVL40:
 429 001e 3268     		ldr	r2, [r6]
 430              	.LVL41:
ARM GAS  C:\Users\Zeynep\AppData\Local\Temp\ccgAGQqu.s 			page 27


1053:Generated_Source\PSoC4/CapSense.c ****     newRegisterValue &= ~(CapSense_CSD_HSIOM_MASK << pinHSIOMShift);
 431              		.loc 1 1053 0
 432 0020 0F21     		movs	r1, #15
 433 0022 A140     		lsls	r1, r1, r4
 434 0024 8A43     		bics	r2, r1
 435              	.LVL42:
 436 0026 1100     		movs	r1, r2
 437              	.LVL43:
1054:Generated_Source\PSoC4/CapSense.c ****     newRegisterValue |= (uint32)((uint32)CapSense_CSD_SENSE_PORT_MODE << pinHSIOMShift);
 438              		.loc 1 1054 0
 439 0028 0422     		movs	r2, #4
 440 002a A240     		lsls	r2, r2, r4
 441 002c 0A43     		orrs	r2, r1
 442              	.LVL44:
1055:Generated_Source\PSoC4/CapSense.c **** 
1056:Generated_Source\PSoC4/CapSense.c ****     *CapSense_prtCfgTbl[port] &= (uint32)~((uint32)CapSense_CSD_PIN_MODE_MASK << pinModeShift);
 443              		.loc 1 1056 0
 444 002e 5C6A     		ldr	r4, [r3, #36]
 445              	.LVL45:
 446 0030 2368     		ldr	r3, [r4]
 447 0032 0721     		movs	r1, #7
 448 0034 A940     		lsls	r1, r1, r5
 449 0036 8B43     		bics	r3, r1
 450 0038 2360     		str	r3, [r4]
1057:Generated_Source\PSoC4/CapSense.c ****     *CapSense_prtSelTbl[port] = newRegisterValue;
 451              		.loc 1 1057 0
 452 003a 3260     		str	r2, [r6]
1058:Generated_Source\PSoC4/CapSense.c **** 
1059:Generated_Source\PSoC4/CapSense.c ****     CyExitCriticalSection(interruptState);
 453              		.loc 1 1059 0
 454 003c FFF7FEFF 		bl	CyExitCriticalSection
 455              	.LVL46:
1060:Generated_Source\PSoC4/CapSense.c **** }
 456              		.loc 1 1060 0
 457              		@ sp needed
 458              	.LVL47:
 459              	.LVL48:
 460 0040 F8BD     		pop	{r3, r4, r5, r6, r7, pc}
 461              	.L27:
 462 0042 C046     		.align	2
 463              	.L26:
 464 0044 00000000 		.word	.LANCHOR2
 465              		.cfi_endproc
 466              	.LFE47:
 467              		.size	CapSense_EnableSensor, .-CapSense_EnableSensor
 468              		.section	.text.CapSense_DisableSensor,"ax",%progbits
 469              		.align	2
 470              		.global	CapSense_DisableSensor
 471              		.code	16
 472              		.thumb_func
 473              		.type	CapSense_DisableSensor, %function
 474              	CapSense_DisableSensor:
 475              	.LFB48:
1061:Generated_Source\PSoC4/CapSense.c **** 
1062:Generated_Source\PSoC4/CapSense.c **** 
1063:Generated_Source\PSoC4/CapSense.c **** /*******************************************************************************
1064:Generated_Source\PSoC4/CapSense.c **** * Function Name: CapSense_DisableSensor
ARM GAS  C:\Users\Zeynep\AppData\Local\Temp\ccgAGQqu.s 			page 28


1065:Generated_Source\PSoC4/CapSense.c **** ********************************************************************************
1066:Generated_Source\PSoC4/CapSense.c **** *
1067:Generated_Source\PSoC4/CapSense.c **** * Summary:
1068:Generated_Source\PSoC4/CapSense.c **** *  Disables the selected sensor. The corresponding pin is disconnected from the
1069:Generated_Source\PSoC4/CapSense.c **** *  Analog Mux Bus and connected to GND, High_Z or Shield electrode.
1070:Generated_Source\PSoC4/CapSense.c **** *
1071:Generated_Source\PSoC4/CapSense.c **** * Parameters:
1072:Generated_Source\PSoC4/CapSense.c **** *  sensor:  Sensor number
1073:Generated_Source\PSoC4/CapSense.c **** *
1074:Generated_Source\PSoC4/CapSense.c **** * Return:
1075:Generated_Source\PSoC4/CapSense.c **** *  None
1076:Generated_Source\PSoC4/CapSense.c **** *
1077:Generated_Source\PSoC4/CapSense.c **** * Global Variables:
1078:Generated_Source\PSoC4/CapSense.c **** *  CapSense_portTable[] - used to store the port number that pin
1079:Generated_Source\PSoC4/CapSense.c **** *  belongs to for each sensor.
1080:Generated_Source\PSoC4/CapSense.c **** *  CapSense_pinShiftTbl[] - used to store position of pin that
1081:Generated_Source\PSoC4/CapSense.c **** *  configured as a sensor in the port.
1082:Generated_Source\PSoC4/CapSense.c **** *  CapSense_prtSelTbl[] - Contains pointers to the HSIOM
1083:Generated_Source\PSoC4/CapSense.c **** *  registers for each port.
1084:Generated_Source\PSoC4/CapSense.c **** *  CapSense_PrtCfgTb[] - Contains pointers to the port config
1085:Generated_Source\PSoC4/CapSense.c **** *  registers for each port.
1086:Generated_Source\PSoC4/CapSense.c **** *
1087:Generated_Source\PSoC4/CapSense.c **** * Side Effects:
1088:Generated_Source\PSoC4/CapSense.c **** *  None
1089:Generated_Source\PSoC4/CapSense.c **** *
1090:Generated_Source\PSoC4/CapSense.c **** *******************************************************************************/
1091:Generated_Source\PSoC4/CapSense.c **** void CapSense_DisableSensor(uint32 sensor)
1092:Generated_Source\PSoC4/CapSense.c **** {
 476              		.loc 1 1092 0
 477              		.cfi_startproc
 478              		@ args = 0, pretend = 0, frame = 0
 479              		@ frame_needed = 0, uses_anonymous_args = 0
 480              	.LVL49:
 481 0000 F8B5     		push	{r3, r4, r5, r6, r7, lr}
 482              		.cfi_def_cfa_offset 24
 483              		.cfi_offset 3, -24
 484              		.cfi_offset 4, -20
 485              		.cfi_offset 5, -16
 486              		.cfi_offset 6, -12
 487              		.cfi_offset 7, -8
 488              		.cfi_offset 14, -4
1093:Generated_Source\PSoC4/CapSense.c ****     uint8 interruptState;
1094:Generated_Source\PSoC4/CapSense.c ****     uint32 newRegisterValue;
1095:Generated_Source\PSoC4/CapSense.c **** 
1096:Generated_Source\PSoC4/CapSense.c ****     uint32 port = (uint32) CapSense_portTable[sensor];
 489              		.loc 1 1096 0
 490 0002 194A     		ldr	r2, .L33
 491 0004 145C     		ldrb	r4, [r2, r0]
 492              	.LVL50:
1097:Generated_Source\PSoC4/CapSense.c ****     uint8  pinHSIOMShift = CapSense_pinShiftTbl[sensor] * CapSense_HSIOM_PIN_CFG_SIZE;
 493              		.loc 1 1097 0
 494 0006 1318     		adds	r3, r2, r0
 495 0008 1F7A     		ldrb	r7, [r3, #8]
 496 000a B900     		lsls	r1, r7, #2
 497 000c C9B2     		uxtb	r1, r1
 498              	.LVL51:
1098:Generated_Source\PSoC4/CapSense.c ****     uint8  pinModeShift = CapSense_pinShiftTbl[sensor]  * CapSense_PC_PIN_CFG_SIZE;
ARM GAS  C:\Users\Zeynep\AppData\Local\Temp\ccgAGQqu.s 			page 29


 499              		.loc 1 1098 0
 500 000e 7D00     		lsls	r5, r7, #1
 501 0010 7D19     		adds	r5, r7, r5
 502 0012 EDB2     		uxtb	r5, r5
 503              	.LVL52:
1099:Generated_Source\PSoC4/CapSense.c **** 
1100:Generated_Source\PSoC4/CapSense.c ****     uint32 inactiveConnect = CapSense_SNS_HIZANALOG_CONNECT;
1101:Generated_Source\PSoC4/CapSense.c ****     uint32 sensorState = CapSense_unscannedSnsDriveMode[sensor];
 504              		.loc 1 1101 0
 505 0014 154B     		ldr	r3, .L33+4
 506 0016 185C     		ldrb	r0, [r3, r0]
 507              	.LVL53:
1102:Generated_Source\PSoC4/CapSense.c **** 
1103:Generated_Source\PSoC4/CapSense.c ****     *CapSense_prtSelTbl[port] &= ~(CapSense_CSD_HSIOM_MASK << pinHSIOMShift);
 508              		.loc 1 1103 0
 509 0018 A300     		lsls	r3, r4, #2
 510 001a D318     		adds	r3, r2, r3
 511 001c 1E69     		ldr	r6, [r3, #16]
 512 001e 3368     		ldr	r3, [r6]
 513 0020 0F22     		movs	r2, #15
 514 0022 8A40     		lsls	r2, r2, r1
 515 0024 9343     		bics	r3, r2
 516 0026 3360     		str	r3, [r6]
1104:Generated_Source\PSoC4/CapSense.c **** 
1105:Generated_Source\PSoC4/CapSense.c ****     #if(CapSense_IS_SHIELD_ENABLE != 0)
1106:Generated_Source\PSoC4/CapSense.c ****     if(sensorState != (uint32)CapSense__SHIELD)
1107:Generated_Source\PSoC4/CapSense.c ****     {
1108:Generated_Source\PSoC4/CapSense.c ****     #else
1109:Generated_Source\PSoC4/CapSense.c ****         /* Connected to Ground if shield is disabled */
1110:Generated_Source\PSoC4/CapSense.c ****         if(sensorState == (uint32)CapSense__SHIELD)
 517              		.loc 1 1110 0
 518 0028 0228     		cmp	r0, #2
 519 002a 00D1     		bne	.L29
1111:Generated_Source\PSoC4/CapSense.c ****         {
1112:Generated_Source\PSoC4/CapSense.c ****             sensorState = (uint32)CapSense__GROUND;
 520              		.loc 1 1112 0
 521 002c 0020     		movs	r0, #0
 522              	.LVL54:
 523              	.L29:
1113:Generated_Source\PSoC4/CapSense.c ****         }
1114:Generated_Source\PSoC4/CapSense.c ****     #endif /* (CapSense_IS_SHIELD_ENABLE) */
1115:Generated_Source\PSoC4/CapSense.c ****         if(sensorState != (uint32)CapSense__HIZ_ANALOG)
 524              		.loc 1 1115 0
 525 002e 0128     		cmp	r0, #1
 526 0030 01D1     		bne	.L32
1100:Generated_Source\PSoC4/CapSense.c ****     uint32 sensorState = CapSense_unscannedSnsDriveMode[sensor];
 527              		.loc 1 1100 0
 528 0032 0026     		movs	r6, #0
 529 0034 00E0     		b	.L30
 530              	.L32:
1116:Generated_Source\PSoC4/CapSense.c ****         {
1117:Generated_Source\PSoC4/CapSense.c ****             /* Connected to Ground */
1118:Generated_Source\PSoC4/CapSense.c ****             inactiveConnect = (uint32)CapSense_SNS_GROUND_CONNECT;
 531              		.loc 1 1118 0
 532 0036 0626     		movs	r6, #6
 533              	.L30:
 534              	.LVL55:
ARM GAS  C:\Users\Zeynep\AppData\Local\Temp\ccgAGQqu.s 			page 30


1119:Generated_Source\PSoC4/CapSense.c ****         }
1120:Generated_Source\PSoC4/CapSense.c **** 
1121:Generated_Source\PSoC4/CapSense.c ****         interruptState = CyEnterCriticalSection();
 535              		.loc 1 1121 0
 536 0038 FFF7FEFF 		bl	CyEnterCriticalSection
 537              	.LVL56:
1122:Generated_Source\PSoC4/CapSense.c **** 
1123:Generated_Source\PSoC4/CapSense.c ****         /* Set drive mode */
1124:Generated_Source\PSoC4/CapSense.c ****         newRegisterValue = *CapSense_prtCfgTbl[port];
 538              		.loc 1 1124 0
 539 003c A400     		lsls	r4, r4, #2
 540              	.LVL57:
 541 003e 0A4B     		ldr	r3, .L33
 542              	.LVL58:
 543 0040 1C19     		adds	r4, r3, r4
 544 0042 616A     		ldr	r1, [r4, #36]
 545 0044 0B68     		ldr	r3, [r1]
 546              	.LVL59:
1125:Generated_Source\PSoC4/CapSense.c ****         newRegisterValue &= ~(CapSense_CSD_PIN_MODE_MASK << pinModeShift);
 547              		.loc 1 1125 0
 548 0046 0722     		movs	r2, #7
 549 0048 AA40     		lsls	r2, r2, r5
 550 004a 9343     		bics	r3, r2
 551              	.LVL60:
 552 004c 1A00     		movs	r2, r3
 553              	.LVL61:
1126:Generated_Source\PSoC4/CapSense.c ****         newRegisterValue |=  (uint32)(inactiveConnect << pinModeShift);
 554              		.loc 1 1126 0
 555 004e 3300     		movs	r3, r6
 556 0050 AB40     		lsls	r3, r3, r5
 557 0052 1343     		orrs	r3, r2
 558              	.LVL62:
1127:Generated_Source\PSoC4/CapSense.c ****         *CapSense_prtCfgTbl[port] =  newRegisterValue;
 559              		.loc 1 1127 0
 560 0054 0B60     		str	r3, [r1]
1128:Generated_Source\PSoC4/CapSense.c **** 
1129:Generated_Source\PSoC4/CapSense.c ****         CyExitCriticalSection(interruptState);
 561              		.loc 1 1129 0
 562 0056 FFF7FEFF 		bl	CyExitCriticalSection
 563              	.LVL63:
1130:Generated_Source\PSoC4/CapSense.c **** 
1131:Generated_Source\PSoC4/CapSense.c ****         *CapSense_prtDRTbl[port]  &=  (uint32)~(uint32)((uint32)1u << CapSense_pinShiftTbl[sensor])
 564              		.loc 1 1131 0
 565 005a A16B     		ldr	r1, [r4, #56]
 566 005c 0B68     		ldr	r3, [r1]
 567 005e 0122     		movs	r2, #1
 568 0060 BA40     		lsls	r2, r2, r7
 569 0062 9343     		bics	r3, r2
 570 0064 0B60     		str	r3, [r1]
1132:Generated_Source\PSoC4/CapSense.c ****     #if(CapSense_IS_SHIELD_ENABLE != 0)
1133:Generated_Source\PSoC4/CapSense.c ****     }
1134:Generated_Source\PSoC4/CapSense.c ****     else
1135:Generated_Source\PSoC4/CapSense.c ****     {
1136:Generated_Source\PSoC4/CapSense.c ****         /* Connect to Shield */
1137:Generated_Source\PSoC4/CapSense.c ****         *CapSense_prtSelTbl[port] |= (CapSense_CSD_SHIELD_PORT_MODE << pinHSIOMShift);
1138:Generated_Source\PSoC4/CapSense.c ****     }
1139:Generated_Source\PSoC4/CapSense.c ****     #endif /* (CapSense_IS_SHIELD_ENABLE) */
ARM GAS  C:\Users\Zeynep\AppData\Local\Temp\ccgAGQqu.s 			page 31


1140:Generated_Source\PSoC4/CapSense.c **** }
 571              		.loc 1 1140 0
 572              		@ sp needed
 573              	.LVL64:
 574              	.LVL65:
 575              	.LVL66:
 576 0066 F8BD     		pop	{r3, r4, r5, r6, r7, pc}
 577              	.L34:
 578              		.align	2
 579              	.L33:
 580 0068 00000000 		.word	.LANCHOR2
 581 006c 00000000 		.word	CapSense_unscannedSnsDriveMode
 582              		.cfi_endproc
 583              	.LFE48:
 584              		.size	CapSense_DisableSensor, .-CapSense_DisableSensor
 585              		.section	.text.CapSense_ClearSensors,"ax",%progbits
 586              		.align	2
 587              		.global	CapSense_ClearSensors
 588              		.code	16
 589              		.thumb_func
 590              		.type	CapSense_ClearSensors, %function
 591              	CapSense_ClearSensors:
 592              	.LFB46:
 881:Generated_Source\PSoC4/CapSense.c ****     uint32 snsIndex;
 593              		.loc 1 881 0
 594              		.cfi_startproc
 595              		@ args = 0, pretend = 0, frame = 0
 596              		@ frame_needed = 0, uses_anonymous_args = 0
 597 0000 10B5     		push	{r4, lr}
 598              		.cfi_def_cfa_offset 8
 599              		.cfi_offset 4, -8
 600              		.cfi_offset 14, -4
 601              	.LVL67:
 884:Generated_Source\PSoC4/CapSense.c ****     {
 602              		.loc 1 884 0
 603 0002 0024     		movs	r4, #0
 604 0004 03E0     		b	.L36
 605              	.LVL68:
 606              	.L37:
 886:Generated_Source\PSoC4/CapSense.c ****     }
 607              		.loc 1 886 0 discriminator 3
 608 0006 2000     		movs	r0, r4
 609 0008 FFF7FEFF 		bl	CapSense_DisableSensor
 610              	.LVL69:
 884:Generated_Source\PSoC4/CapSense.c ****     {
 611              		.loc 1 884 0 discriminator 3
 612 000c 0134     		adds	r4, r4, #1
 613              	.LVL70:
 614              	.L36:
 884:Generated_Source\PSoC4/CapSense.c ****     {
 615              		.loc 1 884 0 is_stmt 0 discriminator 1
 616 000e 042C     		cmp	r4, #4
 617 0010 F9D9     		bls	.L37
 888:Generated_Source\PSoC4/CapSense.c **** 
 618              		.loc 1 888 0 is_stmt 1
 619              		@ sp needed
 620              	.LVL71:
ARM GAS  C:\Users\Zeynep\AppData\Local\Temp\ccgAGQqu.s 			page 32


 621 0012 10BD     		pop	{r4, pc}
 622              		.cfi_endproc
 623              	.LFE46:
 624              		.size	CapSense_ClearSensors, .-CapSense_ClearSensors
 625              		.section	.text.CapSense_SetPinDriveMode,"ax",%progbits
 626              		.align	2
 627              		.global	CapSense_SetPinDriveMode
 628              		.code	16
 629              		.thumb_func
 630              		.type	CapSense_SetPinDriveMode, %function
 631              	CapSense_SetPinDriveMode:
 632              	.LFB51:
1141:Generated_Source\PSoC4/CapSense.c **** 
1142:Generated_Source\PSoC4/CapSense.c **** 
1143:Generated_Source\PSoC4/CapSense.c **** /*******************************************************************************
1144:Generated_Source\PSoC4/CapSense.c **** * Function Name: CapSense_SetDriveModeAllPins
1145:Generated_Source\PSoC4/CapSense.c **** ********************************************************************************
1146:Generated_Source\PSoC4/CapSense.c **** *
1147:Generated_Source\PSoC4/CapSense.c **** * Summary:
1148:Generated_Source\PSoC4/CapSense.c **** * This API sets the drive mode of port pins used by the CapSense
1149:Generated_Source\PSoC4/CapSense.c **** * component (sensors, guard, shield, shield tank and Cmod) to drive the
1150:Generated_Source\PSoC4/CapSense.c **** * mode specified by the argument.
1151:Generated_Source\PSoC4/CapSense.c **** *
1152:Generated_Source\PSoC4/CapSense.c **** * Parameters:
1153:Generated_Source\PSoC4/CapSense.c **** *  driveMode:  Drive mode definition.
1154:Generated_Source\PSoC4/CapSense.c **** *
1155:Generated_Source\PSoC4/CapSense.c **** * Return:
1156:Generated_Source\PSoC4/CapSense.c **** *  None
1157:Generated_Source\PSoC4/CapSense.c **** *
1158:Generated_Source\PSoC4/CapSense.c **** * Global Variables:
1159:Generated_Source\PSoC4/CapSense.c **** *  CapSense_portTable[] - used to store the port number that pin
1160:Generated_Source\PSoC4/CapSense.c **** *  belongs to for each sensor.
1161:Generated_Source\PSoC4/CapSense.c **** *  CapSense_pinShiftTbl[] - used to store position of pin that
1162:Generated_Source\PSoC4/CapSense.c **** *  configured as a sensor in the port.
1163:Generated_Source\PSoC4/CapSense.c **** *
1164:Generated_Source\PSoC4/CapSense.c **** * Side Effects:
1165:Generated_Source\PSoC4/CapSense.c **** *  This API shall be called only after CapSense component is stopped.
1166:Generated_Source\PSoC4/CapSense.c **** *
1167:Generated_Source\PSoC4/CapSense.c **** *******************************************************************************/
1168:Generated_Source\PSoC4/CapSense.c **** void CapSense_SetDriveModeAllPins(uint32 driveMode)
1169:Generated_Source\PSoC4/CapSense.c **** {
1170:Generated_Source\PSoC4/CapSense.c ****     uint8 curSensor;
1171:Generated_Source\PSoC4/CapSense.c ****     #if (CapSense_IS_COMPLEX_SCANSLOTS)
1172:Generated_Source\PSoC4/CapSense.c ****         uint8 snsNumber;
1173:Generated_Source\PSoC4/CapSense.c ****         uint8 snsType;
1174:Generated_Source\PSoC4/CapSense.c ****     #endif  /* CapSense_IS_COMPLEX_SCANSLOTS */
1175:Generated_Source\PSoC4/CapSense.c ****     uint32 prtNumberTmp;
1176:Generated_Source\PSoC4/CapSense.c ****     uint32 pinNumberTmp;
1177:Generated_Source\PSoC4/CapSense.c **** 
1178:Generated_Source\PSoC4/CapSense.c ****     for(curSensor = 0u; curSensor < CapSense_TOTAL_SENSOR_COUNT; curSensor++)
1179:Generated_Source\PSoC4/CapSense.c ****     {
1180:Generated_Source\PSoC4/CapSense.c ****         #if (CapSense_IS_COMPLEX_SCANSLOTS)
1181:Generated_Source\PSoC4/CapSense.c ****             /* Read sensor type: single or complex */
1182:Generated_Source\PSoC4/CapSense.c ****             snsType = CapSense_portTable[curSensor];
1183:Generated_Source\PSoC4/CapSense.c **** 
1184:Generated_Source\PSoC4/CapSense.c ****             /* Check if sensor is complex */
1185:Generated_Source\PSoC4/CapSense.c ****             if ((snsType & CapSense_COMPLEX_SS_FLAG) == 0u)
ARM GAS  C:\Users\Zeynep\AppData\Local\Temp\ccgAGQqu.s 			page 33


1186:Generated_Source\PSoC4/CapSense.c ****             {
1187:Generated_Source\PSoC4/CapSense.c ****                 /* The sensor is not complex */
1188:Generated_Source\PSoC4/CapSense.c ****                 snsNumber = curSensor;
1189:Generated_Source\PSoC4/CapSense.c ****             }
1190:Generated_Source\PSoC4/CapSense.c ****             else
1191:Generated_Source\PSoC4/CapSense.c ****             {
1192:Generated_Source\PSoC4/CapSense.c ****                 /* Get dedicated sensor ID of the complex sensor */
1193:Generated_Source\PSoC4/CapSense.c ****                 snsType &= ~CapSense_COMPLEX_SS_FLAG;
1194:Generated_Source\PSoC4/CapSense.c ****                 snsNumber = CapSense_indexTable[snsType];
1195:Generated_Source\PSoC4/CapSense.c ****             }
1196:Generated_Source\PSoC4/CapSense.c **** 
1197:Generated_Source\PSoC4/CapSense.c ****             prtNumberTmp = CapSense_portTable[snsNumber];
1198:Generated_Source\PSoC4/CapSense.c ****             pinNumberTmp = CapSense_pinShiftTbl[snsNumber];
1199:Generated_Source\PSoC4/CapSense.c ****         #else
1200:Generated_Source\PSoC4/CapSense.c ****             prtNumberTmp = CapSense_portTable[curSensor];
1201:Generated_Source\PSoC4/CapSense.c ****             pinNumberTmp = CapSense_pinShiftTbl[curSensor];
1202:Generated_Source\PSoC4/CapSense.c ****         #endif  /* CapSense_IS_COMPLEX_SCANSLOTS */
1203:Generated_Source\PSoC4/CapSense.c **** 
1204:Generated_Source\PSoC4/CapSense.c ****         CapSense_SetPinDriveMode(driveMode, pinNumberTmp, prtNumberTmp);
1205:Generated_Source\PSoC4/CapSense.c ****     }
1206:Generated_Source\PSoC4/CapSense.c **** 
1207:Generated_Source\PSoC4/CapSense.c ****     CapSense_SetPinDriveMode(driveMode, (uint32)CapSense_CMOD_PIN_NUMBER, (uint32)CapSense_CMOD_PRT
1208:Generated_Source\PSoC4/CapSense.c **** 
1209:Generated_Source\PSoC4/CapSense.c ****     #if(0u != CapSense_CSH_TANK_ENABLE)
1210:Generated_Source\PSoC4/CapSense.c ****         CapSense_SetPinDriveMode(driveMode, (uint32)CapSense_CTANK_PIN_NUMBER, (uint32)CapSense_CTA
1211:Generated_Source\PSoC4/CapSense.c ****     #endif /* (0u != CapSense_CSH_TANK_ENABLE) */
1212:Generated_Source\PSoC4/CapSense.c **** 
1213:Generated_Source\PSoC4/CapSense.c ****     #if(0u != CapSense_IS_SHIELD_ENABLE)
1214:Generated_Source\PSoC4/CapSense.c ****         CapSense_SetPinDriveMode(driveMode, (uint32)CapSense_SHIELD_PIN_NUMBER, (uint32)CapSense_SH
1215:Generated_Source\PSoC4/CapSense.c ****     #endif /* (0u != CapSense_IS_SHIELD_ENABLE) */
1216:Generated_Source\PSoC4/CapSense.c **** }
1217:Generated_Source\PSoC4/CapSense.c **** 
1218:Generated_Source\PSoC4/CapSense.c **** 
1219:Generated_Source\PSoC4/CapSense.c **** /*******************************************************************************
1220:Generated_Source\PSoC4/CapSense.c **** * Function Name: CapSense_RestoreDriveModeAllPins
1221:Generated_Source\PSoC4/CapSense.c **** ********************************************************************************
1222:Generated_Source\PSoC4/CapSense.c **** *
1223:Generated_Source\PSoC4/CapSense.c **** * Summary:
1224:Generated_Source\PSoC4/CapSense.c **** *  This API restores the drive for all the CapSense port pins to the original
1225:Generated_Source\PSoC4/CapSense.c **** *  state.
1226:Generated_Source\PSoC4/CapSense.c **** *
1227:Generated_Source\PSoC4/CapSense.c **** * Parameters:
1228:Generated_Source\PSoC4/CapSense.c **** *  None
1229:Generated_Source\PSoC4/CapSense.c **** *
1230:Generated_Source\PSoC4/CapSense.c **** * Return:
1231:Generated_Source\PSoC4/CapSense.c **** *  None
1232:Generated_Source\PSoC4/CapSense.c **** *
1233:Generated_Source\PSoC4/CapSense.c **** * Global Variables:
1234:Generated_Source\PSoC4/CapSense.c **** *  CapSense_prtSelTbl[] - Contains pointers to the HSIOM
1235:Generated_Source\PSoC4/CapSense.c **** *  registers for each port.
1236:Generated_Source\PSoC4/CapSense.c **** *
1237:Generated_Source\PSoC4/CapSense.c **** * Side Effects:
1238:Generated_Source\PSoC4/CapSense.c **** *  This API is called only after the CapSense component is stopped.
1239:Generated_Source\PSoC4/CapSense.c **** *
1240:Generated_Source\PSoC4/CapSense.c **** *******************************************************************************/
1241:Generated_Source\PSoC4/CapSense.c **** void CapSense_RestoreDriveModeAllPins(void)
1242:Generated_Source\PSoC4/CapSense.c **** {
ARM GAS  C:\Users\Zeynep\AppData\Local\Temp\ccgAGQqu.s 			page 34


1243:Generated_Source\PSoC4/CapSense.c ****     uint32 newRegisterValue;
1244:Generated_Source\PSoC4/CapSense.c **** 
1245:Generated_Source\PSoC4/CapSense.c ****     CapSense_SetDriveModeAllPins(CY_SYS_PINS_DM_ALG_HIZ);
1246:Generated_Source\PSoC4/CapSense.c **** 
1247:Generated_Source\PSoC4/CapSense.c ****     newRegisterValue = CapSense_CMOD_CONNECTION_REG;
1248:Generated_Source\PSoC4/CapSense.c ****     newRegisterValue &= ~(CapSense_CSD_CMOD_CONNECTION_MASK);
1249:Generated_Source\PSoC4/CapSense.c ****     newRegisterValue |= CapSense_CSD_CMOD_TO_AMUXBUS_A;
1250:Generated_Source\PSoC4/CapSense.c ****     CapSense_CMOD_CONNECTION_REG = newRegisterValue;
1251:Generated_Source\PSoC4/CapSense.c **** 
1252:Generated_Source\PSoC4/CapSense.c ****     #if(0u != CapSense_CSH_TANK_ENABLE)
1253:Generated_Source\PSoC4/CapSense.c ****         newRegisterValue = CapSense_CTANK_CONNECTION_REG;
1254:Generated_Source\PSoC4/CapSense.c ****         newRegisterValue &= ~(CapSense_CSD_CTANK_CONNECTION_MASK);
1255:Generated_Source\PSoC4/CapSense.c ****         newRegisterValue |= CapSense_CSD_CTANK_TO_AMUXBUS_B;
1256:Generated_Source\PSoC4/CapSense.c ****         CapSense_CTANK_CONNECTION_REG = newRegisterValue;
1257:Generated_Source\PSoC4/CapSense.c ****     #endif/* (0u != CapSense_CSH_TANK_ENABLE) */
1258:Generated_Source\PSoC4/CapSense.c **** 
1259:Generated_Source\PSoC4/CapSense.c ****     #if(0u != CapSense_IS_SHIELD_ENABLE)
1260:Generated_Source\PSoC4/CapSense.c ****         newRegisterValue = *CapSense_prtSelTbl[CapSense_SHIELD_PORT_NUMBER];
1261:Generated_Source\PSoC4/CapSense.c ****         newRegisterValue &= ~(CapSense_CSD_HSIOM_MASK << ((uint32)CapSense_SHIELD_PIN_NUMBER * CapS
1262:Generated_Source\PSoC4/CapSense.c ****         newRegisterValue |= (CapSense_CSD_SHIELD_PORT_MODE << ((uint32)CapSense_SHIELD_PIN_NUMBER *
1263:Generated_Source\PSoC4/CapSense.c ****         *CapSense_prtSelTbl[CapSense_SHIELD_PORT_NUMBER] = newRegisterValue;
1264:Generated_Source\PSoC4/CapSense.c ****     #endif /* (0u != CapSense_IS_SHIELD_ENABLE) */
1265:Generated_Source\PSoC4/CapSense.c **** }
1266:Generated_Source\PSoC4/CapSense.c **** 
1267:Generated_Source\PSoC4/CapSense.c **** 
1268:Generated_Source\PSoC4/CapSense.c **** /*******************************************************************************
1269:Generated_Source\PSoC4/CapSense.c **** * Function Name: CapSense_SetPinDriveMode
1270:Generated_Source\PSoC4/CapSense.c **** ********************************************************************************
1271:Generated_Source\PSoC4/CapSense.c **** *
1272:Generated_Source\PSoC4/CapSense.c **** * Summary:
1273:Generated_Source\PSoC4/CapSense.c **** * This API sets the drive mode for the appropriate port/pin.
1274:Generated_Source\PSoC4/CapSense.c **** *
1275:Generated_Source\PSoC4/CapSense.c **** * Parameters:
1276:Generated_Source\PSoC4/CapSense.c **** *  driveMode:  Drive mode definition.
1277:Generated_Source\PSoC4/CapSense.c **** *  portNumber: contains port number (0, 1, 2).
1278:Generated_Source\PSoC4/CapSense.c **** *  pinNumber: contains pin number (0, 1, 2, ... , 7).
1279:Generated_Source\PSoC4/CapSense.c **** *
1280:Generated_Source\PSoC4/CapSense.c **** * Return:
1281:Generated_Source\PSoC4/CapSense.c **** *  None
1282:Generated_Source\PSoC4/CapSense.c **** *
1283:Generated_Source\PSoC4/CapSense.c **** * Global Variables:
1284:Generated_Source\PSoC4/CapSense.c **** *  CapSense_prtSelTbl[] - Contains pointers to the HSIOM
1285:Generated_Source\PSoC4/CapSense.c **** *  registers for each port.
1286:Generated_Source\PSoC4/CapSense.c **** *  CapSense_prtCfgTb[] - Contains pointers to the port config
1287:Generated_Source\PSoC4/CapSense.c **** *  registers for each port.
1288:Generated_Source\PSoC4/CapSense.c **** *
1289:Generated_Source\PSoC4/CapSense.c **** * Side Effects:
1290:Generated_Source\PSoC4/CapSense.c **** *  This API is called only after CapSense component is stopped.
1291:Generated_Source\PSoC4/CapSense.c **** *
1292:Generated_Source\PSoC4/CapSense.c **** *******************************************************************************/
1293:Generated_Source\PSoC4/CapSense.c **** void CapSense_SetPinDriveMode(uint32 driveMode, uint32 pinNumber, uint32 portNumber)
1294:Generated_Source\PSoC4/CapSense.c **** {
 633              		.loc 1 1294 0
 634              		.cfi_startproc
 635              		@ args = 0, pretend = 0, frame = 0
 636              		@ frame_needed = 0, uses_anonymous_args = 0
 637              	.LVL72:
ARM GAS  C:\Users\Zeynep\AppData\Local\Temp\ccgAGQqu.s 			page 35


 638 0000 10B5     		push	{r4, lr}
 639              		.cfi_def_cfa_offset 8
 640              		.cfi_offset 4, -8
 641              		.cfi_offset 14, -4
1295:Generated_Source\PSoC4/CapSense.c ****     uint32  pinModeShift;
1296:Generated_Source\PSoC4/CapSense.c ****     uint32 newRegisterValue;
1297:Generated_Source\PSoC4/CapSense.c **** 
1298:Generated_Source\PSoC4/CapSense.c ****     pinModeShift  = pinNumber * CapSense_PC_PIN_CFG_SIZE;
 642              		.loc 1 1298 0
 643 0002 4B00     		lsls	r3, r1, #1
 644 0004 5918     		adds	r1, r3, r1
 645              	.LVL73:
1299:Generated_Source\PSoC4/CapSense.c **** 
1300:Generated_Source\PSoC4/CapSense.c ****     newRegisterValue = *CapSense_prtCfgTbl[portNumber];
 646              		.loc 1 1300 0
 647 0006 9200     		lsls	r2, r2, #2
 648              	.LVL74:
 649 0008 054B     		ldr	r3, .L39
 650 000a 9A18     		adds	r2, r3, r2
 651 000c 546A     		ldr	r4, [r2, #36]
 652 000e 2368     		ldr	r3, [r4]
 653              	.LVL75:
1301:Generated_Source\PSoC4/CapSense.c ****     newRegisterValue &= ~(CapSense_CSD_PIN_MODE_MASK << pinModeShift);
 654              		.loc 1 1301 0
 655 0010 0722     		movs	r2, #7
 656 0012 8A40     		lsls	r2, r2, r1
 657 0014 9343     		bics	r3, r2
 658              	.LVL76:
1302:Generated_Source\PSoC4/CapSense.c ****     newRegisterValue |=  (uint32)((uint32)driveMode << pinModeShift);
 659              		.loc 1 1302 0
 660 0016 8840     		lsls	r0, r0, r1
 661              	.LVL77:
 662 0018 1843     		orrs	r0, r3
 663              	.LVL78:
1303:Generated_Source\PSoC4/CapSense.c ****     *CapSense_prtCfgTbl[portNumber] =  newRegisterValue;
 664              		.loc 1 1303 0
 665 001a 2060     		str	r0, [r4]
1304:Generated_Source\PSoC4/CapSense.c **** }
 666              		.loc 1 1304 0
 667              		@ sp needed
 668 001c 10BD     		pop	{r4, pc}
 669              	.L40:
 670 001e C046     		.align	2
 671              	.L39:
 672 0020 00000000 		.word	.LANCHOR2
 673              		.cfi_endproc
 674              	.LFE51:
 675              		.size	CapSense_SetPinDriveMode, .-CapSense_SetPinDriveMode
 676              		.section	.text.CapSense_SetDriveModeAllPins,"ax",%progbits
 677              		.align	2
 678              		.global	CapSense_SetDriveModeAllPins
 679              		.code	16
 680              		.thumb_func
 681              		.type	CapSense_SetDriveModeAllPins, %function
 682              	CapSense_SetDriveModeAllPins:
 683              	.LFB49:
1169:Generated_Source\PSoC4/CapSense.c ****     uint8 curSensor;
ARM GAS  C:\Users\Zeynep\AppData\Local\Temp\ccgAGQqu.s 			page 36


 684              		.loc 1 1169 0
 685              		.cfi_startproc
 686              		@ args = 0, pretend = 0, frame = 0
 687              		@ frame_needed = 0, uses_anonymous_args = 0
 688              	.LVL79:
 689 0000 70B5     		push	{r4, r5, r6, lr}
 690              		.cfi_def_cfa_offset 16
 691              		.cfi_offset 4, -16
 692              		.cfi_offset 5, -12
 693              		.cfi_offset 6, -8
 694              		.cfi_offset 14, -4
 695 0002 0500     		movs	r5, r0
 696              	.LVL80:
1178:Generated_Source\PSoC4/CapSense.c ****     {
 697              		.loc 1 1178 0
 698 0004 0024     		movs	r4, #0
 699 0006 08E0     		b	.L42
 700              	.LVL81:
 701              	.L43:
1200:Generated_Source\PSoC4/CapSense.c ****             pinNumberTmp = CapSense_pinShiftTbl[curSensor];
 702              		.loc 1 1200 0 discriminator 3
 703 0008 084B     		ldr	r3, .L44
 704 000a 1A5D     		ldrb	r2, [r3, r4]
 705              	.LVL82:
1201:Generated_Source\PSoC4/CapSense.c ****         #endif  /* CapSense_IS_COMPLEX_SCANSLOTS */
 706              		.loc 1 1201 0 discriminator 3
 707 000c 1B19     		adds	r3, r3, r4
 708 000e 197A     		ldrb	r1, [r3, #8]
 709              	.LVL83:
1204:Generated_Source\PSoC4/CapSense.c ****     }
 710              		.loc 1 1204 0 discriminator 3
 711 0010 2800     		movs	r0, r5
 712 0012 FFF7FEFF 		bl	CapSense_SetPinDriveMode
 713              	.LVL84:
1178:Generated_Source\PSoC4/CapSense.c ****     {
 714              		.loc 1 1178 0 discriminator 3
 715 0016 0134     		adds	r4, r4, #1
 716              	.LVL85:
 717 0018 E4B2     		uxtb	r4, r4
 718              	.LVL86:
 719              	.L42:
1178:Generated_Source\PSoC4/CapSense.c ****     {
 720              		.loc 1 1178 0 is_stmt 0 discriminator 1
 721 001a 042C     		cmp	r4, #4
 722 001c F4D9     		bls	.L43
1207:Generated_Source\PSoC4/CapSense.c **** 
 723              		.loc 1 1207 0 is_stmt 1
 724 001e 0422     		movs	r2, #4
 725 0020 0221     		movs	r1, #2
 726 0022 2800     		movs	r0, r5
 727 0024 FFF7FEFF 		bl	CapSense_SetPinDriveMode
 728              	.LVL87:
1216:Generated_Source\PSoC4/CapSense.c **** 
 729              		.loc 1 1216 0
 730              		@ sp needed
 731              	.LVL88:
 732              	.LVL89:
ARM GAS  C:\Users\Zeynep\AppData\Local\Temp\ccgAGQqu.s 			page 37


 733 0028 70BD     		pop	{r4, r5, r6, pc}
 734              	.L45:
 735 002a C046     		.align	2
 736              	.L44:
 737 002c 00000000 		.word	.LANCHOR2
 738              		.cfi_endproc
 739              	.LFE49:
 740              		.size	CapSense_SetDriveModeAllPins, .-CapSense_SetDriveModeAllPins
 741              		.section	.text.CapSense_RestoreDriveModeAllPins,"ax",%progbits
 742              		.align	2
 743              		.global	CapSense_RestoreDriveModeAllPins
 744              		.code	16
 745              		.thumb_func
 746              		.type	CapSense_RestoreDriveModeAllPins, %function
 747              	CapSense_RestoreDriveModeAllPins:
 748              	.LFB50:
1242:Generated_Source\PSoC4/CapSense.c ****     uint32 newRegisterValue;
 749              		.loc 1 1242 0
 750              		.cfi_startproc
 751              		@ args = 0, pretend = 0, frame = 0
 752              		@ frame_needed = 0, uses_anonymous_args = 0
 753 0000 10B5     		push	{r4, lr}
 754              		.cfi_def_cfa_offset 8
 755              		.cfi_offset 4, -8
 756              		.cfi_offset 14, -4
1245:Generated_Source\PSoC4/CapSense.c **** 
 757              		.loc 1 1245 0
 758 0002 0020     		movs	r0, #0
 759 0004 FFF7FEFF 		bl	CapSense_SetDriveModeAllPins
 760              	.LVL90:
1247:Generated_Source\PSoC4/CapSense.c ****     newRegisterValue &= ~(CapSense_CSD_CMOD_CONNECTION_MASK);
 761              		.loc 1 1247 0
 762 0008 044A     		ldr	r2, .L47
 763 000a 1168     		ldr	r1, [r2]
 764              	.LVL91:
1248:Generated_Source\PSoC4/CapSense.c ****     newRegisterValue |= CapSense_CSD_CMOD_TO_AMUXBUS_A;
 765              		.loc 1 1248 0
 766 000c 044B     		ldr	r3, .L47+4
 767 000e 0B40     		ands	r3, r1
 768              	.LVL92:
1249:Generated_Source\PSoC4/CapSense.c ****     CapSense_CMOD_CONNECTION_REG = newRegisterValue;
 769              		.loc 1 1249 0
 770 0010 C021     		movs	r1, #192
 771 0012 C900     		lsls	r1, r1, #3
 772 0014 0B43     		orrs	r3, r1
 773              	.LVL93:
1250:Generated_Source\PSoC4/CapSense.c **** 
 774              		.loc 1 1250 0
 775 0016 1360     		str	r3, [r2]
1265:Generated_Source\PSoC4/CapSense.c **** 
 776              		.loc 1 1265 0
 777              		@ sp needed
 778 0018 10BD     		pop	{r4, pc}
 779              	.L48:
 780 001a C046     		.align	2
 781              	.L47:
 782 001c 10000140 		.word	1073807376
ARM GAS  C:\Users\Zeynep\AppData\Local\Temp\ccgAGQqu.s 			page 38


 783 0020 FFF0FFFF 		.word	-3841
 784              		.cfi_endproc
 785              	.LFE50:
 786              		.size	CapSense_RestoreDriveModeAllPins, .-CapSense_RestoreDriveModeAllPins
 787              		.section	.text.CapSense_EnableShieldElectrode,"ax",%progbits
 788              		.align	2
 789              		.global	CapSense_EnableShieldElectrode
 790              		.code	16
 791              		.thumb_func
 792              		.type	CapSense_EnableShieldElectrode, %function
 793              	CapSense_EnableShieldElectrode:
 794              	.LFB54:
1305:Generated_Source\PSoC4/CapSense.c **** 
1306:Generated_Source\PSoC4/CapSense.c **** 
1307:Generated_Source\PSoC4/CapSense.c **** /*******************************************************************************
1308:Generated_Source\PSoC4/CapSense.c **** * Function Name: CapSense_PreScan
1309:Generated_Source\PSoC4/CapSense.c **** ********************************************************************************
1310:Generated_Source\PSoC4/CapSense.c **** *
1311:Generated_Source\PSoC4/CapSense.c **** * Summary:
1312:Generated_Source\PSoC4/CapSense.c **** *  Sets required settings, enables a sensor, removes Vref from AMUX and starts the
1313:Generated_Source\PSoC4/CapSense.c **** *  scanning process of the sensor.
1314:Generated_Source\PSoC4/CapSense.c **** *
1315:Generated_Source\PSoC4/CapSense.c **** * Parameters:
1316:Generated_Source\PSoC4/CapSense.c **** *  sensor:  Sensor number.
1317:Generated_Source\PSoC4/CapSense.c **** *
1318:Generated_Source\PSoC4/CapSense.c **** * Return:
1319:Generated_Source\PSoC4/CapSense.c **** *  None
1320:Generated_Source\PSoC4/CapSense.c **** *
1321:Generated_Source\PSoC4/CapSense.c **** * Global Variables:
1322:Generated_Source\PSoC4/CapSense.c **** * CapSense_widgetNumber[] - This array contains numbers of widgets for each sensor.
1323:Generated_Source\PSoC4/CapSense.c **** * CapSense_widgetResolution[] - Contains the widget resolution.
1324:Generated_Source\PSoC4/CapSense.c **** *
1325:Generated_Source\PSoC4/CapSense.c **** * Side Effects:
1326:Generated_Source\PSoC4/CapSense.c **** *  None
1327:Generated_Source\PSoC4/CapSense.c **** *
1328:Generated_Source\PSoC4/CapSense.c **** *******************************************************************************/
1329:Generated_Source\PSoC4/CapSense.c **** void CapSense_PreScan(uint32 sensor)
1330:Generated_Source\PSoC4/CapSense.c **** {
1331:Generated_Source\PSoC4/CapSense.c ****     uint8 widget;
1332:Generated_Source\PSoC4/CapSense.c ****     uint8 interruptState;
1333:Generated_Source\PSoC4/CapSense.c ****     uint32 newRegValue;
1334:Generated_Source\PSoC4/CapSense.c ****     uint32 counterResolution;
1335:Generated_Source\PSoC4/CapSense.c **** 
1336:Generated_Source\PSoC4/CapSense.c ****     #if(CapSense_PRS_OPTIONS == CapSense__PRS_AUTO)
1337:Generated_Source\PSoC4/CapSense.c ****         uint8 senseClkDivMath;
1338:Generated_Source\PSoC4/CapSense.c ****         uint8 sampleClkDivMath;
1339:Generated_Source\PSoC4/CapSense.c ****     #endif /* (CapSense_PRS_OPTIONS == CapSense__PRS_AUTO) */
1340:Generated_Source\PSoC4/CapSense.c **** 
1341:Generated_Source\PSoC4/CapSense.c ****     #if ((CapSense_TUNING_METHOD == CapSense__TUNING_AUTO) &&\
1342:Generated_Source\PSoC4/CapSense.c ****          (0 != CapSense_IS_OVERSAMPLING_EN))
1343:Generated_Source\PSoC4/CapSense.c ****         uint32 oversamplingFactor;
1344:Generated_Source\PSoC4/CapSense.c ****     #endif /* ((CapSense_TUNING_METHOD == CapSense__TUNING_AUTO) &&\
1345:Generated_Source\PSoC4/CapSense.c ****                (0 != CapSense_IS_OVERSAMPLING_EN)) */
1346:Generated_Source\PSoC4/CapSense.c **** 
1347:Generated_Source\PSoC4/CapSense.c ****     /* Define widget sensor belongs to */
1348:Generated_Source\PSoC4/CapSense.c ****     widget = CapSense_widgetNumber[sensor];
1349:Generated_Source\PSoC4/CapSense.c **** 
ARM GAS  C:\Users\Zeynep\AppData\Local\Temp\ccgAGQqu.s 			page 39


1350:Generated_Source\PSoC4/CapSense.c ****     /* Recalculate Counter Resolution to MSB 16 bits */
1351:Generated_Source\PSoC4/CapSense.c ****     counterResolution = CapSense_widgetResolution[widget];
1352:Generated_Source\PSoC4/CapSense.c **** 
1353:Generated_Source\PSoC4/CapSense.c ****     #if ((CapSense_TUNING_METHOD == CapSense__TUNING_AUTO) &&\
1354:Generated_Source\PSoC4/CapSense.c ****          (0 != CapSense_IS_OVERSAMPLING_EN))
1355:Generated_Source\PSoC4/CapSense.c ****         oversamplingFactor = CapSense_GetBitValue(CapSense_scanSpeedTbl, sensor);
1356:Generated_Source\PSoC4/CapSense.c **** 
1357:Generated_Source\PSoC4/CapSense.c ****         if(counterResolution < CapSense_RESOLUTION_16_BITS)
1358:Generated_Source\PSoC4/CapSense.c ****         {
1359:Generated_Source\PSoC4/CapSense.c ****             counterResolution <<= oversamplingFactor;
1360:Generated_Source\PSoC4/CapSense.c ****             counterResolution |= (uint32)(CapSense_RESOLUTION_8_BITS);
1361:Generated_Source\PSoC4/CapSense.c ****         }
1362:Generated_Source\PSoC4/CapSense.c ****     #endif /* ((CapSense_TUNING_METHOD == CapSense__TUNING_AUTO) &&\
1363:Generated_Source\PSoC4/CapSense.c ****                (0 != CapSense_IS_OVERSAMPLING_EN)) */
1364:Generated_Source\PSoC4/CapSense.c **** 
1365:Generated_Source\PSoC4/CapSense.c ****     #if (0u != CapSense_IS_M0S8PERI_BLOCK)
1366:Generated_Source\PSoC4/CapSense.c ****         CapSense_SenseClk_Stop();
1367:Generated_Source\PSoC4/CapSense.c ****         CapSense_SampleClk_Stop();
1368:Generated_Source\PSoC4/CapSense.c ****     #endif /* (0u != CapSense_IS_M0S8PERI_BLOCK) */
1369:Generated_Source\PSoC4/CapSense.c **** 
1370:Generated_Source\PSoC4/CapSense.c ****     #if (0u != CapSense_MULTIPLE_FREQUENCY_SET)
1371:Generated_Source\PSoC4/CapSense.c ****         CapSense_SampleClk_SetDividerValue((uint16)CapSense_sampleClkDividerVal[sensor]);
1372:Generated_Source\PSoC4/CapSense.c ****         CapSense_SenseClk_SetDividerValue((uint16)CapSense_senseClkDividerVal[sensor]);
1373:Generated_Source\PSoC4/CapSense.c ****     #else
1374:Generated_Source\PSoC4/CapSense.c ****         CapSense_SampleClk_SetDividerValue((uint16)CapSense_sampleClkDividerVal);
1375:Generated_Source\PSoC4/CapSense.c ****         CapSense_SenseClk_SetDividerValue((uint16)CapSense_senseClkDividerVal);
1376:Generated_Source\PSoC4/CapSense.c ****     #endif /* (0u != CapSense_MULTIPLE_FREQUENCY_SET) */
1377:Generated_Source\PSoC4/CapSense.c **** 
1378:Generated_Source\PSoC4/CapSense.c ****     #if (0u != CapSense_IS_M0S8PERI_BLOCK)
1379:Generated_Source\PSoC4/CapSense.c ****         CapSense_SampleClk_Start();
1380:Generated_Source\PSoC4/CapSense.c ****         CapSense_SenseClk_StartEx(CapSense_SampleClk__DIV_ID);
1381:Generated_Source\PSoC4/CapSense.c **** 
1382:Generated_Source\PSoC4/CapSense.c ****         #if(CapSense_PRS_OPTIONS == CapSense__PRS_NONE)
1383:Generated_Source\PSoC4/CapSense.c ****             CyIntDisable(CapSense_ISR_NUMBER);
1384:Generated_Source\PSoC4/CapSense.c ****             CapSense_CSD_CNT_REG = CapSense_ONE_CYCLE;
1385:Generated_Source\PSoC4/CapSense.c ****             while(0u != (CapSense_CSD_CNT_REG & CapSense_RESOLUTION_16_BITS))
1386:Generated_Source\PSoC4/CapSense.c ****             {
1387:Generated_Source\PSoC4/CapSense.c ****             /* Wait until scanning is complete */
1388:Generated_Source\PSoC4/CapSense.c ****             }
1389:Generated_Source\PSoC4/CapSense.c ****             CapSense_CSD_INTR_REG = 1u;
1390:Generated_Source\PSoC4/CapSense.c ****             CyIntClearPending(CapSense_ISR_NUMBER);
1391:Generated_Source\PSoC4/CapSense.c ****             CyIntEnable(CapSense_ISR_NUMBER);
1392:Generated_Source\PSoC4/CapSense.c ****         #endif /* CapSense_PRS_OPTIONS == CapSense__PRS_NONE */
1393:Generated_Source\PSoC4/CapSense.c ****     #endif /* (0u != CapSense_IS_M0S8PERI_BLOCK) */
1394:Generated_Source\PSoC4/CapSense.c **** 
1395:Generated_Source\PSoC4/CapSense.c **** #if(CapSense_PRS_OPTIONS != CapSense__PRS_NONE)
1396:Generated_Source\PSoC4/CapSense.c **** 
1397:Generated_Source\PSoC4/CapSense.c ****     #if(CapSense_TUNING_METHOD == CapSense__TUNING_AUTO)
1398:Generated_Source\PSoC4/CapSense.c ****         if(CapSense_prescalersTuningDone != 0u)
1399:Generated_Source\PSoC4/CapSense.c ****         {
1400:Generated_Source\PSoC4/CapSense.c ****     #endif /* (CapSense_TUNING_METHOD == CapSense__TUNING_AUTO) */
1401:Generated_Source\PSoC4/CapSense.c **** 
1402:Generated_Source\PSoC4/CapSense.c ****             CyIntDisable(CapSense_ISR_NUMBER);
1403:Generated_Source\PSoC4/CapSense.c **** 
1404:Generated_Source\PSoC4/CapSense.c ****             newRegValue = CapSense_CSD_CFG_REG;
1405:Generated_Source\PSoC4/CapSense.c ****             newRegValue |= CapSense_CSD_CFG_PRS_SELECT;
1406:Generated_Source\PSoC4/CapSense.c **** 
ARM GAS  C:\Users\Zeynep\AppData\Local\Temp\ccgAGQqu.s 			page 40


1407:Generated_Source\PSoC4/CapSense.c ****             #if(CapSense_PRS_OPTIONS == CapSense__PRS_AUTO)
1408:Generated_Source\PSoC4/CapSense.c **** 
1409:Generated_Source\PSoC4/CapSense.c ****                 newRegValue &= ~(CapSense_PRS_MODE_MASK);
1410:Generated_Source\PSoC4/CapSense.c **** 
1411:Generated_Source\PSoC4/CapSense.c ****                 #if (0u != CapSense_MULTIPLE_FREQUENCY_SET)
1412:Generated_Source\PSoC4/CapSense.c ****                     senseClkDivMath = CapSense_senseClkDividerVal[sensor];
1413:Generated_Source\PSoC4/CapSense.c ****                     sampleClkDivMath = CapSense_sampleClkDividerVal[sensor];
1414:Generated_Source\PSoC4/CapSense.c ****                 #else
1415:Generated_Source\PSoC4/CapSense.c ****                     senseClkDivMath = CapSense_senseClkDividerVal;
1416:Generated_Source\PSoC4/CapSense.c ****                     sampleClkDivMath = CapSense_sampleClkDividerVal;
1417:Generated_Source\PSoC4/CapSense.c ****                 #endif /* ( CapSense_MULTIPLE_FREQUENCY_SET) */
1418:Generated_Source\PSoC4/CapSense.c **** 
1419:Generated_Source\PSoC4/CapSense.c ****                 #if(0u == CapSense_IS_M0S8PERI_BLOCK)
1420:Generated_Source\PSoC4/CapSense.c ****                     senseClkDivMath *= sampleClkDivMath;
1421:Generated_Source\PSoC4/CapSense.c ****                 #endif /* (0u == CapSense_IS_M0S8PERI_BLOCK) */
1422:Generated_Source\PSoC4/CapSense.c **** 
1423:Generated_Source\PSoC4/CapSense.c ****                 if((senseClkDivMath * CapSense_RESOLUTION_12_BITS) <
1424:Generated_Source\PSoC4/CapSense.c ****                    (sampleClkDivMath * CapSense_widgetResolution[widget]))
1425:Generated_Source\PSoC4/CapSense.c ****                 {
1426:Generated_Source\PSoC4/CapSense.c ****                     newRegValue |= CapSense_CSD_PRS_12_BIT;
1427:Generated_Source\PSoC4/CapSense.c ****                 }
1428:Generated_Source\PSoC4/CapSense.c ****             #endif /* (CapSense_PRS_OPTIONS == CapSense__PRS_AUTO) */
1429:Generated_Source\PSoC4/CapSense.c **** 
1430:Generated_Source\PSoC4/CapSense.c ****             CapSense_CSD_CFG_REG = newRegValue;
1431:Generated_Source\PSoC4/CapSense.c **** 
1432:Generated_Source\PSoC4/CapSense.c ****             CyIntEnable(CapSense_ISR_NUMBER);
1433:Generated_Source\PSoC4/CapSense.c **** 
1434:Generated_Source\PSoC4/CapSense.c ****     #if(CapSense_TUNING_METHOD == CapSense__TUNING_AUTO)
1435:Generated_Source\PSoC4/CapSense.c ****         }
1436:Generated_Source\PSoC4/CapSense.c ****     #endif /* (CapSense_PRS_OPTIONS != CapSense__PRS_NONE) */
1437:Generated_Source\PSoC4/CapSense.c **** 
1438:Generated_Source\PSoC4/CapSense.c **** #endif /* (CapSense_PRS_OPTIONS == CapSense__PRS_NONE) */
1439:Generated_Source\PSoC4/CapSense.c **** 
1440:Generated_Source\PSoC4/CapSense.c ****     /* Set Idac Value */
1441:Generated_Source\PSoC4/CapSense.c ****     CyIntDisable(CapSense_ISR_NUMBER);
1442:Generated_Source\PSoC4/CapSense.c ****     newRegValue = CapSense_CSD_IDAC_REG;
1443:Generated_Source\PSoC4/CapSense.c **** 
1444:Generated_Source\PSoC4/CapSense.c **** #if (CapSense_IDAC_CNT == 1u)
1445:Generated_Source\PSoC4/CapSense.c ****     newRegValue &= ~(CapSense_CSD_IDAC1_DATA_MASK);
1446:Generated_Source\PSoC4/CapSense.c ****     newRegValue |= CapSense_modulationIDAC[sensor];
1447:Generated_Source\PSoC4/CapSense.c **** #else
1448:Generated_Source\PSoC4/CapSense.c ****     newRegValue &= ~(CapSense_CSD_IDAC1_DATA_MASK | CapSense_CSD_IDAC2_DATA_MASK);
1449:Generated_Source\PSoC4/CapSense.c ****     newRegValue |= (CapSense_modulationIDAC[sensor] |
1450:Generated_Source\PSoC4/CapSense.c ****                             (uint32)((uint32)CapSense_compensationIDAC[sensor] <<
1451:Generated_Source\PSoC4/CapSense.c ****                             CapSense_CSD_IDAC2_DATA_OFFSET));
1452:Generated_Source\PSoC4/CapSense.c **** #endif /* (CapSense_IDAC_CNT == 1u) */
1453:Generated_Source\PSoC4/CapSense.c **** 
1454:Generated_Source\PSoC4/CapSense.c ****     CapSense_CSD_IDAC_REG = newRegValue;
1455:Generated_Source\PSoC4/CapSense.c **** 
1456:Generated_Source\PSoC4/CapSense.c **** #if(CapSense_CMOD_PREGARGE_OPTION == CapSense__CAPPRIOBUF)
1457:Generated_Source\PSoC4/CapSense.c ****     newRegValue = CapSense_CMOD_CONNECTION_REG;
1458:Generated_Source\PSoC4/CapSense.c ****     newRegValue &= ~(CapSense_CSD_CMOD_CONNECTION_MASK);
1459:Generated_Source\PSoC4/CapSense.c ****     newRegValue |= CapSense_CSD_CMOD_TO_AMUXBUS_A;
1460:Generated_Source\PSoC4/CapSense.c ****     CapSense_CMOD_CONNECTION_REG = newRegValue;
1461:Generated_Source\PSoC4/CapSense.c **** 
1462:Generated_Source\PSoC4/CapSense.c ****     newRegValue = CapSense_CMOD_PORT_PC_REG;
1463:Generated_Source\PSoC4/CapSense.c ****     newRegValue &= ~(CapSense_CSD_CMOD_PC_MASK);
ARM GAS  C:\Users\Zeynep\AppData\Local\Temp\ccgAGQqu.s 			page 41


1464:Generated_Source\PSoC4/CapSense.c ****     newRegValue |= CapSense_CMOD_PC_HIGH_Z_MODE;
1465:Generated_Source\PSoC4/CapSense.c ****     CapSense_CMOD_PORT_PC_REG = newRegValue;
1466:Generated_Source\PSoC4/CapSense.c **** #endif /* (CapSense_CMOD_PREGARGE_OPTION == CapSense__CAPPRIOBUF) */
1467:Generated_Source\PSoC4/CapSense.c **** 
1468:Generated_Source\PSoC4/CapSense.c ****     /* Disconnect Vref Buffer from AMUX */
1469:Generated_Source\PSoC4/CapSense.c ****     newRegValue = CapSense_CSD_CFG_REG;
1470:Generated_Source\PSoC4/CapSense.c ****     newRegValue &= ~(CapSense_PRECHARGE_CONFIG_MASK);
1471:Generated_Source\PSoC4/CapSense.c ****     newRegValue |= CapSense_CTANK_PRECHARGE_CONFIG;
1472:Generated_Source\PSoC4/CapSense.c **** 
1473:Generated_Source\PSoC4/CapSense.c ****     CyIntEnable(CapSense_ISR_NUMBER);
1474:Generated_Source\PSoC4/CapSense.c **** 
1475:Generated_Source\PSoC4/CapSense.c ****     /* Enable Sensor */
1476:Generated_Source\PSoC4/CapSense.c ****     CapSense_EnableScanSlot(sensor);
1477:Generated_Source\PSoC4/CapSense.c **** 
1478:Generated_Source\PSoC4/CapSense.c ****     interruptState = CyEnterCriticalSection();
1479:Generated_Source\PSoC4/CapSense.c ****     CapSense_CSD_CFG_REG = newRegValue;
1480:Generated_Source\PSoC4/CapSense.c **** 
1481:Generated_Source\PSoC4/CapSense.c ****     /* `#START CapSense_PreSettlingDelay_Debug` */
1482:Generated_Source\PSoC4/CapSense.c **** 
1483:Generated_Source\PSoC4/CapSense.c ****     /* `#END` */
1484:Generated_Source\PSoC4/CapSense.c **** 
1485:Generated_Source\PSoC4/CapSense.c **** #ifdef CapSense_PRE_SCAN_PRE_SETTLING_DELAY_DEBUG_CALLBACK
1486:Generated_Source\PSoC4/CapSense.c ****     CapSense_PreScan_Pre_SettlingDelay_Debug_Callback();
1487:Generated_Source\PSoC4/CapSense.c **** #endif /* CapSense_PRE_SCAN_PRE_SETTLING_DELAY_DEBUG_CALLBACK */
1488:Generated_Source\PSoC4/CapSense.c **** 
1489:Generated_Source\PSoC4/CapSense.c ****     CyDelayCycles(CapSense_GLITCH_ELIMINATION_CYCLES);
1490:Generated_Source\PSoC4/CapSense.c **** 
1491:Generated_Source\PSoC4/CapSense.c ****     /* `#START CapSense_PreScan_Debug` */
1492:Generated_Source\PSoC4/CapSense.c **** 
1493:Generated_Source\PSoC4/CapSense.c ****     /* `#END` */
1494:Generated_Source\PSoC4/CapSense.c **** 
1495:Generated_Source\PSoC4/CapSense.c **** #ifdef CapSense_PRE_SCAN_DEBUG_CALLBACK
1496:Generated_Source\PSoC4/CapSense.c ****     CapSense_PreScan_Debug_Callback();
1497:Generated_Source\PSoC4/CapSense.c **** #endif /* CapSense_PRE_SCAN_DEBUG_CALLBACK */
1498:Generated_Source\PSoC4/CapSense.c **** 
1499:Generated_Source\PSoC4/CapSense.c ****     CapSense_CSD_CNT_REG = counterResolution;
1500:Generated_Source\PSoC4/CapSense.c ****     CyExitCriticalSection(interruptState);
1501:Generated_Source\PSoC4/CapSense.c **** }
1502:Generated_Source\PSoC4/CapSense.c **** 
1503:Generated_Source\PSoC4/CapSense.c **** 
1504:Generated_Source\PSoC4/CapSense.c **** /*******************************************************************************
1505:Generated_Source\PSoC4/CapSense.c **** * Function Name: CapSense_PostScan
1506:Generated_Source\PSoC4/CapSense.c **** ********************************************************************************
1507:Generated_Source\PSoC4/CapSense.c **** *
1508:Generated_Source\PSoC4/CapSense.c **** * Summary:
1509:Generated_Source\PSoC4/CapSense.c **** *  Stores the results of measurement in the CapSense_sensorRaw[] array,
1510:Generated_Source\PSoC4/CapSense.c **** *  sets the scanning sensor in the non-sampling state, turns off Idac(Current Source IDAC),
1511:Generated_Source\PSoC4/CapSense.c **** *  disconnects the IDAC(Sink mode), and applies Vref on AMUX.
1512:Generated_Source\PSoC4/CapSense.c **** *
1513:Generated_Source\PSoC4/CapSense.c **** * Parameters:
1514:Generated_Source\PSoC4/CapSense.c **** *  sensor:  Sensor number.
1515:Generated_Source\PSoC4/CapSense.c **** *
1516:Generated_Source\PSoC4/CapSense.c **** * Return:
1517:Generated_Source\PSoC4/CapSense.c **** *  None
1518:Generated_Source\PSoC4/CapSense.c **** *
1519:Generated_Source\PSoC4/CapSense.c **** * Global Variables:
1520:Generated_Source\PSoC4/CapSense.c **** *  CapSense_sensorRaw[] - used to store sensors raw data.
ARM GAS  C:\Users\Zeynep\AppData\Local\Temp\ccgAGQqu.s 			page 42


1521:Generated_Source\PSoC4/CapSense.c **** *
1522:Generated_Source\PSoC4/CapSense.c **** * Side Effects:
1523:Generated_Source\PSoC4/CapSense.c **** *  None
1524:Generated_Source\PSoC4/CapSense.c **** *
1525:Generated_Source\PSoC4/CapSense.c **** *******************************************************************************/
1526:Generated_Source\PSoC4/CapSense.c **** void CapSense_PostScan(uint32 sensor)
1527:Generated_Source\PSoC4/CapSense.c **** {
1528:Generated_Source\PSoC4/CapSense.c ****     uint32 newRegValue;
1529:Generated_Source\PSoC4/CapSense.c **** #if ((CapSense_TUNING_METHOD == CapSense__TUNING_AUTO) &&\
1530:Generated_Source\PSoC4/CapSense.c ****      (0 != CapSense_IS_OVERSAMPLING_EN))
1531:Generated_Source\PSoC4/CapSense.c ****     uint32 oversamplingFactor;
1532:Generated_Source\PSoC4/CapSense.c ****     uint32 widget;
1533:Generated_Source\PSoC4/CapSense.c **** #endif /* ((CapSense_TUNING_METHOD == CapSense__TUNING_AUTO) &&\
1534:Generated_Source\PSoC4/CapSense.c ****            (0 != CapSense_IS_OVERSAMPLING_EN)) */
1535:Generated_Source\PSoC4/CapSense.c **** 
1536:Generated_Source\PSoC4/CapSense.c ****     /* `#START CapSense_PostScan_Debug` */
1537:Generated_Source\PSoC4/CapSense.c **** 
1538:Generated_Source\PSoC4/CapSense.c ****     /* `#END` */
1539:Generated_Source\PSoC4/CapSense.c **** 
1540:Generated_Source\PSoC4/CapSense.c **** #ifdef CapSense_POST_SCAN_DEBUG_CALLBACK
1541:Generated_Source\PSoC4/CapSense.c ****     CapSense_PostScan_Debug_Callback();
1542:Generated_Source\PSoC4/CapSense.c **** #endif /* CapSense_POST_SCAN_DEBUG_Callback */
1543:Generated_Source\PSoC4/CapSense.c **** 
1544:Generated_Source\PSoC4/CapSense.c ****     /* Read SlotResult from Raw Counter */
1545:Generated_Source\PSoC4/CapSense.c ****     CapSense_sensorRaw[sensor]  = (uint16)CapSense_CSD_CNT_REG;
1546:Generated_Source\PSoC4/CapSense.c **** 
1547:Generated_Source\PSoC4/CapSense.c **** #if ((CapSense_TUNING_METHOD == CapSense__TUNING_AUTO) &&\
1548:Generated_Source\PSoC4/CapSense.c ****      (0 != CapSense_IS_OVERSAMPLING_EN))
1549:Generated_Source\PSoC4/CapSense.c ****     widget = CapSense_widgetNumber[sensor];
1550:Generated_Source\PSoC4/CapSense.c ****     if(CapSense_widgetResolution[widget] < CapSense_RESOLUTION_16_BITS)
1551:Generated_Source\PSoC4/CapSense.c ****     {
1552:Generated_Source\PSoC4/CapSense.c ****         oversamplingFactor = CapSense_GetBitValue(CapSense_scanSpeedTbl, sensor);
1553:Generated_Source\PSoC4/CapSense.c ****         CapSense_sensorRaw[sensor] >>= oversamplingFactor;
1554:Generated_Source\PSoC4/CapSense.c ****     }
1555:Generated_Source\PSoC4/CapSense.c **** #endif /* ((CapSense_TUNING_METHOD == CapSense__TUNING_AUTO) &&\
1556:Generated_Source\PSoC4/CapSense.c ****            (0 != CapSense_IS_OVERSAMPLING_EN)) */
1557:Generated_Source\PSoC4/CapSense.c **** 
1558:Generated_Source\PSoC4/CapSense.c ****     /* Disable Sensor */
1559:Generated_Source\PSoC4/CapSense.c ****     CapSense_DisableScanSlot(sensor);
1560:Generated_Source\PSoC4/CapSense.c **** 
1561:Generated_Source\PSoC4/CapSense.c ****     CyIntDisable(CapSense_ISR_NUMBER);
1562:Generated_Source\PSoC4/CapSense.c **** 
1563:Generated_Source\PSoC4/CapSense.c **** #if(CapSense_CMOD_PREGARGE_OPTION == CapSense__CAPPRIOBUF)
1564:Generated_Source\PSoC4/CapSense.c ****     newRegValue = CapSense_CMOD_CONNECTION_REG;
1565:Generated_Source\PSoC4/CapSense.c ****     newRegValue &= ~(CapSense_CSD_CMOD_CONNECTION_MASK);
1566:Generated_Source\PSoC4/CapSense.c ****     newRegValue |= CapSense_CSD_CMOD_TO_AMUXBUS_B;
1567:Generated_Source\PSoC4/CapSense.c ****     CapSense_CMOD_CONNECTION_REG = newRegValue;
1568:Generated_Source\PSoC4/CapSense.c **** 
1569:Generated_Source\PSoC4/CapSense.c ****     newRegValue = CapSense_CMOD_PORT_PC_REG;
1570:Generated_Source\PSoC4/CapSense.c ****     newRegValue &= ~(CapSense_CSD_CMOD_PC_MASK);
1571:Generated_Source\PSoC4/CapSense.c ****     newRegValue |= CapSense_CMOD_PC_STRONG_MODE;
1572:Generated_Source\PSoC4/CapSense.c ****     CapSense_CMOD_PORT_PC_REG = newRegValue;
1573:Generated_Source\PSoC4/CapSense.c **** 
1574:Generated_Source\PSoC4/CapSense.c ****     newRegValue = CapSense_CMOD_PORT_DR_REG;
1575:Generated_Source\PSoC4/CapSense.c ****     newRegValue &= ~(CapSense_CMOD_DR_MASK);
1576:Generated_Source\PSoC4/CapSense.c ****     newRegValue |= CapSense_CMOD_DR_CONFIG;
1577:Generated_Source\PSoC4/CapSense.c ****     CapSense_CMOD_PORT_DR_REG = newRegValue;
ARM GAS  C:\Users\Zeynep\AppData\Local\Temp\ccgAGQqu.s 			page 43


1578:Generated_Source\PSoC4/CapSense.c **** #endif /* (CapSense_CMOD_PREGARGE_OPTION == CapSense__CAPPRIOBUF) */
1579:Generated_Source\PSoC4/CapSense.c **** 
1580:Generated_Source\PSoC4/CapSense.c ****     /* Connect Vref Buffer to AMUX bus  */
1581:Generated_Source\PSoC4/CapSense.c ****     newRegValue = CapSense_CSD_CFG_REG;
1582:Generated_Source\PSoC4/CapSense.c ****     newRegValue &= ~(CapSense_PRECHARGE_CONFIG_MASK);
1583:Generated_Source\PSoC4/CapSense.c ****     newRegValue |= CapSense_CMOD_PRECHARGE_CONFIG;
1584:Generated_Source\PSoC4/CapSense.c ****     CapSense_CSD_CFG_REG = newRegValue;
1585:Generated_Source\PSoC4/CapSense.c **** 
1586:Generated_Source\PSoC4/CapSense.c ****     /* Set Idac Value = 0 */
1587:Generated_Source\PSoC4/CapSense.c **** #if (CapSense_IDAC_CNT == 1u)
1588:Generated_Source\PSoC4/CapSense.c ****     CapSense_CSD_IDAC_REG &= ~(CapSense_CSD_IDAC1_DATA_MASK);
1589:Generated_Source\PSoC4/CapSense.c **** #else
1590:Generated_Source\PSoC4/CapSense.c ****     CapSense_CSD_IDAC_REG &= ~(CapSense_CSD_IDAC1_DATA_MASK | CapSense_CSD_IDAC2_DATA_MASK);
1591:Generated_Source\PSoC4/CapSense.c **** #endif /* (CapSense_IDAC_CNT == 1u) */
1592:Generated_Source\PSoC4/CapSense.c **** 
1593:Generated_Source\PSoC4/CapSense.c ****     CyIntEnable(CapSense_ISR_NUMBER);
1594:Generated_Source\PSoC4/CapSense.c **** }
1595:Generated_Source\PSoC4/CapSense.c **** 
1596:Generated_Source\PSoC4/CapSense.c **** 
1597:Generated_Source\PSoC4/CapSense.c **** /*******************************************************************************
1598:Generated_Source\PSoC4/CapSense.c **** * Function Name: CapSense_EnableShieldElectrode
1599:Generated_Source\PSoC4/CapSense.c **** ********************************************************************************
1600:Generated_Source\PSoC4/CapSense.c **** *
1601:Generated_Source\PSoC4/CapSense.c **** * Summary:
1602:Generated_Source\PSoC4/CapSense.c **** *  This API enables or disables the shield electrode on a specified port pin.
1603:Generated_Source\PSoC4/CapSense.c **** *
1604:Generated_Source\PSoC4/CapSense.c **** * Parameters:
1605:Generated_Source\PSoC4/CapSense.c **** *  portNumber: contains the shield electrode port number (0, 1, 2).
1606:Generated_Source\PSoC4/CapSense.c **** *  pinNumber: contains the shield electrode pin number (0, 1, 2, ... , 7).
1607:Generated_Source\PSoC4/CapSense.c **** *
1608:Generated_Source\PSoC4/CapSense.c **** * Return:
1609:Generated_Source\PSoC4/CapSense.c **** *  None
1610:Generated_Source\PSoC4/CapSense.c **** *
1611:Generated_Source\PSoC4/CapSense.c **** * Global Variables:
1612:Generated_Source\PSoC4/CapSense.c **** *  CapSense_prtCfgTbl[] - Contains pointers to the port config registers for each port.
1613:Generated_Source\PSoC4/CapSense.c **** *  CapSense_prtSelTbl[] - Contains pointers to the HSIOM registers for each port.
1614:Generated_Source\PSoC4/CapSense.c **** *
1615:Generated_Source\PSoC4/CapSense.c **** * Side Effects:
1616:Generated_Source\PSoC4/CapSense.c **** *  None
1617:Generated_Source\PSoC4/CapSense.c **** *
1618:Generated_Source\PSoC4/CapSense.c **** *******************************************************************************/
1619:Generated_Source\PSoC4/CapSense.c **** void CapSense_EnableShieldElectrode(uint32 pinNumber, uint32 portNumber)
1620:Generated_Source\PSoC4/CapSense.c **** {
 795              		.loc 1 1620 0
 796              		.cfi_startproc
 797              		@ args = 0, pretend = 0, frame = 0
 798              		@ frame_needed = 0, uses_anonymous_args = 0
 799              	.LVL94:
 800 0000 30B5     		push	{r4, r5, lr}
 801              		.cfi_def_cfa_offset 12
 802              		.cfi_offset 4, -12
 803              		.cfi_offset 5, -8
 804              		.cfi_offset 14, -4
1621:Generated_Source\PSoC4/CapSense.c ****     uint32 newRegValue;
1622:Generated_Source\PSoC4/CapSense.c **** 
1623:Generated_Source\PSoC4/CapSense.c ****     *CapSense_prtCfgTbl[portNumber] &= ~(CapSense_CSD_PIN_MODE_MASK << (pinNumber * CapSense_PC_PIN
 805              		.loc 1 1623 0
ARM GAS  C:\Users\Zeynep\AppData\Local\Temp\ccgAGQqu.s 			page 44


 806 0002 8900     		lsls	r1, r1, #2
 807              	.LVL95:
 808 0004 0A4B     		ldr	r3, .L50
 809 0006 5918     		adds	r1, r3, r1
 810 0008 4D6A     		ldr	r5, [r1, #36]
 811 000a 2B68     		ldr	r3, [r5]
 812 000c 4400     		lsls	r4, r0, #1
 813 000e 2418     		adds	r4, r4, r0
 814 0010 0722     		movs	r2, #7
 815 0012 A240     		lsls	r2, r2, r4
 816 0014 9343     		bics	r3, r2
 817 0016 2B60     		str	r3, [r5]
1624:Generated_Source\PSoC4/CapSense.c ****     newRegValue = *CapSense_prtSelTbl[portNumber];
 818              		.loc 1 1624 0
 819 0018 0969     		ldr	r1, [r1, #16]
 820 001a 0B68     		ldr	r3, [r1]
 821              	.LVL96:
1625:Generated_Source\PSoC4/CapSense.c ****     newRegValue &= ~(CapSense_CSD_HSIOM_MASK << (pinNumber * CapSense_HSIOM_PIN_CFG_SIZE));
 822              		.loc 1 1625 0
 823 001c 8000     		lsls	r0, r0, #2
 824              	.LVL97:
 825 001e 0F22     		movs	r2, #15
 826 0020 8240     		lsls	r2, r2, r0
 827 0022 9343     		bics	r3, r2
 828              	.LVL98:
 829 0024 1A00     		movs	r2, r3
 830              	.LVL99:
1626:Generated_Source\PSoC4/CapSense.c ****     newRegValue |= (CapSense_CSD_SHIELD_PORT_MODE << (pinNumber * CapSense_HSIOM_PIN_CFG_SIZE));
 831              		.loc 1 1626 0
 832 0026 0523     		movs	r3, #5
 833 0028 8340     		lsls	r3, r3, r0
 834 002a 1343     		orrs	r3, r2
 835              	.LVL100:
1627:Generated_Source\PSoC4/CapSense.c ****     *CapSense_prtSelTbl[portNumber] = newRegValue;
 836              		.loc 1 1627 0
 837 002c 0B60     		str	r3, [r1]
1628:Generated_Source\PSoC4/CapSense.c **** }
 838              		.loc 1 1628 0
 839              		@ sp needed
 840 002e 30BD     		pop	{r4, r5, pc}
 841              	.L51:
 842              		.align	2
 843              	.L50:
 844 0030 00000000 		.word	.LANCHOR2
 845              		.cfi_endproc
 846              	.LFE54:
 847              		.size	CapSense_EnableShieldElectrode, .-CapSense_EnableShieldElectrode
 848              		.section	.text.CapSense_SetShieldDelay,"ax",%progbits
 849              		.align	2
 850              		.global	CapSense_SetShieldDelay
 851              		.code	16
 852              		.thumb_func
 853              		.type	CapSense_SetShieldDelay, %function
 854              	CapSense_SetShieldDelay:
 855              	.LFB55:
1629:Generated_Source\PSoC4/CapSense.c **** 
1630:Generated_Source\PSoC4/CapSense.c **** 
ARM GAS  C:\Users\Zeynep\AppData\Local\Temp\ccgAGQqu.s 			page 45


1631:Generated_Source\PSoC4/CapSense.c **** /*******************************************************************************
1632:Generated_Source\PSoC4/CapSense.c **** * Function Name: CapSense_SetShieldDelay
1633:Generated_Source\PSoC4/CapSense.c **** ********************************************************************************
1634:Generated_Source\PSoC4/CapSense.c **** *
1635:Generated_Source\PSoC4/CapSense.c **** * Summary:
1636:Generated_Source\PSoC4/CapSense.c **** *  This API sets a shield delay.
1637:Generated_Source\PSoC4/CapSense.c **** *
1638:Generated_Source\PSoC4/CapSense.c **** * Parameters:
1639:Generated_Source\PSoC4/CapSense.c **** *  delay:  shield delay value:
1640:Generated_Source\PSoC4/CapSense.c **** *                               0 - no delay
1641:Generated_Source\PSoC4/CapSense.c **** *                               1 - 1 cycle delay
1642:Generated_Source\PSoC4/CapSense.c **** *                               2 - 2 cycles delay
1643:Generated_Source\PSoC4/CapSense.c **** *
1644:Generated_Source\PSoC4/CapSense.c **** * Return:
1645:Generated_Source\PSoC4/CapSense.c **** *  None
1646:Generated_Source\PSoC4/CapSense.c **** *
1647:Generated_Source\PSoC4/CapSense.c **** * Global Variables:
1648:Generated_Source\PSoC4/CapSense.c **** *  None
1649:Generated_Source\PSoC4/CapSense.c **** *
1650:Generated_Source\PSoC4/CapSense.c **** * Side Effects:
1651:Generated_Source\PSoC4/CapSense.c **** *  None
1652:Generated_Source\PSoC4/CapSense.c **** *
1653:Generated_Source\PSoC4/CapSense.c **** *******************************************************************************/
1654:Generated_Source\PSoC4/CapSense.c **** void CapSense_SetShieldDelay(uint32 delay)
1655:Generated_Source\PSoC4/CapSense.c **** {
 856              		.loc 1 1655 0
 857              		.cfi_startproc
 858              		@ args = 0, pretend = 0, frame = 0
 859              		@ frame_needed = 0, uses_anonymous_args = 0
 860              		@ link register save eliminated.
 861              	.LVL101:
1656:Generated_Source\PSoC4/CapSense.c ****     uint32 newRegValue;
1657:Generated_Source\PSoC4/CapSense.c **** 
1658:Generated_Source\PSoC4/CapSense.c ****     delay &= 0x03u;
1659:Generated_Source\PSoC4/CapSense.c **** 
1660:Generated_Source\PSoC4/CapSense.c ****     newRegValue = CapSense_CSD_CFG_REG;
 862              		.loc 1 1660 0
 863 0000 044A     		ldr	r2, .L53
 864 0002 1168     		ldr	r1, [r2]
 865              	.LVL102:
1661:Generated_Source\PSoC4/CapSense.c ****     newRegValue &= (uint32)(~(uint32)CapSense_SHIELD_DELAY);
1662:Generated_Source\PSoC4/CapSense.c ****     newRegValue |= (delay << CapSense_CSD_CFG_SHIELD_DELAY_POS);
 866              		.loc 1 1662 0
 867 0004 4002     		lsls	r0, r0, #9
 868              	.LVL103:
 869 0006 C023     		movs	r3, #192
 870 0008 DB00     		lsls	r3, r3, #3
 871 000a 1840     		ands	r0, r3
 872 000c 0843     		orrs	r0, r1
 873              	.LVL104:
1663:Generated_Source\PSoC4/CapSense.c ****     CapSense_CSD_CFG_REG = newRegValue;
 874              		.loc 1 1663 0
 875 000e 1060     		str	r0, [r2]
1664:Generated_Source\PSoC4/CapSense.c **** }
 876              		.loc 1 1664 0
 877              		@ sp needed
 878 0010 7047     		bx	lr
ARM GAS  C:\Users\Zeynep\AppData\Local\Temp\ccgAGQqu.s 			page 46


 879              	.L54:
 880 0012 C046     		.align	2
 881              	.L53:
 882 0014 04000840 		.word	1074266116
 883              		.cfi_endproc
 884              	.LFE55:
 885              		.size	CapSense_SetShieldDelay, .-CapSense_SetShieldDelay
 886              		.section	.text.CapSense_ReadCurrentScanningSensor,"ax",%progbits
 887              		.align	2
 888              		.global	CapSense_ReadCurrentScanningSensor
 889              		.code	16
 890              		.thumb_func
 891              		.type	CapSense_ReadCurrentScanningSensor, %function
 892              	CapSense_ReadCurrentScanningSensor:
 893              	.LFB56:
1665:Generated_Source\PSoC4/CapSense.c **** 
1666:Generated_Source\PSoC4/CapSense.c **** 
1667:Generated_Source\PSoC4/CapSense.c **** /*******************************************************************************
1668:Generated_Source\PSoC4/CapSense.c **** * Function Name: CapSense_ReadCurrentScanningSensor
1669:Generated_Source\PSoC4/CapSense.c **** ********************************************************************************
1670:Generated_Source\PSoC4/CapSense.c **** *
1671:Generated_Source\PSoC4/CapSense.c **** * Summary:
1672:Generated_Source\PSoC4/CapSense.c **** *  This API returns scanning sensor number when sensor scan is in progress.
1673:Generated_Source\PSoC4/CapSense.c **** *  When sensor scan is completed the API returns
1674:Generated_Source\PSoC4/CapSense.c **** *  $INSTANCE_NAME`_NOT_SENSOR (0xFFFFFFFF) (when no sensor is scanned).
1675:Generated_Source\PSoC4/CapSense.c **** *
1676:Generated_Source\PSoC4/CapSense.c **** * Parameters:
1677:Generated_Source\PSoC4/CapSense.c **** *   None.
1678:Generated_Source\PSoC4/CapSense.c **** *
1679:Generated_Source\PSoC4/CapSense.c **** * Return:
1680:Generated_Source\PSoC4/CapSense.c **** *  Returns Sensor number if sensor is being scanned and
1681:Generated_Source\PSoC4/CapSense.c **** *  $INSTANCE_NAME`_NOT_SENSOR (0xFFFFFFFF) if scanning is complete.
1682:Generated_Source\PSoC4/CapSense.c **** *
1683:Generated_Source\PSoC4/CapSense.c **** * Global Variables:
1684:Generated_Source\PSoC4/CapSense.c **** *  CapSense_sensorIndex - the sensor number is being scanned.
1685:Generated_Source\PSoC4/CapSense.c **** *
1686:Generated_Source\PSoC4/CapSense.c **** * Side Effects:
1687:Generated_Source\PSoC4/CapSense.c **** *  None
1688:Generated_Source\PSoC4/CapSense.c **** *
1689:Generated_Source\PSoC4/CapSense.c **** *******************************************************************************/
1690:Generated_Source\PSoC4/CapSense.c **** uint32 CapSense_ReadCurrentScanningSensor(void)
1691:Generated_Source\PSoC4/CapSense.c **** {
 894              		.loc 1 1691 0
 895              		.cfi_startproc
 896              		@ args = 0, pretend = 0, frame = 0
 897              		@ frame_needed = 0, uses_anonymous_args = 0
 898              		@ link register save eliminated.
1692:Generated_Source\PSoC4/CapSense.c ****     return ((uint32)(( 0u != (CapSense_csdStatusVar & CapSense_SW_STS_BUSY)) ?
 899              		.loc 1 1692 0
 900 0000 054B     		ldr	r3, .L58
 901 0002 1B78     		ldrb	r3, [r3]
 902 0004 DB07     		lsls	r3, r3, #31
 903 0006 03D5     		bpl	.L57
 904              		.loc 1 1692 0 is_stmt 0 discriminator 1
 905 0008 034B     		ldr	r3, .L58
 906 000a 987B     		ldrb	r0, [r3, #14]
 907 000c C0B2     		uxtb	r0, r0
ARM GAS  C:\Users\Zeynep\AppData\Local\Temp\ccgAGQqu.s 			page 47


 908 000e 01E0     		b	.L56
 909              	.L57:
 910              		.loc 1 1692 0
 911 0010 0120     		movs	r0, #1
 912 0012 4042     		rsbs	r0, r0, #0
 913              	.L56:
1693:Generated_Source\PSoC4/CapSense.c ****                      CapSense_sensorIndex : CapSense_NOT_SENSOR));
1694:Generated_Source\PSoC4/CapSense.c **** }
 914              		.loc 1 1694 0 is_stmt 1 discriminator 4
 915              		@ sp needed
 916 0014 7047     		bx	lr
 917              	.L59:
 918 0016 C046     		.align	2
 919              	.L58:
 920 0018 00000000 		.word	.LANCHOR0
 921              		.cfi_endproc
 922              	.LFE56:
 923              		.size	CapSense_ReadCurrentScanningSensor, .-CapSense_ReadCurrentScanningSensor
 924              		.section	.text.CapSense_GetBitValue,"ax",%progbits
 925              		.align	2
 926              		.global	CapSense_GetBitValue
 927              		.code	16
 928              		.thumb_func
 929              		.type	CapSense_GetBitValue, %function
 930              	CapSense_GetBitValue:
 931              	.LFB57:
1695:Generated_Source\PSoC4/CapSense.c **** 
1696:Generated_Source\PSoC4/CapSense.c **** 
1697:Generated_Source\PSoC4/CapSense.c **** /*******************************************************************************
1698:Generated_Source\PSoC4/CapSense.c **** * Function Name: CapSense_GetBitValue
1699:Generated_Source\PSoC4/CapSense.c **** ********************************************************************************
1700:Generated_Source\PSoC4/CapSense.c **** *
1701:Generated_Source\PSoC4/CapSense.c **** * Summary:
1702:Generated_Source\PSoC4/CapSense.c **** *  The API returns a bit status of the bit in the table array which contains the masks.
1703:Generated_Source\PSoC4/CapSense.c **** *
1704:Generated_Source\PSoC4/CapSense.c **** * Parameters:
1705:Generated_Source\PSoC4/CapSense.c **** *  table[] - array with bit masks.
1706:Generated_Source\PSoC4/CapSense.c **** *  position - position of bit in the table[] array.
1707:Generated_Source\PSoC4/CapSense.c **** *
1708:Generated_Source\PSoC4/CapSense.c **** * Return:
1709:Generated_Source\PSoC4/CapSense.c **** *  0 - bit is not set; 1 - bit is set.
1710:Generated_Source\PSoC4/CapSense.c **** *
1711:Generated_Source\PSoC4/CapSense.c **** * Global Variables:
1712:Generated_Source\PSoC4/CapSense.c **** *  None
1713:Generated_Source\PSoC4/CapSense.c **** *
1714:Generated_Source\PSoC4/CapSense.c **** * Side Effects:
1715:Generated_Source\PSoC4/CapSense.c **** *  None
1716:Generated_Source\PSoC4/CapSense.c **** *
1717:Generated_Source\PSoC4/CapSense.c **** *******************************************************************************/
1718:Generated_Source\PSoC4/CapSense.c **** uint32 CapSense_GetBitValue(const uint8 table[], uint32 position)
1719:Generated_Source\PSoC4/CapSense.c **** {
 932              		.loc 1 1719 0
 933              		.cfi_startproc
 934              		@ args = 0, pretend = 0, frame = 0
 935              		@ frame_needed = 0, uses_anonymous_args = 0
 936              		@ link register save eliminated.
 937              	.LVL105:
ARM GAS  C:\Users\Zeynep\AppData\Local\Temp\ccgAGQqu.s 			page 48


1720:Generated_Source\PSoC4/CapSense.c ****     uint32 offset;
1721:Generated_Source\PSoC4/CapSense.c ****     uint8 enMask;
1722:Generated_Source\PSoC4/CapSense.c **** 
1723:Generated_Source\PSoC4/CapSense.c ****     /* position is divided by 8 to calculate the element of the
1724:Generated_Source\PSoC4/CapSense.c ****        table[] array that contains the enable bit
1725:Generated_Source\PSoC4/CapSense.c ****        for an appropriate sensor.
1726:Generated_Source\PSoC4/CapSense.c ****     */
1727:Generated_Source\PSoC4/CapSense.c ****     offset = (position >> 3u);
 938              		.loc 1 1727 0
 939 0000 CA08     		lsrs	r2, r1, #3
 940              	.LVL106:
1728:Generated_Source\PSoC4/CapSense.c **** 
1729:Generated_Source\PSoC4/CapSense.c ****     /* The enMask calculation for the appropriate sensor. Operation (position & 0x07u)
1730:Generated_Source\PSoC4/CapSense.c ****        intends to calculate the enable bit offset for the 8-bit element of the
1731:Generated_Source\PSoC4/CapSense.c ****        table[] array.
1732:Generated_Source\PSoC4/CapSense.c ****     */
1733:Generated_Source\PSoC4/CapSense.c ****     enMask = 0x01u << (position & 0x07u);
 941              		.loc 1 1733 0
 942 0002 0723     		movs	r3, #7
 943 0004 1940     		ands	r1, r3
 944              	.LVL107:
 945 0006 063B     		subs	r3, r3, #6
 946 0008 8B40     		lsls	r3, r3, r1
 947              	.LVL108:
1734:Generated_Source\PSoC4/CapSense.c **** 
1735:Generated_Source\PSoC4/CapSense.c ****     return ((0u !=(table[offset] & enMask)) ? 1Lu : 0Lu);
 948              		.loc 1 1735 0
 949 000a 825C     		ldrb	r2, [r0, r2]
 950              	.LVL109:
 951 000c 1342     		tst	r3, r2
 952 000e 01D0     		beq	.L62
 953 0010 0120     		movs	r0, #1
 954              	.LVL110:
 955 0012 00E0     		b	.L61
 956              	.LVL111:
 957              	.L62:
 958 0014 0020     		movs	r0, #0
 959              	.LVL112:
 960              	.L61:
1736:Generated_Source\PSoC4/CapSense.c **** }
 961              		.loc 1 1736 0 discriminator 4
 962              		@ sp needed
 963 0016 7047     		bx	lr
 964              		.cfi_endproc
 965              	.LFE57:
 966              		.size	CapSense_GetBitValue, .-CapSense_GetBitValue
 967              		.section	.text.CapSense_FindNextSensor,"ax",%progbits
 968              		.align	2
 969              		.global	CapSense_FindNextSensor
 970              		.code	16
 971              		.thumb_func
 972              		.type	CapSense_FindNextSensor, %function
 973              	CapSense_FindNextSensor:
 974              	.LFB37:
 501:Generated_Source\PSoC4/CapSense.c ****     uint32 enableFlag;
 975              		.loc 1 501 0
 976              		.cfi_startproc
ARM GAS  C:\Users\Zeynep\AppData\Local\Temp\ccgAGQqu.s 			page 49


 977              		@ args = 0, pretend = 0, frame = 0
 978              		@ frame_needed = 0, uses_anonymous_args = 0
 979              	.LVL113:
 980 0000 10B5     		push	{r4, lr}
 981              		.cfi_def_cfa_offset 8
 982              		.cfi_offset 4, -8
 983              		.cfi_offset 14, -4
 984 0002 0400     		movs	r4, r0
 985              	.LVL114:
 986              	.L65:
 508:Generated_Source\PSoC4/CapSense.c ****         if(snsIndex == CapSense_TOTAL_SENSOR_COUNT)
 987              		.loc 1 508 0
 988 0004 0134     		adds	r4, r4, #1
 989              	.LVL115:
 990 0006 E4B2     		uxtb	r4, r4
 991              	.LVL116:
 509:Generated_Source\PSoC4/CapSense.c ****         {
 992              		.loc 1 509 0
 993 0008 052C     		cmp	r4, #5
 994 000a 06D0     		beq	.L64
 513:Generated_Source\PSoC4/CapSense.c ****     }
 995              		.loc 1 513 0
 996 000c 2100     		movs	r1, r4
 997 000e 0448     		ldr	r0, .L66
 998 0010 0430     		adds	r0, r0, #4
 999 0012 FFF7FEFF 		bl	CapSense_GetBitValue
 1000              	.LVL117:
 515:Generated_Source\PSoC4/CapSense.c **** 
 1001              		.loc 1 515 0
 1002 0016 0028     		cmp	r0, #0
 1003 0018 F4D0     		beq	.L65
 1004              	.LVL118:
 1005              	.L64:
 518:Generated_Source\PSoC4/CapSense.c **** 
 1006              		.loc 1 518 0
 1007 001a 2000     		movs	r0, r4
 1008              		@ sp needed
 1009              	.LVL119:
 1010 001c 10BD     		pop	{r4, pc}
 1011              	.L67:
 1012 001e C046     		.align	2
 1013              	.L66:
 1014 0020 00000000 		.word	.LANCHOR1
 1015              		.cfi_endproc
 1016              	.LFE37:
 1017              		.size	CapSense_FindNextSensor, .-CapSense_FindNextSensor
 1018              		.section	.text.CapSense_PreScan,"ax",%progbits
 1019              		.align	2
 1020              		.global	CapSense_PreScan
 1021              		.code	16
 1022              		.thumb_func
 1023              		.type	CapSense_PreScan, %function
 1024              	CapSense_PreScan:
 1025              	.LFB52:
1330:Generated_Source\PSoC4/CapSense.c ****     uint8 widget;
 1026              		.loc 1 1330 0
 1027              		.cfi_startproc
ARM GAS  C:\Users\Zeynep\AppData\Local\Temp\ccgAGQqu.s 			page 50


 1028              		@ args = 0, pretend = 0, frame = 0
 1029              		@ frame_needed = 0, uses_anonymous_args = 0
 1030              	.LVL120:
 1031 0000 F8B5     		push	{r3, r4, r5, r6, r7, lr}
 1032              		.cfi_def_cfa_offset 24
 1033              		.cfi_offset 3, -24
 1034              		.cfi_offset 4, -20
 1035              		.cfi_offset 5, -16
 1036              		.cfi_offset 6, -12
 1037              		.cfi_offset 7, -8
 1038              		.cfi_offset 14, -4
 1039 0002 0400     		movs	r4, r0
1348:Generated_Source\PSoC4/CapSense.c **** 
 1040              		.loc 1 1348 0
 1041 0004 234B     		ldr	r3, .L70
 1042 0006 1B18     		adds	r3, r3, r0
 1043 0008 4C22     		movs	r2, #76
 1044 000a 9B5C     		ldrb	r3, [r3, r2]
 1045              	.LVL121:
1351:Generated_Source\PSoC4/CapSense.c **** 
 1046              		.loc 1 1351 0
 1047 000c 9B00     		lsls	r3, r3, #2
 1048              	.LVL122:
 1049 000e 224A     		ldr	r2, .L70+4
 1050              	.LVL123:
 1051 0010 9E58     		ldr	r6, [r3, r2]
 1052              	.LVL124:
1355:Generated_Source\PSoC4/CapSense.c **** 
 1053              		.loc 1 1355 0
 1054 0012 0100     		movs	r1, r0
 1055 0014 2148     		ldr	r0, .L70+8
 1056              	.LVL125:
 1057 0016 FFF7FEFF 		bl	CapSense_GetBitValue
 1058              	.LVL126:
1357:Generated_Source\PSoC4/CapSense.c ****         {
 1059              		.loc 1 1357 0
 1060 001a 214B     		ldr	r3, .L70+12
 1061 001c 9E42     		cmp	r6, r3
 1062 001e 03D8     		bhi	.L69
1359:Generated_Source\PSoC4/CapSense.c ****             counterResolution |= (uint32)(CapSense_RESOLUTION_8_BITS);
 1063              		.loc 1 1359 0
 1064 0020 8640     		lsls	r6, r6, r0
 1065              	.LVL127:
1360:Generated_Source\PSoC4/CapSense.c ****         }
 1066              		.loc 1 1360 0
 1067 0022 FF23     		movs	r3, #255
 1068 0024 1B04     		lsls	r3, r3, #16
 1069 0026 1E43     		orrs	r6, r3
 1070              	.LVL128:
 1071              	.L69:
1371:Generated_Source\PSoC4/CapSense.c ****         CapSense_SenseClk_SetDividerValue((uint16)CapSense_senseClkDividerVal[sensor]);
 1072              		.loc 1 1371 0
 1073 0028 1E4B     		ldr	r3, .L70+16
 1074 002a 185D     		ldrb	r0, [r3, r4]
 1075              	.LVL129:
 1076 002c 0138     		subs	r0, r0, #1
 1077 002e 80B2     		uxth	r0, r0
ARM GAS  C:\Users\Zeynep\AppData\Local\Temp\ccgAGQqu.s 			page 51


 1078 0030 0021     		movs	r1, #0
 1079 0032 FFF7FEFF 		bl	CapSense_SampleClk_SetFractionalDividerRegister
 1080              	.LVL130:
1372:Generated_Source\PSoC4/CapSense.c ****     #else
 1081              		.loc 1 1372 0
 1082 0036 1C4B     		ldr	r3, .L70+20
 1083 0038 185D     		ldrb	r0, [r3, r4]
 1084 003a 0138     		subs	r0, r0, #1
 1085 003c 80B2     		uxth	r0, r0
 1086 003e 0021     		movs	r1, #0
 1087 0040 FFF7FEFF 		bl	CapSense_SenseClk_SetFractionalDividerRegister
 1088              	.LVL131:
1441:Generated_Source\PSoC4/CapSense.c ****     newRegValue = CapSense_CSD_IDAC_REG;
 1089              		.loc 1 1441 0
 1090 0044 0F20     		movs	r0, #15
 1091 0046 FFF7FEFF 		bl	CyIntDisable
 1092              	.LVL132:
1442:Generated_Source\PSoC4/CapSense.c **** 
 1093              		.loc 1 1442 0
 1094 004a 1848     		ldr	r0, .L70+24
 1095 004c 0168     		ldr	r1, [r0]
 1096              	.LVL133:
1448:Generated_Source\PSoC4/CapSense.c ****     newRegValue |= (CapSense_modulationIDAC[sensor] |
 1097              		.loc 1 1448 0
 1098 004e 184B     		ldr	r3, .L70+28
 1099 0050 1940     		ands	r1, r3
 1100              	.LVL134:
1449:Generated_Source\PSoC4/CapSense.c ****                             (uint32)((uint32)CapSense_compensationIDAC[sensor] <<
 1101              		.loc 1 1449 0
 1102 0052 184B     		ldr	r3, .L70+32
 1103 0054 1B5D     		ldrb	r3, [r3, r4]
1450:Generated_Source\PSoC4/CapSense.c ****                             CapSense_CSD_IDAC2_DATA_OFFSET));
 1104              		.loc 1 1450 0
 1105 0056 184A     		ldr	r2, .L70+36
 1106 0058 125D     		ldrb	r2, [r2, r4]
 1107 005a 1204     		lsls	r2, r2, #16
1449:Generated_Source\PSoC4/CapSense.c ****                             (uint32)((uint32)CapSense_compensationIDAC[sensor] <<
 1108              		.loc 1 1449 0
 1109 005c 1343     		orrs	r3, r2
 1110 005e 0B43     		orrs	r3, r1
 1111              	.LVL135:
1454:Generated_Source\PSoC4/CapSense.c **** 
 1112              		.loc 1 1454 0
 1113 0060 0360     		str	r3, [r0]
1469:Generated_Source\PSoC4/CapSense.c ****     newRegValue &= ~(CapSense_PRECHARGE_CONFIG_MASK);
 1114              		.loc 1 1469 0
 1115 0062 164F     		ldr	r7, .L70+40
 1116 0064 3D68     		ldr	r5, [r7]
 1117              	.LVL136:
1470:Generated_Source\PSoC4/CapSense.c ****     newRegValue |= CapSense_CTANK_PRECHARGE_CONFIG;
 1118              		.loc 1 1470 0
 1119 0066 164B     		ldr	r3, .L70+44
 1120 0068 1D40     		ands	r5, r3
 1121              	.LVL137:
1471:Generated_Source\PSoC4/CapSense.c **** 
 1122              		.loc 1 1471 0
 1123 006a 164B     		ldr	r3, .L70+48
ARM GAS  C:\Users\Zeynep\AppData\Local\Temp\ccgAGQqu.s 			page 52


 1124 006c 1D43     		orrs	r5, r3
 1125              	.LVL138:
1473:Generated_Source\PSoC4/CapSense.c **** 
 1126              		.loc 1 1473 0
 1127 006e 0F20     		movs	r0, #15
 1128 0070 FFF7FEFF 		bl	CyIntEnable
 1129              	.LVL139:
1476:Generated_Source\PSoC4/CapSense.c **** 
 1130              		.loc 1 1476 0
 1131 0074 2000     		movs	r0, r4
 1132 0076 FFF7FEFF 		bl	CapSense_EnableSensor
 1133              	.LVL140:
1478:Generated_Source\PSoC4/CapSense.c ****     CapSense_CSD_CFG_REG = newRegValue;
 1134              		.loc 1 1478 0
 1135 007a FFF7FEFF 		bl	CyEnterCriticalSection
 1136              	.LVL141:
 1137 007e 0400     		movs	r4, r0
 1138              	.LVL142:
1479:Generated_Source\PSoC4/CapSense.c **** 
 1139              		.loc 1 1479 0
 1140 0080 3D60     		str	r5, [r7]
1489:Generated_Source\PSoC4/CapSense.c **** 
 1141              		.loc 1 1489 0
 1142 0082 0020     		movs	r0, #0
 1143 0084 FFF7FEFF 		bl	CyDelayCycles
 1144              	.LVL143:
1499:Generated_Source\PSoC4/CapSense.c ****     CyExitCriticalSection(interruptState);
 1145              		.loc 1 1499 0
 1146 0088 0F4B     		ldr	r3, .L70+52
 1147 008a 1E60     		str	r6, [r3]
1500:Generated_Source\PSoC4/CapSense.c **** }
 1148              		.loc 1 1500 0
 1149 008c 2000     		movs	r0, r4
 1150 008e FFF7FEFF 		bl	CyExitCriticalSection
 1151              	.LVL144:
1501:Generated_Source\PSoC4/CapSense.c **** 
 1152              		.loc 1 1501 0
 1153              		@ sp needed
 1154              	.LVL145:
 1155              	.LVL146:
 1156              	.LVL147:
 1157 0092 F8BD     		pop	{r3, r4, r5, r6, r7, pc}
 1158              	.L71:
 1159              		.align	2
 1160              	.L70:
 1161 0094 00000000 		.word	.LANCHOR2
 1162 0098 00000000 		.word	.LANCHOR1
 1163 009c 00000000 		.word	CapSense_scanSpeedTbl
 1164 00a0 FFFFFEFF 		.word	-65537
 1165 00a4 00000000 		.word	CapSense_sampleClkDividerVal
 1166 00a8 00000000 		.word	CapSense_senseClkDividerVal
 1167 00ac 08000840 		.word	1074266120
 1168 00b0 00FF80FF 		.word	-8323328
 1169 00b4 00000000 		.word	CapSense_modulationIDAC
 1170 00b8 00000000 		.word	CapSense_compensationIDAC
 1171 00bc 04000840 		.word	1074266116
 1172 00c0 FF1FDFFF 		.word	-2154497
ARM GAS  C:\Users\Zeynep\AppData\Local\Temp\ccgAGQqu.s 			page 53


 1173 00c4 20002000 		.word	2097184
 1174 00c8 0C000840 		.word	1074266124
 1175              		.cfi_endproc
 1176              	.LFE52:
 1177              		.size	CapSense_PreScan, .-CapSense_PreScan
 1178              		.section	.text.CapSense_ScanSensor,"ax",%progbits
 1179              		.align	2
 1180              		.global	CapSense_ScanSensor
 1181              		.code	16
 1182              		.thumb_func
 1183              		.type	CapSense_ScanSensor, %function
 1184              	CapSense_ScanSensor:
 1185              	.LFB38:
 549:Generated_Source\PSoC4/CapSense.c ****     /* Clears status/control variable and set sensorIndex */
 1186              		.loc 1 549 0
 1187              		.cfi_startproc
 1188              		@ args = 0, pretend = 0, frame = 0
 1189              		@ frame_needed = 0, uses_anonymous_args = 0
 1190              	.LVL148:
 1191 0000 10B5     		push	{r4, lr}
 1192              		.cfi_def_cfa_offset 8
 1193              		.cfi_offset 4, -8
 1194              		.cfi_offset 14, -4
 551:Generated_Source\PSoC4/CapSense.c ****     CapSense_sensorIndex = (uint8)sensor;
 1195              		.loc 1 551 0
 1196 0002 054B     		ldr	r3, .L73
 1197 0004 0022     		movs	r2, #0
 1198 0006 1A70     		strb	r2, [r3]
 552:Generated_Source\PSoC4/CapSense.c **** 
 1199              		.loc 1 552 0
 1200 0008 C2B2     		uxtb	r2, r0
 1201 000a 9A73     		strb	r2, [r3, #14]
 555:Generated_Source\PSoC4/CapSense.c ****     CapSense_PreScan(sensor);
 1202              		.loc 1 555 0
 1203 000c 8122     		movs	r2, #129
 1204 000e 1A70     		strb	r2, [r3]
 556:Generated_Source\PSoC4/CapSense.c **** }
 1205              		.loc 1 556 0
 1206 0010 FFF7FEFF 		bl	CapSense_PreScan
 1207              	.LVL149:
 557:Generated_Source\PSoC4/CapSense.c **** 
 1208              		.loc 1 557 0
 1209              		@ sp needed
 1210 0014 10BD     		pop	{r4, pc}
 1211              	.L74:
 1212 0016 C046     		.align	2
 1213              	.L73:
 1214 0018 00000000 		.word	.LANCHOR0
 1215              		.cfi_endproc
 1216              	.LFE38:
 1217              		.size	CapSense_ScanSensor, .-CapSense_ScanSensor
 1218              		.section	.text.CapSense_ScanEnabledWidgets,"ax",%progbits
 1219              		.align	2
 1220              		.global	CapSense_ScanEnabledWidgets
 1221              		.code	16
 1222              		.thumb_func
 1223              		.type	CapSense_ScanEnabledWidgets, %function
ARM GAS  C:\Users\Zeynep\AppData\Local\Temp\ccgAGQqu.s 			page 54


 1224              	CapSense_ScanEnabledWidgets:
 1225              	.LFB40:
 673:Generated_Source\PSoC4/CapSense.c ****     /* Clears status/control variable and set sensorIndex */
 1226              		.loc 1 673 0
 1227              		.cfi_startproc
 1228              		@ args = 0, pretend = 0, frame = 0
 1229              		@ frame_needed = 0, uses_anonymous_args = 0
 1230 0000 10B5     		push	{r4, lr}
 1231              		.cfi_def_cfa_offset 8
 1232              		.cfi_offset 4, -8
 1233              		.cfi_offset 14, -4
 675:Generated_Source\PSoC4/CapSense.c ****     CapSense_sensorIndex = 0xFFu;
 1234              		.loc 1 675 0
 1235 0002 0C4C     		ldr	r4, .L77
 1236 0004 0023     		movs	r3, #0
 1237 0006 2370     		strb	r3, [r4]
 676:Generated_Source\PSoC4/CapSense.c **** 
 1238              		.loc 1 676 0
 1239 0008 FF33     		adds	r3, r3, #255
 1240 000a A373     		strb	r3, [r4, #14]
 679:Generated_Source\PSoC4/CapSense.c **** 
 1241              		.loc 1 679 0
 1242 000c A07B     		ldrb	r0, [r4, #14]
 1243 000e C0B2     		uxtb	r0, r0
 1244 0010 FFF7FEFF 		bl	CapSense_FindNextSensor
 1245              	.LVL150:
 1246 0014 A073     		strb	r0, [r4, #14]
 682:Generated_Source\PSoC4/CapSense.c ****     {
 1247              		.loc 1 682 0
 1248 0016 A37B     		ldrb	r3, [r4, #14]
 1249 0018 DBB2     		uxtb	r3, r3
 1250 001a 042B     		cmp	r3, #4
 1251 001c 08D8     		bhi	.L75
 684:Generated_Source\PSoC4/CapSense.c ****         CapSense_PreScan((uint32)CapSense_sensorIndex);
 1252              		.loc 1 684 0
 1253 001e 2178     		ldrb	r1, [r4]
 1254 0020 0123     		movs	r3, #1
 1255 0022 0B43     		orrs	r3, r1
 1256 0024 DBB2     		uxtb	r3, r3
 1257 0026 2370     		strb	r3, [r4]
 685:Generated_Source\PSoC4/CapSense.c ****     }
 1258              		.loc 1 685 0
 1259 0028 A07B     		ldrb	r0, [r4, #14]
 1260 002a C0B2     		uxtb	r0, r0
 1261 002c FFF7FEFF 		bl	CapSense_PreScan
 1262              	.LVL151:
 1263              	.L75:
 687:Generated_Source\PSoC4/CapSense.c **** 
 1264              		.loc 1 687 0
 1265              		@ sp needed
 1266 0030 10BD     		pop	{r4, pc}
 1267              	.L78:
 1268 0032 C046     		.align	2
 1269              	.L77:
 1270 0034 00000000 		.word	.LANCHOR0
 1271              		.cfi_endproc
 1272              	.LFE40:
ARM GAS  C:\Users\Zeynep\AppData\Local\Temp\ccgAGQqu.s 			page 55


 1273              		.size	CapSense_ScanEnabledWidgets, .-CapSense_ScanEnabledWidgets
 1274              		.section	.text.CapSense_PostScan,"ax",%progbits
 1275              		.align	2
 1276              		.global	CapSense_PostScan
 1277              		.code	16
 1278              		.thumb_func
 1279              		.type	CapSense_PostScan, %function
 1280              	CapSense_PostScan:
 1281              	.LFB53:
1527:Generated_Source\PSoC4/CapSense.c ****     uint32 newRegValue;
 1282              		.loc 1 1527 0
 1283              		.cfi_startproc
 1284              		@ args = 0, pretend = 0, frame = 0
 1285              		@ frame_needed = 0, uses_anonymous_args = 0
 1286              	.LVL152:
 1287 0000 70B5     		push	{r4, r5, r6, lr}
 1288              		.cfi_def_cfa_offset 16
 1289              		.cfi_offset 4, -16
 1290              		.cfi_offset 5, -12
 1291              		.cfi_offset 6, -8
 1292              		.cfi_offset 14, -4
 1293 0002 0500     		movs	r5, r0
1545:Generated_Source\PSoC4/CapSense.c **** 
 1294              		.loc 1 1545 0
 1295 0004 184B     		ldr	r3, .L81
 1296 0006 1C68     		ldr	r4, [r3]
 1297 0008 A4B2     		uxth	r4, r4
 1298 000a 4300     		lsls	r3, r0, #1
 1299 000c 174A     		ldr	r2, .L81+4
 1300 000e D318     		adds	r3, r2, r3
 1301 0010 9C80     		strh	r4, [r3, #4]
1549:Generated_Source\PSoC4/CapSense.c ****     if(CapSense_widgetResolution[widget] < CapSense_RESOLUTION_16_BITS)
 1302              		.loc 1 1549 0
 1303 0012 174B     		ldr	r3, .L81+8
 1304 0014 1B18     		adds	r3, r3, r0
 1305 0016 4C22     		movs	r2, #76
 1306 0018 9B5C     		ldrb	r3, [r3, r2]
 1307              	.LVL153:
1550:Generated_Source\PSoC4/CapSense.c ****     {
 1308              		.loc 1 1550 0
 1309 001a 9B00     		lsls	r3, r3, #2
 1310              	.LVL154:
 1311 001c 154A     		ldr	r2, .L81+12
 1312              	.LVL155:
 1313 001e 9A58     		ldr	r2, [r3, r2]
 1314 0020 154B     		ldr	r3, .L81+16
 1315 0022 9A42     		cmp	r2, r3
 1316 0024 08D8     		bhi	.L80
1552:Generated_Source\PSoC4/CapSense.c ****         CapSense_sensorRaw[sensor] >>= oversamplingFactor;
 1317              		.loc 1 1552 0
 1318 0026 0100     		movs	r1, r0
 1319 0028 1448     		ldr	r0, .L81+20
 1320              	.LVL156:
 1321 002a FFF7FEFF 		bl	CapSense_GetBitValue
 1322              	.LVL157:
1553:Generated_Source\PSoC4/CapSense.c ****     }
 1323              		.loc 1 1553 0
ARM GAS  C:\Users\Zeynep\AppData\Local\Temp\ccgAGQqu.s 			page 56


 1324 002e 6B00     		lsls	r3, r5, #1
 1325 0030 0E4A     		ldr	r2, .L81+4
 1326 0032 D318     		adds	r3, r2, r3
 1327 0034 0441     		asrs	r4, r4, r0
 1328 0036 9C80     		strh	r4, [r3, #4]
 1329              	.LVL158:
 1330              	.L80:
1559:Generated_Source\PSoC4/CapSense.c **** 
 1331              		.loc 1 1559 0
 1332 0038 2800     		movs	r0, r5
 1333 003a FFF7FEFF 		bl	CapSense_DisableSensor
 1334              	.LVL159:
1561:Generated_Source\PSoC4/CapSense.c **** 
 1335              		.loc 1 1561 0
 1336 003e 0F20     		movs	r0, #15
 1337 0040 FFF7FEFF 		bl	CyIntDisable
 1338              	.LVL160:
1581:Generated_Source\PSoC4/CapSense.c ****     newRegValue &= ~(CapSense_PRECHARGE_CONFIG_MASK);
 1339              		.loc 1 1581 0
 1340 0044 0E4A     		ldr	r2, .L81+24
 1341 0046 1168     		ldr	r1, [r2]
 1342              	.LVL161:
1582:Generated_Source\PSoC4/CapSense.c ****     newRegValue |= CapSense_CMOD_PRECHARGE_CONFIG;
 1343              		.loc 1 1582 0
 1344 0048 0E4B     		ldr	r3, .L81+28
 1345 004a 0B40     		ands	r3, r1
 1346              	.LVL162:
1583:Generated_Source\PSoC4/CapSense.c ****     CapSense_CSD_CFG_REG = newRegValue;
 1347              		.loc 1 1583 0
 1348 004c A021     		movs	r1, #160
 1349 004e 0902     		lsls	r1, r1, #8
 1350 0050 0B43     		orrs	r3, r1
 1351              	.LVL163:
1584:Generated_Source\PSoC4/CapSense.c **** 
 1352              		.loc 1 1584 0
 1353 0052 1360     		str	r3, [r2]
1590:Generated_Source\PSoC4/CapSense.c **** #endif /* (CapSense_IDAC_CNT == 1u) */
 1354              		.loc 1 1590 0
 1355 0054 0C4A     		ldr	r2, .L81+32
 1356 0056 1168     		ldr	r1, [r2]
 1357 0058 0C4B     		ldr	r3, .L81+36
 1358              	.LVL164:
 1359 005a 0B40     		ands	r3, r1
 1360 005c 1360     		str	r3, [r2]
 1361              	.LVL165:
1593:Generated_Source\PSoC4/CapSense.c **** }
 1362              		.loc 1 1593 0
 1363 005e 0F20     		movs	r0, #15
 1364 0060 FFF7FEFF 		bl	CyIntEnable
 1365              	.LVL166:
1594:Generated_Source\PSoC4/CapSense.c **** 
 1366              		.loc 1 1594 0
 1367              		@ sp needed
 1368              	.LVL167:
 1369 0064 70BD     		pop	{r4, r5, r6, pc}
 1370              	.L82:
 1371 0066 C046     		.align	2
ARM GAS  C:\Users\Zeynep\AppData\Local\Temp\ccgAGQqu.s 			page 57


 1372              	.L81:
 1373 0068 0C000840 		.word	1074266124
 1374 006c 00000000 		.word	.LANCHOR0
 1375 0070 00000000 		.word	.LANCHOR2
 1376 0074 00000000 		.word	.LANCHOR1
 1377 0078 FFFFFEFF 		.word	-65537
 1378 007c 00000000 		.word	CapSense_scanSpeedTbl
 1379 0080 04000840 		.word	1074266116
 1380 0084 FF1FDFFF 		.word	-2154497
 1381 0088 08000840 		.word	1074266120
 1382 008c 00FF80FF 		.word	-8323328
 1383              		.cfi_endproc
 1384              	.LFE53:
 1385              		.size	CapSense_PostScan, .-CapSense_PostScan
 1386              		.section	.text.CapSense_SetBitValue,"ax",%progbits
 1387              		.align	2
 1388              		.global	CapSense_SetBitValue
 1389              		.code	16
 1390              		.thumb_func
 1391              		.type	CapSense_SetBitValue, %function
 1392              	CapSense_SetBitValue:
 1393              	.LFB58:
1737:Generated_Source\PSoC4/CapSense.c **** 
1738:Generated_Source\PSoC4/CapSense.c **** 
1739:Generated_Source\PSoC4/CapSense.c **** /*******************************************************************************
1740:Generated_Source\PSoC4/CapSense.c **** * Function Name: CapSense_SetBitValue
1741:Generated_Source\PSoC4/CapSense.c **** ********************************************************************************
1742:Generated_Source\PSoC4/CapSense.c **** *
1743:Generated_Source\PSoC4/CapSense.c **** * Summary:
1744:Generated_Source\PSoC4/CapSense.c **** *  The API sets a bit status of the bit in the table array which contains masks.
1745:Generated_Source\PSoC4/CapSense.c **** *
1746:Generated_Source\PSoC4/CapSense.c **** * Parameters:
1747:Generated_Source\PSoC4/CapSense.c **** *  table[] - array with bit masks.
1748:Generated_Source\PSoC4/CapSense.c **** *  position - position of bit in the table[] array.
1749:Generated_Source\PSoC4/CapSense.c **** *  value: 0 - bit is not set; 1 - bit is set.
1750:Generated_Source\PSoC4/CapSense.c **** *
1751:Generated_Source\PSoC4/CapSense.c **** * Return:
1752:Generated_Source\PSoC4/CapSense.c **** *  None
1753:Generated_Source\PSoC4/CapSense.c **** *
1754:Generated_Source\PSoC4/CapSense.c **** * Global Variables:
1755:Generated_Source\PSoC4/CapSense.c **** *  None
1756:Generated_Source\PSoC4/CapSense.c **** *
1757:Generated_Source\PSoC4/CapSense.c **** * Side Effects:
1758:Generated_Source\PSoC4/CapSense.c **** *  None
1759:Generated_Source\PSoC4/CapSense.c **** *
1760:Generated_Source\PSoC4/CapSense.c **** *******************************************************************************/
1761:Generated_Source\PSoC4/CapSense.c **** void CapSense_SetBitValue(uint8 table[], uint32 position, uint32 value)
1762:Generated_Source\PSoC4/CapSense.c **** {
 1394              		.loc 1 1762 0
 1395              		.cfi_startproc
 1396              		@ args = 0, pretend = 0, frame = 0
 1397              		@ frame_needed = 0, uses_anonymous_args = 0
 1398              	.LVL168:
 1399 0000 10B5     		push	{r4, lr}
 1400              		.cfi_def_cfa_offset 8
 1401              		.cfi_offset 4, -8
 1402              		.cfi_offset 14, -4
ARM GAS  C:\Users\Zeynep\AppData\Local\Temp\ccgAGQqu.s 			page 58


1763:Generated_Source\PSoC4/CapSense.c ****     uint32 offset;
1764:Generated_Source\PSoC4/CapSense.c ****     uint8 enMask;
1765:Generated_Source\PSoC4/CapSense.c **** 
1766:Generated_Source\PSoC4/CapSense.c ****     /* position is divided by 8 to calculate the element of the
1767:Generated_Source\PSoC4/CapSense.c ****        table[] array that contains the enable bit
1768:Generated_Source\PSoC4/CapSense.c ****        for an appropriate sensor.
1769:Generated_Source\PSoC4/CapSense.c ****     */
1770:Generated_Source\PSoC4/CapSense.c ****     offset = (position >> 3u);
 1403              		.loc 1 1770 0
 1404 0002 CC08     		lsrs	r4, r1, #3
 1405              	.LVL169:
1771:Generated_Source\PSoC4/CapSense.c **** 
1772:Generated_Source\PSoC4/CapSense.c ****     /* The enMask calculation for the appropriate sensor. Operation (position & 0x07u)
1773:Generated_Source\PSoC4/CapSense.c ****        intends to calculate the enable bit offset for the 8-bit element of the
1774:Generated_Source\PSoC4/CapSense.c ****        table[] array.
1775:Generated_Source\PSoC4/CapSense.c ****     */
1776:Generated_Source\PSoC4/CapSense.c ****     enMask = 0x01u << (position & 0x07u);
 1406              		.loc 1 1776 0
 1407 0004 0723     		movs	r3, #7
 1408 0006 1940     		ands	r1, r3
 1409              	.LVL170:
 1410 0008 063B     		subs	r3, r3, #6
 1411 000a 8B40     		lsls	r3, r3, r1
 1412 000c DBB2     		uxtb	r3, r3
 1413              	.LVL171:
1777:Generated_Source\PSoC4/CapSense.c **** 
1778:Generated_Source\PSoC4/CapSense.c ****     if(0u != value)
 1414              		.loc 1 1778 0
 1415 000e 002A     		cmp	r2, #0
 1416 0010 04D0     		beq	.L84
1779:Generated_Source\PSoC4/CapSense.c ****     {
1780:Generated_Source\PSoC4/CapSense.c ****         table[offset] |= enMask;
 1417              		.loc 1 1780 0
 1418 0012 0419     		adds	r4, r0, r4
 1419              	.LVL172:
 1420 0014 2278     		ldrb	r2, [r4]
 1421              	.LVL173:
 1422 0016 1343     		orrs	r3, r2
 1423              	.LVL174:
 1424 0018 2370     		strb	r3, [r4]
 1425 001a 03E0     		b	.L83
 1426              	.LVL175:
 1427              	.L84:
1781:Generated_Source\PSoC4/CapSense.c ****     }
1782:Generated_Source\PSoC4/CapSense.c ****     else
1783:Generated_Source\PSoC4/CapSense.c ****     {
1784:Generated_Source\PSoC4/CapSense.c ****         table[offset] &= (uint8)~(enMask);
 1428              		.loc 1 1784 0
 1429 001c 0419     		adds	r4, r0, r4
 1430              	.LVL176:
 1431 001e 2278     		ldrb	r2, [r4]
 1432              	.LVL177:
 1433 0020 9A43     		bics	r2, r3
 1434 0022 2270     		strb	r2, [r4]
 1435              	.LVL178:
 1436              	.L83:
1785:Generated_Source\PSoC4/CapSense.c ****     }
ARM GAS  C:\Users\Zeynep\AppData\Local\Temp\ccgAGQqu.s 			page 59


1786:Generated_Source\PSoC4/CapSense.c **** }
 1437              		.loc 1 1786 0
 1438              		@ sp needed
 1439 0024 10BD     		pop	{r4, pc}
 1440              		.cfi_endproc
 1441              	.LFE58:
 1442              		.size	CapSense_SetBitValue, .-CapSense_SetBitValue
 1443 0026 C046     		.section	.text.CapSense_ScanWidget,"ax",%progbits
 1444              		.align	2
 1445              		.global	CapSense_ScanWidget
 1446              		.code	16
 1447              		.thumb_func
 1448              		.type	CapSense_ScanWidget, %function
 1449              	CapSense_ScanWidget:
 1450              	.LFB39:
 588:Generated_Source\PSoC4/CapSense.c ****     uint32 sensorsPerWidget;
 1451              		.loc 1 588 0
 1452              		.cfi_startproc
 1453              		@ args = 0, pretend = 0, frame = 0
 1454              		@ frame_needed = 0, uses_anonymous_args = 0
 1455              	.LVL179:
 1456 0000 70B5     		push	{r4, r5, r6, lr}
 1457              		.cfi_def_cfa_offset 16
 1458              		.cfi_offset 4, -16
 1459              		.cfi_offset 5, -12
 1460              		.cfi_offset 6, -8
 1461              		.cfi_offset 14, -4
 594:Generated_Source\PSoC4/CapSense.c **** 
 1462              		.loc 1 594 0
 1463 0002 1D4B     		ldr	r3, .L96
 1464 0004 1B5C     		ldrb	r3, [r3, r0]
 1465 0006 1D4A     		ldr	r2, .L96+4
 1466 0008 9373     		strb	r3, [r2, #14]
 597:Generated_Source\PSoC4/CapSense.c **** 
 1467              		.loc 1 597 0
 1468 000a 1D4A     		ldr	r2, .L96+8
 1469 000c 155C     		ldrb	r5, [r2, r0]
 1470              	.LVL180:
 600:Generated_Source\PSoC4/CapSense.c ****     {
 1471              		.loc 1 600 0
 1472 000e 002D     		cmp	r5, #0
 1473 0010 00D1     		bne	.L87
 602:Generated_Source\PSoC4/CapSense.c ****     }
 1474              		.loc 1 602 0
 1475 0012 0135     		adds	r5, r5, #1
 1476              	.LVL181:
 1477              	.L87:
 606:Generated_Source\PSoC4/CapSense.c **** 
 1478              		.loc 1 606 0
 1479 0014 5D19     		adds	r5, r3, r5
 1480              	.LVL182:
 1481 0016 013D     		subs	r5, r5, #1
 1482              	.LVL183:
 609:Generated_Source\PSoC4/CapSense.c ****     {
 1483              		.loc 1 609 0
 1484 0018 0023     		movs	r3, #0
 1485 001a 05E0     		b	.L88
ARM GAS  C:\Users\Zeynep\AppData\Local\Temp\ccgAGQqu.s 			page 60


 1486              	.LVL184:
 1487              	.L89:
 612:Generated_Source\PSoC4/CapSense.c ****     }
 1488              		.loc 1 612 0 discriminator 3
 1489 001c 194A     		ldr	r2, .L96+12
 1490 001e D218     		adds	r2, r2, r3
 1491 0020 1179     		ldrb	r1, [r2, #4]
 1492 0022 194A     		ldr	r2, .L96+16
 1493 0024 D154     		strb	r1, [r2, r3]
 609:Generated_Source\PSoC4/CapSense.c ****     {
 1494              		.loc 1 609 0 discriminator 3
 1495 0026 0133     		adds	r3, r3, #1
 1496              	.LVL185:
 1497              	.L88:
 609:Generated_Source\PSoC4/CapSense.c ****     {
 1498              		.loc 1 609 0 is_stmt 0 discriminator 1
 1499 0028 002B     		cmp	r3, #0
 1500 002a F7D0     		beq	.L89
 1501 002c 0024     		movs	r4, #0
 1502 002e 14E0     		b	.L90
 1503              	.LVL186:
 1504              	.L93:
 619:Generated_Source\PSoC4/CapSense.c ****         {
 1505              		.loc 1 619 0 is_stmt 1
 1506 0030 124B     		ldr	r3, .L96+4
 1507 0032 9B7B     		ldrb	r3, [r3, #14]
 1508 0034 DBB2     		uxtb	r3, r3
 1509 0036 9C42     		cmp	r4, r3
 1510 0038 08D3     		bcc	.L91
 619:Generated_Source\PSoC4/CapSense.c ****         {
 1511              		.loc 1 619 0 is_stmt 0 discriminator 1
 1512 003a AC42     		cmp	r4, r5
 1513 003c 06D8     		bhi	.L91
 622:Generated_Source\PSoC4/CapSense.c ****         }
 1514              		.loc 1 622 0 is_stmt 1
 1515 003e 0122     		movs	r2, #1
 1516 0040 2100     		movs	r1, r4
 1517 0042 1048     		ldr	r0, .L96+12
 1518 0044 0430     		adds	r0, r0, #4
 1519 0046 FFF7FEFF 		bl	CapSense_SetBitValue
 1520              	.LVL187:
 1521 004a 05E0     		b	.L92
 1522              	.L91:
 627:Generated_Source\PSoC4/CapSense.c ****         }
 1523              		.loc 1 627 0
 1524 004c 0022     		movs	r2, #0
 1525 004e 2100     		movs	r1, r4
 1526 0050 0C48     		ldr	r0, .L96+12
 1527 0052 0430     		adds	r0, r0, #4
 1528 0054 FFF7FEFF 		bl	CapSense_SetBitValue
 1529              	.LVL188:
 1530              	.L92:
 616:Generated_Source\PSoC4/CapSense.c ****     {
 1531              		.loc 1 616 0 discriminator 2
 1532 0058 0134     		adds	r4, r4, #1
 1533              	.LVL189:
 1534              	.L90:
ARM GAS  C:\Users\Zeynep\AppData\Local\Temp\ccgAGQqu.s 			page 61


 616:Generated_Source\PSoC4/CapSense.c ****     {
 1535              		.loc 1 616 0 is_stmt 0 discriminator 1
 1536 005a 042C     		cmp	r4, #4
 1537 005c E8D9     		bls	.L93
 632:Generated_Source\PSoC4/CapSense.c ****     {
 1538              		.loc 1 632 0 is_stmt 1
 1539 005e 074B     		ldr	r3, .L96+4
 1540 0060 9B7B     		ldrb	r3, [r3, #14]
 1541 0062 DBB2     		uxtb	r3, r3
 1542 0064 042B     		cmp	r3, #4
 1543 0066 06D8     		bhi	.L86
 635:Generated_Source\PSoC4/CapSense.c ****         /* Scan first sensor of widget*/
 1544              		.loc 1 635 0
 1545 0068 044B     		ldr	r3, .L96+4
 1546 006a 4122     		movs	r2, #65
 1547 006c 1A70     		strb	r2, [r3]
 637:Generated_Source\PSoC4/CapSense.c ****     }
 1548              		.loc 1 637 0
 1549 006e 987B     		ldrb	r0, [r3, #14]
 1550 0070 C0B2     		uxtb	r0, r0
 1551 0072 FFF7FEFF 		bl	CapSense_PreScan
 1552              	.LVL190:
 1553              	.L86:
 639:Generated_Source\PSoC4/CapSense.c **** #endif /* (0u != CapSense_CSHL_API_GENERATE) */
 1554              		.loc 1 639 0
 1555              		@ sp needed
 1556              	.LVL191:
 1557              	.LVL192:
 1558 0076 70BD     		pop	{r4, r5, r6, pc}
 1559              	.L97:
 1560              		.align	2
 1561              	.L96:
 1562 0078 00000000 		.word	CapSense_rawDataIndex
 1563 007c 00000000 		.word	.LANCHOR0
 1564 0080 00000000 		.word	CapSense_numberOfSensors
 1565 0084 00000000 		.word	.LANCHOR1
 1566 0088 00000000 		.word	CapSense_sensorEnableMaskBackup
 1567              		.cfi_endproc
 1568              	.LFE39:
 1569              		.size	CapSense_ScanWidget, .-CapSense_ScanWidget
 1570              		.section	.text.CapSense_GetSenseClkDivider,"ax",%progbits
 1571              		.align	2
 1572              		.global	CapSense_GetSenseClkDivider
 1573              		.code	16
 1574              		.thumb_func
 1575              		.type	CapSense_GetSenseClkDivider, %function
 1576              	CapSense_GetSenseClkDivider:
 1577              	.LFB59:
1787:Generated_Source\PSoC4/CapSense.c **** 
1788:Generated_Source\PSoC4/CapSense.c **** 
1789:Generated_Source\PSoC4/CapSense.c **** 
1790:Generated_Source\PSoC4/CapSense.c **** /*******************************************************************************
1791:Generated_Source\PSoC4/CapSense.c **** * Function Name: CapSense_GetSenseClkDivider
1792:Generated_Source\PSoC4/CapSense.c **** ********************************************************************************
1793:Generated_Source\PSoC4/CapSense.c **** *
1794:Generated_Source\PSoC4/CapSense.c **** * Summary:
1795:Generated_Source\PSoC4/CapSense.c **** *  This API returns a value of the sense clock divider for the  sensor.
ARM GAS  C:\Users\Zeynep\AppData\Local\Temp\ccgAGQqu.s 			page 62


1796:Generated_Source\PSoC4/CapSense.c **** *
1797:Generated_Source\PSoC4/CapSense.c **** * Parameters:
1798:Generated_Source\PSoC4/CapSense.c **** *  sensor: sensor index. The index value can be
1799:Generated_Source\PSoC4/CapSense.c **** *  from 0 to (CapSense_TOTAL_SENSOR_COUNT-1).
1800:Generated_Source\PSoC4/CapSense.c **** *
1801:Generated_Source\PSoC4/CapSense.c **** * Return:
1802:Generated_Source\PSoC4/CapSense.c **** *  This API returns the sense clock divider of the sensor.
1803:Generated_Source\PSoC4/CapSense.c **** *
1804:Generated_Source\PSoC4/CapSense.c **** * Global Variables:
1805:Generated_Source\PSoC4/CapSense.c **** *  CapSense_senseClkDividerVal[] - stores the sense clock divider values.
1806:Generated_Source\PSoC4/CapSense.c **** *
1807:Generated_Source\PSoC4/CapSense.c **** * Side Effects:
1808:Generated_Source\PSoC4/CapSense.c **** *  None
1809:Generated_Source\PSoC4/CapSense.c **** *
1810:Generated_Source\PSoC4/CapSense.c **** *******************************************************************************/
1811:Generated_Source\PSoC4/CapSense.c **** uint32 CapSense_GetSenseClkDivider(uint32 sensor)
1812:Generated_Source\PSoC4/CapSense.c **** {
 1578              		.loc 1 1812 0
 1579              		.cfi_startproc
 1580              		@ args = 0, pretend = 0, frame = 0
 1581              		@ frame_needed = 0, uses_anonymous_args = 0
 1582              		@ link register save eliminated.
 1583              	.LVL193:
1813:Generated_Source\PSoC4/CapSense.c ****     #if(0u != CapSense_MULTIPLE_FREQUENCY_SET)
1814:Generated_Source\PSoC4/CapSense.c ****         return((uint32)CapSense_senseClkDividerVal[sensor]);
 1584              		.loc 1 1814 0
 1585 0000 014B     		ldr	r3, .L99
 1586 0002 185C     		ldrb	r0, [r3, r0]
 1587              	.LVL194:
1815:Generated_Source\PSoC4/CapSense.c ****     #else
1816:Generated_Source\PSoC4/CapSense.c ****         return((uint32)CapSense_senseClkDividerVal);
1817:Generated_Source\PSoC4/CapSense.c ****     #endif /* (0u != CapSense_MULTIPLE_FREQUENCY_SET) */
1818:Generated_Source\PSoC4/CapSense.c **** }
 1588              		.loc 1 1818 0
 1589              		@ sp needed
 1590 0004 7047     		bx	lr
 1591              	.L100:
 1592 0006 C046     		.align	2
 1593              	.L99:
 1594 0008 00000000 		.word	CapSense_senseClkDividerVal
 1595              		.cfi_endproc
 1596              	.LFE59:
 1597              		.size	CapSense_GetSenseClkDivider, .-CapSense_GetSenseClkDivider
 1598              		.section	.text.CapSense_SetSenseClkDivider,"ax",%progbits
 1599              		.align	2
 1600              		.global	CapSense_SetSenseClkDivider
 1601              		.code	16
 1602              		.thumb_func
 1603              		.type	CapSense_SetSenseClkDivider, %function
 1604              	CapSense_SetSenseClkDivider:
 1605              	.LFB60:
1819:Generated_Source\PSoC4/CapSense.c **** 
1820:Generated_Source\PSoC4/CapSense.c **** #if (CapSense_TUNING_METHOD != CapSense__TUNING_NONE)
1821:Generated_Source\PSoC4/CapSense.c ****     /*******************************************************************************
1822:Generated_Source\PSoC4/CapSense.c ****     * Function Name: CapSense_SetSenseClkDivider
1823:Generated_Source\PSoC4/CapSense.c ****     ********************************************************************************
1824:Generated_Source\PSoC4/CapSense.c ****     *
ARM GAS  C:\Users\Zeynep\AppData\Local\Temp\ccgAGQqu.s 			page 63


1825:Generated_Source\PSoC4/CapSense.c ****     * Summary:
1826:Generated_Source\PSoC4/CapSense.c ****     *  This API sets a value of the sense clock divider for the  sensor.
1827:Generated_Source\PSoC4/CapSense.c ****     *
1828:Generated_Source\PSoC4/CapSense.c ****     * Parameters:
1829:Generated_Source\PSoC4/CapSense.c ****     *  sensor:  Sensor index.
1830:Generated_Source\PSoC4/CapSense.c ****     *  senseClk: represents the sense clock value.
1831:Generated_Source\PSoC4/CapSense.c ****     *
1832:Generated_Source\PSoC4/CapSense.c ****     * Return:
1833:Generated_Source\PSoC4/CapSense.c ****     *  None.
1834:Generated_Source\PSoC4/CapSense.c ****     *
1835:Generated_Source\PSoC4/CapSense.c ****     * Global Variables:
1836:Generated_Source\PSoC4/CapSense.c ****     *  CapSense_senseClkDividerVal[] - stores the sense clock divider values.
1837:Generated_Source\PSoC4/CapSense.c ****     *
1838:Generated_Source\PSoC4/CapSense.c ****     * Side Effects:
1839:Generated_Source\PSoC4/CapSense.c ****     *  None
1840:Generated_Source\PSoC4/CapSense.c ****     *
1841:Generated_Source\PSoC4/CapSense.c ****     *******************************************************************************/
1842:Generated_Source\PSoC4/CapSense.c ****     void CapSense_SetSenseClkDivider(uint32 sensor, uint32 senseClk)
1843:Generated_Source\PSoC4/CapSense.c ****     {
 1606              		.loc 1 1843 0
 1607              		.cfi_startproc
 1608              		@ args = 0, pretend = 0, frame = 0
 1609              		@ frame_needed = 0, uses_anonymous_args = 0
 1610              		@ link register save eliminated.
 1611              	.LVL195:
1844:Generated_Source\PSoC4/CapSense.c ****         #if(0u != CapSense_MULTIPLE_FREQUENCY_SET)
1845:Generated_Source\PSoC4/CapSense.c ****             CapSense_senseClkDividerVal[sensor] = (uint8)senseClk;
 1612              		.loc 1 1845 0
 1613 0000 014B     		ldr	r3, .L102
 1614 0002 1954     		strb	r1, [r3, r0]
1846:Generated_Source\PSoC4/CapSense.c ****         #else
1847:Generated_Source\PSoC4/CapSense.c ****             CapSense_senseClkDividerVal = (uint8)senseClk;
1848:Generated_Source\PSoC4/CapSense.c ****         #endif /* (0u != CapSense_MULTIPLE_FREQUENCY_SET) */
1849:Generated_Source\PSoC4/CapSense.c ****     }
 1615              		.loc 1 1849 0
 1616              		@ sp needed
 1617 0004 7047     		bx	lr
 1618              	.L103:
 1619 0006 C046     		.align	2
 1620              	.L102:
 1621 0008 00000000 		.word	CapSense_senseClkDividerVal
 1622              		.cfi_endproc
 1623              	.LFE60:
 1624              		.size	CapSense_SetSenseClkDivider, .-CapSense_SetSenseClkDivider
 1625              		.section	.text.CapSense_GetModulatorClkDivider,"ax",%progbits
 1626              		.align	2
 1627              		.global	CapSense_GetModulatorClkDivider
 1628              		.code	16
 1629              		.thumb_func
 1630              		.type	CapSense_GetModulatorClkDivider, %function
 1631              	CapSense_GetModulatorClkDivider:
 1632              	.LFB61:
1850:Generated_Source\PSoC4/CapSense.c **** #endif /* (CapSense_TUNING_METHOD != CapSense__TUNING_NONE) */
1851:Generated_Source\PSoC4/CapSense.c **** 
1852:Generated_Source\PSoC4/CapSense.c **** 
1853:Generated_Source\PSoC4/CapSense.c **** /*******************************************************************************
1854:Generated_Source\PSoC4/CapSense.c **** * Function Name: CapSense_GetModulatorClkDivider
ARM GAS  C:\Users\Zeynep\AppData\Local\Temp\ccgAGQqu.s 			page 64


1855:Generated_Source\PSoC4/CapSense.c **** ********************************************************************************
1856:Generated_Source\PSoC4/CapSense.c **** *
1857:Generated_Source\PSoC4/CapSense.c **** * Summary:
1858:Generated_Source\PSoC4/CapSense.c **** *  This API returns a value of the modulator sample clock divider for the  sensor.
1859:Generated_Source\PSoC4/CapSense.c **** *
1860:Generated_Source\PSoC4/CapSense.c **** * Parameters:
1861:Generated_Source\PSoC4/CapSense.c **** *  sensor: sensor index. The value of index can be
1862:Generated_Source\PSoC4/CapSense.c **** *  from 0 to (CapSense_TOTAL_SENSOR_COUNT-1).
1863:Generated_Source\PSoC4/CapSense.c **** *
1864:Generated_Source\PSoC4/CapSense.c **** * Return:
1865:Generated_Source\PSoC4/CapSense.c **** *  This API returns the modulator sample clock divider for the  sensor.
1866:Generated_Source\PSoC4/CapSense.c **** *
1867:Generated_Source\PSoC4/CapSense.c **** * Global Variables:
1868:Generated_Source\PSoC4/CapSense.c **** *  CapSense_sampleClkDividerVal[] - stores the modulator sample divider values.
1869:Generated_Source\PSoC4/CapSense.c **** *
1870:Generated_Source\PSoC4/CapSense.c **** * Side Effects:
1871:Generated_Source\PSoC4/CapSense.c **** *  None
1872:Generated_Source\PSoC4/CapSense.c **** *
1873:Generated_Source\PSoC4/CapSense.c **** *******************************************************************************/
1874:Generated_Source\PSoC4/CapSense.c **** uint32 CapSense_GetModulatorClkDivider(uint32 sensor)
1875:Generated_Source\PSoC4/CapSense.c **** {
 1633              		.loc 1 1875 0
 1634              		.cfi_startproc
 1635              		@ args = 0, pretend = 0, frame = 0
 1636              		@ frame_needed = 0, uses_anonymous_args = 0
 1637              		@ link register save eliminated.
 1638              	.LVL196:
1876:Generated_Source\PSoC4/CapSense.c ****     #if(0u != CapSense_MULTIPLE_FREQUENCY_SET)
1877:Generated_Source\PSoC4/CapSense.c ****         return((uint32)CapSense_sampleClkDividerVal[sensor]);
 1639              		.loc 1 1877 0
 1640 0000 014B     		ldr	r3, .L105
 1641 0002 185C     		ldrb	r0, [r3, r0]
 1642              	.LVL197:
1878:Generated_Source\PSoC4/CapSense.c ****     #else
1879:Generated_Source\PSoC4/CapSense.c ****         return((uint32)CapSense_sampleClkDividerVal);
1880:Generated_Source\PSoC4/CapSense.c ****     #endif /* (0u != CapSense_MULTIPLE_FREQUENCY_SET) */
1881:Generated_Source\PSoC4/CapSense.c **** }
 1643              		.loc 1 1881 0
 1644              		@ sp needed
 1645 0004 7047     		bx	lr
 1646              	.L106:
 1647 0006 C046     		.align	2
 1648              	.L105:
 1649 0008 00000000 		.word	CapSense_sampleClkDividerVal
 1650              		.cfi_endproc
 1651              	.LFE61:
 1652              		.size	CapSense_GetModulatorClkDivider, .-CapSense_GetModulatorClkDivider
 1653              		.section	.text.CapSense_SetModulatorClkDivider,"ax",%progbits
 1654              		.align	2
 1655              		.global	CapSense_SetModulatorClkDivider
 1656              		.code	16
 1657              		.thumb_func
 1658              		.type	CapSense_SetModulatorClkDivider, %function
 1659              	CapSense_SetModulatorClkDivider:
 1660              	.LFB62:
1882:Generated_Source\PSoC4/CapSense.c **** 
1883:Generated_Source\PSoC4/CapSense.c **** #if (CapSense_TUNING_METHOD != CapSense__TUNING_NONE)
ARM GAS  C:\Users\Zeynep\AppData\Local\Temp\ccgAGQqu.s 			page 65


1884:Generated_Source\PSoC4/CapSense.c ****     /*******************************************************************************
1885:Generated_Source\PSoC4/CapSense.c ****     * Function Name: CapSense_SetModulatorClkDivider
1886:Generated_Source\PSoC4/CapSense.c ****     ********************************************************************************
1887:Generated_Source\PSoC4/CapSense.c ****     *
1888:Generated_Source\PSoC4/CapSense.c ****     * Summary:
1889:Generated_Source\PSoC4/CapSense.c ****     *  This API sets a value of the modulator sample clock divider for the  sensor.
1890:Generated_Source\PSoC4/CapSense.c ****     *
1891:Generated_Source\PSoC4/CapSense.c ****     * Parameters:
1892:Generated_Source\PSoC4/CapSense.c ****     *  sensor:  Sensor index.
1893:Generated_Source\PSoC4/CapSense.c ****     *  modulatorClk: represents the modulator sample clock value.
1894:Generated_Source\PSoC4/CapSense.c ****     *
1895:Generated_Source\PSoC4/CapSense.c ****     * Return:
1896:Generated_Source\PSoC4/CapSense.c ****     *  None.
1897:Generated_Source\PSoC4/CapSense.c ****     *
1898:Generated_Source\PSoC4/CapSense.c ****     * Global Variables:
1899:Generated_Source\PSoC4/CapSense.c ****     *  CapSense_sampleClkDividerVal[] - stores the modulator sample divider values.
1900:Generated_Source\PSoC4/CapSense.c ****     *
1901:Generated_Source\PSoC4/CapSense.c ****     * Side Effects:
1902:Generated_Source\PSoC4/CapSense.c ****     *  None
1903:Generated_Source\PSoC4/CapSense.c ****     *
1904:Generated_Source\PSoC4/CapSense.c ****     *******************************************************************************/
1905:Generated_Source\PSoC4/CapSense.c ****     void CapSense_SetModulatorClkDivider(uint32 sensor, uint32 modulatorClk)
1906:Generated_Source\PSoC4/CapSense.c ****     {
 1661              		.loc 1 1906 0
 1662              		.cfi_startproc
 1663              		@ args = 0, pretend = 0, frame = 0
 1664              		@ frame_needed = 0, uses_anonymous_args = 0
 1665              		@ link register save eliminated.
 1666              	.LVL198:
1907:Generated_Source\PSoC4/CapSense.c ****         #if(0u != CapSense_MULTIPLE_FREQUENCY_SET)
1908:Generated_Source\PSoC4/CapSense.c ****             CapSense_sampleClkDividerVal[sensor] = (uint8)modulatorClk;
 1667              		.loc 1 1908 0
 1668 0000 014B     		ldr	r3, .L108
 1669 0002 1954     		strb	r1, [r3, r0]
1909:Generated_Source\PSoC4/CapSense.c ****         #else
1910:Generated_Source\PSoC4/CapSense.c ****             CapSense_sampleClkDividerVal = (uint8)modulatorClk;
1911:Generated_Source\PSoC4/CapSense.c ****         #endif /* (0u != CapSense_MULTIPLE_FREQUENCY_SET) */
1912:Generated_Source\PSoC4/CapSense.c ****     }
 1670              		.loc 1 1912 0
 1671              		@ sp needed
 1672 0004 7047     		bx	lr
 1673              	.L109:
 1674 0006 C046     		.align	2
 1675              	.L108:
 1676 0008 00000000 		.word	CapSense_sampleClkDividerVal
 1677              		.cfi_endproc
 1678              	.LFE62:
 1679              		.size	CapSense_SetModulatorClkDivider, .-CapSense_SetModulatorClkDivider
 1680              		.section	.text.CapSense_GetModulationIDAC,"ax",%progbits
 1681              		.align	2
 1682              		.global	CapSense_GetModulationIDAC
 1683              		.code	16
 1684              		.thumb_func
 1685              		.type	CapSense_GetModulationIDAC, %function
 1686              	CapSense_GetModulationIDAC:
 1687              	.LFB63:
1913:Generated_Source\PSoC4/CapSense.c **** #endif /* (CapSense_TUNING_METHOD != CapSense__TUNING_NONE) */
ARM GAS  C:\Users\Zeynep\AppData\Local\Temp\ccgAGQqu.s 			page 66


1914:Generated_Source\PSoC4/CapSense.c **** 
1915:Generated_Source\PSoC4/CapSense.c **** /*******************************************************************************
1916:Generated_Source\PSoC4/CapSense.c **** * Function Name: CapSense_GetModulationIDAC
1917:Generated_Source\PSoC4/CapSense.c **** ********************************************************************************
1918:Generated_Source\PSoC4/CapSense.c **** *
1919:Generated_Source\PSoC4/CapSense.c **** * Summary:
1920:Generated_Source\PSoC4/CapSense.c **** *  This API returns a value of the modulation IDAC for the  sensor.
1921:Generated_Source\PSoC4/CapSense.c **** *
1922:Generated_Source\PSoC4/CapSense.c **** * Parameters:
1923:Generated_Source\PSoC4/CapSense.c **** *  sensor: sensor index. The index value can be
1924:Generated_Source\PSoC4/CapSense.c **** *  from 0 to (CapSense_TOTAL_SENSOR_COUNT-1).
1925:Generated_Source\PSoC4/CapSense.c **** *
1926:Generated_Source\PSoC4/CapSense.c **** * Return:
1927:Generated_Source\PSoC4/CapSense.c **** *  This API returns the modulation IDAC of the sensor.
1928:Generated_Source\PSoC4/CapSense.c **** *
1929:Generated_Source\PSoC4/CapSense.c **** * Global Variables:
1930:Generated_Source\PSoC4/CapSense.c **** *  CapSense_modulationIDAC[] - stores modulation IDAC values.
1931:Generated_Source\PSoC4/CapSense.c **** *
1932:Generated_Source\PSoC4/CapSense.c **** * Side Effects:
1933:Generated_Source\PSoC4/CapSense.c **** *  None
1934:Generated_Source\PSoC4/CapSense.c **** *
1935:Generated_Source\PSoC4/CapSense.c **** *******************************************************************************/
1936:Generated_Source\PSoC4/CapSense.c **** uint32 CapSense_GetModulationIDAC(uint32 sensor)
1937:Generated_Source\PSoC4/CapSense.c **** {
 1688              		.loc 1 1937 0
 1689              		.cfi_startproc
 1690              		@ args = 0, pretend = 0, frame = 0
 1691              		@ frame_needed = 0, uses_anonymous_args = 0
 1692              		@ link register save eliminated.
 1693              	.LVL199:
1938:Generated_Source\PSoC4/CapSense.c ****         return((uint32)CapSense_modulationIDAC[sensor]);
 1694              		.loc 1 1938 0
 1695 0000 014B     		ldr	r3, .L111
 1696 0002 185C     		ldrb	r0, [r3, r0]
 1697              	.LVL200:
1939:Generated_Source\PSoC4/CapSense.c **** }
 1698              		.loc 1 1939 0
 1699              		@ sp needed
 1700 0004 7047     		bx	lr
 1701              	.L112:
 1702 0006 C046     		.align	2
 1703              	.L111:
 1704 0008 00000000 		.word	CapSense_modulationIDAC
 1705              		.cfi_endproc
 1706              	.LFE63:
 1707              		.size	CapSense_GetModulationIDAC, .-CapSense_GetModulationIDAC
 1708              		.section	.text.CapSense_SetModulationIDAC,"ax",%progbits
 1709              		.align	2
 1710              		.global	CapSense_SetModulationIDAC
 1711              		.code	16
 1712              		.thumb_func
 1713              		.type	CapSense_SetModulationIDAC, %function
 1714              	CapSense_SetModulationIDAC:
 1715              	.LFB64:
1940:Generated_Source\PSoC4/CapSense.c **** 
1941:Generated_Source\PSoC4/CapSense.c **** #if (CapSense_TUNING_METHOD != CapSense__TUNING_NONE)
1942:Generated_Source\PSoC4/CapSense.c ****     /*******************************************************************************
ARM GAS  C:\Users\Zeynep\AppData\Local\Temp\ccgAGQqu.s 			page 67


1943:Generated_Source\PSoC4/CapSense.c ****     * Function Name: CapSense_SetModulationIDAC
1944:Generated_Source\PSoC4/CapSense.c ****     ********************************************************************************
1945:Generated_Source\PSoC4/CapSense.c ****     *
1946:Generated_Source\PSoC4/CapSense.c ****     * Summary:
1947:Generated_Source\PSoC4/CapSense.c ****     *  This API sets a value of the modulation IDAC for the  sensor.
1948:Generated_Source\PSoC4/CapSense.c ****     *
1949:Generated_Source\PSoC4/CapSense.c ****     * Parameters:
1950:Generated_Source\PSoC4/CapSense.c ****     *  sensor:  Sensor index.
1951:Generated_Source\PSoC4/CapSense.c ****     *  compIdacValue: represents the modulation IDAC data register value.
1952:Generated_Source\PSoC4/CapSense.c ****     *
1953:Generated_Source\PSoC4/CapSense.c ****     * Return:
1954:Generated_Source\PSoC4/CapSense.c ****     *  None.
1955:Generated_Source\PSoC4/CapSense.c ****     *
1956:Generated_Source\PSoC4/CapSense.c ****     * Global Variables:
1957:Generated_Source\PSoC4/CapSense.c ****     *  CapSense_modulationIDAC[] - array with modulation IDAC values
1958:Generated_Source\PSoC4/CapSense.c ****     *
1959:Generated_Source\PSoC4/CapSense.c ****     * Side Effects:
1960:Generated_Source\PSoC4/CapSense.c ****     *  None
1961:Generated_Source\PSoC4/CapSense.c ****     *
1962:Generated_Source\PSoC4/CapSense.c ****     *******************************************************************************/
1963:Generated_Source\PSoC4/CapSense.c ****     void CapSense_SetModulationIDAC(uint32 sensor, uint32 modIdacValue)
1964:Generated_Source\PSoC4/CapSense.c ****     {
 1716              		.loc 1 1964 0
 1717              		.cfi_startproc
 1718              		@ args = 0, pretend = 0, frame = 0
 1719              		@ frame_needed = 0, uses_anonymous_args = 0
 1720              		@ link register save eliminated.
 1721              	.LVL201:
1965:Generated_Source\PSoC4/CapSense.c ****         CapSense_modulationIDAC[sensor] = (uint8)modIdacValue;
 1722              		.loc 1 1965 0
 1723 0000 014B     		ldr	r3, .L114
 1724 0002 1954     		strb	r1, [r3, r0]
1966:Generated_Source\PSoC4/CapSense.c ****     }
 1725              		.loc 1 1966 0
 1726              		@ sp needed
 1727 0004 7047     		bx	lr
 1728              	.L115:
 1729 0006 C046     		.align	2
 1730              	.L114:
 1731 0008 00000000 		.word	CapSense_modulationIDAC
 1732              		.cfi_endproc
 1733              	.LFE64:
 1734              		.size	CapSense_SetModulationIDAC, .-CapSense_SetModulationIDAC
 1735              		.section	.text.CapSense_GetCompensationIDAC,"ax",%progbits
 1736              		.align	2
 1737              		.global	CapSense_GetCompensationIDAC
 1738              		.code	16
 1739              		.thumb_func
 1740              		.type	CapSense_GetCompensationIDAC, %function
 1741              	CapSense_GetCompensationIDAC:
 1742              	.LFB65:
1967:Generated_Source\PSoC4/CapSense.c **** #endif /* (CapSense_TUNING_METHOD != CapSense__TUNING_NONE) */
1968:Generated_Source\PSoC4/CapSense.c **** 
1969:Generated_Source\PSoC4/CapSense.c **** 
1970:Generated_Source\PSoC4/CapSense.c **** #if(CapSense_IDAC_CNT > 1u)
1971:Generated_Source\PSoC4/CapSense.c ****     /*******************************************************************************
1972:Generated_Source\PSoC4/CapSense.c ****     * Function Name: CapSense_GetCompensationIDAC
ARM GAS  C:\Users\Zeynep\AppData\Local\Temp\ccgAGQqu.s 			page 68


1973:Generated_Source\PSoC4/CapSense.c ****     ********************************************************************************
1974:Generated_Source\PSoC4/CapSense.c ****     *
1975:Generated_Source\PSoC4/CapSense.c ****     * Summary:
1976:Generated_Source\PSoC4/CapSense.c ****     *  This API returns a value of the compensation IDAC for the  sensor.
1977:Generated_Source\PSoC4/CapSense.c ****     *
1978:Generated_Source\PSoC4/CapSense.c ****     * Parameters:
1979:Generated_Source\PSoC4/CapSense.c ****     *  sensor: sensor index. The index value can be
1980:Generated_Source\PSoC4/CapSense.c ****     *  from 0 to (CapSense_TOTAL_SENSOR_COUNT-1).
1981:Generated_Source\PSoC4/CapSense.c ****     *
1982:Generated_Source\PSoC4/CapSense.c ****     * Return:
1983:Generated_Source\PSoC4/CapSense.c ****     *  This API returns the compensation IDAC of the sensor.
1984:Generated_Source\PSoC4/CapSense.c ****     *
1985:Generated_Source\PSoC4/CapSense.c ****     * Global Variables:
1986:Generated_Source\PSoC4/CapSense.c ****     *  CapSense_compensationIDAC[] - stores the compensation IDAC values.
1987:Generated_Source\PSoC4/CapSense.c ****     *
1988:Generated_Source\PSoC4/CapSense.c ****     * Side Effects:
1989:Generated_Source\PSoC4/CapSense.c ****     *  None
1990:Generated_Source\PSoC4/CapSense.c ****     *
1991:Generated_Source\PSoC4/CapSense.c ****     *******************************************************************************/
1992:Generated_Source\PSoC4/CapSense.c ****     uint32 CapSense_GetCompensationIDAC(uint32 sensor)
1993:Generated_Source\PSoC4/CapSense.c ****     {
 1743              		.loc 1 1993 0
 1744              		.cfi_startproc
 1745              		@ args = 0, pretend = 0, frame = 0
 1746              		@ frame_needed = 0, uses_anonymous_args = 0
 1747              		@ link register save eliminated.
 1748              	.LVL202:
1994:Generated_Source\PSoC4/CapSense.c ****         return((uint32)CapSense_compensationIDAC[sensor]);
 1749              		.loc 1 1994 0
 1750 0000 014B     		ldr	r3, .L117
 1751 0002 185C     		ldrb	r0, [r3, r0]
 1752              	.LVL203:
1995:Generated_Source\PSoC4/CapSense.c ****     }
 1753              		.loc 1 1995 0
 1754              		@ sp needed
 1755 0004 7047     		bx	lr
 1756              	.L118:
 1757 0006 C046     		.align	2
 1758              	.L117:
 1759 0008 00000000 		.word	CapSense_compensationIDAC
 1760              		.cfi_endproc
 1761              	.LFE65:
 1762              		.size	CapSense_GetCompensationIDAC, .-CapSense_GetCompensationIDAC
 1763              		.section	.text.CapSense_SetCompensationIDAC,"ax",%progbits
 1764              		.align	2
 1765              		.global	CapSense_SetCompensationIDAC
 1766              		.code	16
 1767              		.thumb_func
 1768              		.type	CapSense_SetCompensationIDAC, %function
 1769              	CapSense_SetCompensationIDAC:
 1770              	.LFB66:
1996:Generated_Source\PSoC4/CapSense.c **** #endif /* (CapSense_IDAC_CNT > 1u) */
1997:Generated_Source\PSoC4/CapSense.c **** 
1998:Generated_Source\PSoC4/CapSense.c **** 
1999:Generated_Source\PSoC4/CapSense.c **** #if((CapSense_TUNING_METHOD != CapSense__TUNING_NONE) && (CapSense_IDAC_CNT > 1u))
2000:Generated_Source\PSoC4/CapSense.c ****     /*******************************************************************************
2001:Generated_Source\PSoC4/CapSense.c ****     * Function Name: CapSense_SetCompensationIDAC
ARM GAS  C:\Users\Zeynep\AppData\Local\Temp\ccgAGQqu.s 			page 69


2002:Generated_Source\PSoC4/CapSense.c ****     ********************************************************************************
2003:Generated_Source\PSoC4/CapSense.c ****     *
2004:Generated_Source\PSoC4/CapSense.c ****     * Summary:
2005:Generated_Source\PSoC4/CapSense.c ****     *  This API sets a value of compensation IDAC for the  sensor.
2006:Generated_Source\PSoC4/CapSense.c ****     *
2007:Generated_Source\PSoC4/CapSense.c ****     * Parameters:
2008:Generated_Source\PSoC4/CapSense.c ****     *  sensor:  Sensor index.
2009:Generated_Source\PSoC4/CapSense.c ****     *  compIdacValue: represents the compensation IDAC data register value.
2010:Generated_Source\PSoC4/CapSense.c ****     *
2011:Generated_Source\PSoC4/CapSense.c ****     * Return:
2012:Generated_Source\PSoC4/CapSense.c ****     *  None.
2013:Generated_Source\PSoC4/CapSense.c ****     *
2014:Generated_Source\PSoC4/CapSense.c ****     * Global Variables:
2015:Generated_Source\PSoC4/CapSense.c ****     *  CapSense_compensationIDAC[] - an array with compensation IDAC values
2016:Generated_Source\PSoC4/CapSense.c ****     *
2017:Generated_Source\PSoC4/CapSense.c ****     * Side Effects:
2018:Generated_Source\PSoC4/CapSense.c ****     *  None
2019:Generated_Source\PSoC4/CapSense.c ****     *
2020:Generated_Source\PSoC4/CapSense.c ****     *******************************************************************************/
2021:Generated_Source\PSoC4/CapSense.c ****     void CapSense_SetCompensationIDAC(uint32 sensor, uint32 compIdacValue)
2022:Generated_Source\PSoC4/CapSense.c ****     {
 1771              		.loc 1 2022 0
 1772              		.cfi_startproc
 1773              		@ args = 0, pretend = 0, frame = 0
 1774              		@ frame_needed = 0, uses_anonymous_args = 0
 1775              		@ link register save eliminated.
 1776              	.LVL204:
2023:Generated_Source\PSoC4/CapSense.c ****         CapSense_compensationIDAC[sensor] = (uint8)compIdacValue;
 1777              		.loc 1 2023 0
 1778 0000 014B     		ldr	r3, .L120
 1779 0002 1954     		strb	r1, [r3, r0]
2024:Generated_Source\PSoC4/CapSense.c ****     }
 1780              		.loc 1 2024 0
 1781              		@ sp needed
 1782 0004 7047     		bx	lr
 1783              	.L121:
 1784 0006 C046     		.align	2
 1785              	.L120:
 1786 0008 00000000 		.word	CapSense_compensationIDAC
 1787              		.cfi_endproc
 1788              	.LFE66:
 1789              		.size	CapSense_SetCompensationIDAC, .-CapSense_SetCompensationIDAC
 1790              		.section	.text.CapSense_GetIDACRange,"ax",%progbits
 1791              		.align	2
 1792              		.global	CapSense_GetIDACRange
 1793              		.code	16
 1794              		.thumb_func
 1795              		.type	CapSense_GetIDACRange, %function
 1796              	CapSense_GetIDACRange:
 1797              	.LFB67:
2025:Generated_Source\PSoC4/CapSense.c **** #endif /* ((CapSense_TUNING_METHOD != CapSense__TUNING_NONE) && (CapSense_IDAC_CNT > 1u)) */
2026:Generated_Source\PSoC4/CapSense.c **** 
2027:Generated_Source\PSoC4/CapSense.c **** /*******************************************************************************
2028:Generated_Source\PSoC4/CapSense.c **** * Function Name: CapSense_GetIDACRange
2029:Generated_Source\PSoC4/CapSense.c **** ********************************************************************************
2030:Generated_Source\PSoC4/CapSense.c **** *
2031:Generated_Source\PSoC4/CapSense.c **** * Summary:
ARM GAS  C:\Users\Zeynep\AppData\Local\Temp\ccgAGQqu.s 			page 70


2032:Generated_Source\PSoC4/CapSense.c **** *  This API returns a value that indicates the IDAC range used by the
2033:Generated_Source\PSoC4/CapSense.c **** *  component to scan sensors. The IDAC range is common for all the sensors.
2034:Generated_Source\PSoC4/CapSense.c **** *
2035:Generated_Source\PSoC4/CapSense.c **** * Parameters:
2036:Generated_Source\PSoC4/CapSense.c **** *  None
2037:Generated_Source\PSoC4/CapSense.c **** *
2038:Generated_Source\PSoC4/CapSense.c **** * Return:
2039:Generated_Source\PSoC4/CapSense.c **** *  This API Returns a value that indicates the IDAC range:
2040:Generated_Source\PSoC4/CapSense.c **** *      0 - IDAC range set to 4x
2041:Generated_Source\PSoC4/CapSense.c **** *      1 - IDAC range set to 8x
2042:Generated_Source\PSoC4/CapSense.c **** *
2043:Generated_Source\PSoC4/CapSense.c **** * Global Variables:
2044:Generated_Source\PSoC4/CapSense.c **** *  None
2045:Generated_Source\PSoC4/CapSense.c **** *
2046:Generated_Source\PSoC4/CapSense.c **** * Side Effects:
2047:Generated_Source\PSoC4/CapSense.c **** *  None
2048:Generated_Source\PSoC4/CapSense.c **** *
2049:Generated_Source\PSoC4/CapSense.c **** *******************************************************************************/
2050:Generated_Source\PSoC4/CapSense.c **** uint32 CapSense_GetIDACRange(void)
2051:Generated_Source\PSoC4/CapSense.c **** {
 1798              		.loc 1 2051 0
 1799              		.cfi_startproc
 1800              		@ args = 0, pretend = 0, frame = 0
 1801              		@ frame_needed = 0, uses_anonymous_args = 0
 1802              		@ link register save eliminated.
2052:Generated_Source\PSoC4/CapSense.c ****     return((0u != (CapSense_CSD_IDAC_REG & CapSense_CSD_IDAC1_RANGE_8X)) ? 1uL : 0uL);
 1803              		.loc 1 2052 0
 1804 0000 034B     		ldr	r3, .L124
 1805 0002 1868     		ldr	r0, [r3]
 1806 0004 8023     		movs	r3, #128
 1807 0006 DB00     		lsls	r3, r3, #3
 1808 0008 1840     		ands	r0, r3
 1809 000a 00D0     		beq	.L123
 1810 000c 0120     		movs	r0, #1
 1811              	.L123:
2053:Generated_Source\PSoC4/CapSense.c **** }
 1812              		.loc 1 2053 0 discriminator 4
 1813              		@ sp needed
 1814 000e 7047     		bx	lr
 1815              	.L125:
 1816              		.align	2
 1817              	.L124:
 1818 0010 08000840 		.word	1074266120
 1819              		.cfi_endproc
 1820              	.LFE67:
 1821              		.size	CapSense_GetIDACRange, .-CapSense_GetIDACRange
 1822              		.section	.text.CapSense_SetIDACRange,"ax",%progbits
 1823              		.align	2
 1824              		.global	CapSense_SetIDACRange
 1825              		.code	16
 1826              		.thumb_func
 1827              		.type	CapSense_SetIDACRange, %function
 1828              	CapSense_SetIDACRange:
 1829              	.LFB68:
2054:Generated_Source\PSoC4/CapSense.c **** 
2055:Generated_Source\PSoC4/CapSense.c **** #if (CapSense_TUNING_METHOD != CapSense__TUNING_NONE)
2056:Generated_Source\PSoC4/CapSense.c ****     /*******************************************************************************
ARM GAS  C:\Users\Zeynep\AppData\Local\Temp\ccgAGQqu.s 			page 71


2057:Generated_Source\PSoC4/CapSense.c ****     * Function Name: CapSense_SetIDACRange
2058:Generated_Source\PSoC4/CapSense.c ****     ********************************************************************************
2059:Generated_Source\PSoC4/CapSense.c ****     *
2060:Generated_Source\PSoC4/CapSense.c ****     * Summary:
2061:Generated_Source\PSoC4/CapSense.c ****     *  This API sets the IDAC range to the 4x (1.2uA/bit) or 8x (2.4uA/bit) mode.
2062:Generated_Source\PSoC4/CapSense.c ****     *  The IDAC range is common for all the sensors and common for the modulation and
2063:Generated_Source\PSoC4/CapSense.c ****     *  compensation IDACs.
2064:Generated_Source\PSoC4/CapSense.c ****     *
2065:Generated_Source\PSoC4/CapSense.c ****     * Parameters:
2066:Generated_Source\PSoC4/CapSense.c ****     *  iDacRange:  represents value for IDAC range
2067:Generated_Source\PSoC4/CapSense.c ****     *  0 -  IDAC range set to 4x (1.2uA/bit)
2068:Generated_Source\PSoC4/CapSense.c ****     *  1 or >1 - IDAC range set to 8x (2.4uA/bit)
2069:Generated_Source\PSoC4/CapSense.c ****     *
2070:Generated_Source\PSoC4/CapSense.c ****     * Return:
2071:Generated_Source\PSoC4/CapSense.c ****     *  None.
2072:Generated_Source\PSoC4/CapSense.c ****     *
2073:Generated_Source\PSoC4/CapSense.c ****     * Global Variables:
2074:Generated_Source\PSoC4/CapSense.c ****     *  None
2075:Generated_Source\PSoC4/CapSense.c ****     *
2076:Generated_Source\PSoC4/CapSense.c ****     * Side Effects:
2077:Generated_Source\PSoC4/CapSense.c ****     *  None
2078:Generated_Source\PSoC4/CapSense.c ****     *
2079:Generated_Source\PSoC4/CapSense.c ****     *******************************************************************************/
2080:Generated_Source\PSoC4/CapSense.c ****     void CapSense_SetIDACRange(uint32 iDacRange)
2081:Generated_Source\PSoC4/CapSense.c ****     {
 1830              		.loc 1 2081 0
 1831              		.cfi_startproc
 1832              		@ args = 0, pretend = 0, frame = 0
 1833              		@ frame_needed = 0, uses_anonymous_args = 0
 1834              		@ link register save eliminated.
 1835              	.LVL205:
2082:Generated_Source\PSoC4/CapSense.c ****         if(iDacRange != 0u)
 1836              		.loc 1 2082 0
 1837 0000 0028     		cmp	r0, #0
 1838 0002 05D0     		beq	.L127
2083:Generated_Source\PSoC4/CapSense.c ****         {
2084:Generated_Source\PSoC4/CapSense.c ****             /*  IDAC range = 8x (2.4uA/bit) */
2085:Generated_Source\PSoC4/CapSense.c ****             CapSense_CSD_IDAC_REG |= (CapSense_CSD_IDAC1_RANGE_8X |\
 1839              		.loc 1 2085 0
 1840 0004 054A     		ldr	r2, .L129
 1841 0006 1368     		ldr	r3, [r2]
 1842 0008 0549     		ldr	r1, .L129+4
 1843 000a 0B43     		orrs	r3, r1
 1844 000c 1360     		str	r3, [r2]
 1845 000e 04E0     		b	.L126
 1846              	.L127:
2086:Generated_Source\PSoC4/CapSense.c ****                                               CapSense_CSD_IDAC2_RANGE_8X);
2087:Generated_Source\PSoC4/CapSense.c ****         }
2088:Generated_Source\PSoC4/CapSense.c ****         else
2089:Generated_Source\PSoC4/CapSense.c ****         {
2090:Generated_Source\PSoC4/CapSense.c ****             /*  IDAC range = 4x (1.2uA/bit) */
2091:Generated_Source\PSoC4/CapSense.c ****             /*  IDAC range = 8x (2.4uA/bit) */
2092:Generated_Source\PSoC4/CapSense.c ****             CapSense_CSD_IDAC_REG &= ~(CapSense_CSD_IDAC1_RANGE_8X |\
 1847              		.loc 1 2092 0
 1848 0010 024A     		ldr	r2, .L129
 1849 0012 1168     		ldr	r1, [r2]
 1850 0014 034B     		ldr	r3, .L129+8
ARM GAS  C:\Users\Zeynep\AppData\Local\Temp\ccgAGQqu.s 			page 72


 1851 0016 0B40     		ands	r3, r1
 1852 0018 1360     		str	r3, [r2]
 1853              	.L126:
2093:Generated_Source\PSoC4/CapSense.c ****                                                CapSense_CSD_IDAC2_RANGE_8X);
2094:Generated_Source\PSoC4/CapSense.c ****         }
2095:Generated_Source\PSoC4/CapSense.c ****     }
 1854              		.loc 1 2095 0
 1855              		@ sp needed
 1856 001a 7047     		bx	lr
 1857              	.L130:
 1858              		.align	2
 1859              	.L129:
 1860 001c 08000840 		.word	1074266120
 1861 0020 00040004 		.word	67109888
 1862 0024 FFFBFFFB 		.word	-67109889
 1863              		.cfi_endproc
 1864              	.LFE68:
 1865              		.size	CapSense_SetIDACRange, .-CapSense_SetIDACRange
 1866              		.section	.text.CapSense_GetSensorRaw,"ax",%progbits
 1867              		.align	2
 1868              		.global	CapSense_GetSensorRaw
 1869              		.code	16
 1870              		.thumb_func
 1871              		.type	CapSense_GetSensorRaw, %function
 1872              	CapSense_GetSensorRaw:
 1873              	.LFB69:
2096:Generated_Source\PSoC4/CapSense.c **** #endif /* (CapSense_TUNING_METHOD != CapSense__TUNING_NONE) */
2097:Generated_Source\PSoC4/CapSense.c **** 
2098:Generated_Source\PSoC4/CapSense.c **** 
2099:Generated_Source\PSoC4/CapSense.c **** #if((0u != CapSense_AUTOCALIBRATION_ENABLE) || (CapSense_TUNING_METHOD == CapSense__TUNING_AUTO))
2100:Generated_Source\PSoC4/CapSense.c ****     /*******************************************************************************
2101:Generated_Source\PSoC4/CapSense.c ****     * Function Name: CapSense_GetSensorRaw
2102:Generated_Source\PSoC4/CapSense.c ****     ********************************************************************************
2103:Generated_Source\PSoC4/CapSense.c ****     *
2104:Generated_Source\PSoC4/CapSense.c ****     * Summary:
2105:Generated_Source\PSoC4/CapSense.c ****     *  The API updates and gets uprated raw data from the sensor.
2106:Generated_Source\PSoC4/CapSense.c ****     *
2107:Generated_Source\PSoC4/CapSense.c ****     * Parameters:
2108:Generated_Source\PSoC4/CapSense.c ****     *  sensor - Sensor number.
2109:Generated_Source\PSoC4/CapSense.c ****     *
2110:Generated_Source\PSoC4/CapSense.c ****     * Return:
2111:Generated_Source\PSoC4/CapSense.c ****     *  Returns the current raw data value for a defined sensor number.
2112:Generated_Source\PSoC4/CapSense.c ****     *
2113:Generated_Source\PSoC4/CapSense.c ****     * Global Variables:
2114:Generated_Source\PSoC4/CapSense.c ****     *  None
2115:Generated_Source\PSoC4/CapSense.c ****     *
2116:Generated_Source\PSoC4/CapSense.c ****     * Side Effects:
2117:Generated_Source\PSoC4/CapSense.c ****     *  None
2118:Generated_Source\PSoC4/CapSense.c ****     *
2119:Generated_Source\PSoC4/CapSense.c ****     *******************************************************************************/
2120:Generated_Source\PSoC4/CapSense.c ****     uint16  CapSense_GetSensorRaw(uint32 sensor)
2121:Generated_Source\PSoC4/CapSense.c ****     {
 1874              		.loc 1 2121 0
 1875              		.cfi_startproc
 1876              		@ args = 0, pretend = 0, frame = 0
 1877              		@ frame_needed = 0, uses_anonymous_args = 0
 1878              	.LVL206:
ARM GAS  C:\Users\Zeynep\AppData\Local\Temp\ccgAGQqu.s 			page 73


 1879 0000 70B5     		push	{r4, r5, r6, lr}
 1880              		.cfi_def_cfa_offset 16
 1881              		.cfi_offset 4, -16
 1882              		.cfi_offset 5, -12
 1883              		.cfi_offset 6, -8
 1884              		.cfi_offset 14, -4
 1885 0002 0600     		movs	r6, r0
 1886              	.LVL207:
2122:Generated_Source\PSoC4/CapSense.c ****         uint32 curSample;
2123:Generated_Source\PSoC4/CapSense.c ****         uint32 avgVal = 0u;
 1887              		.loc 1 2123 0
 1888 0004 0024     		movs	r4, #0
2124:Generated_Source\PSoC4/CapSense.c **** 
2125:Generated_Source\PSoC4/CapSense.c ****         for(curSample = 0u; curSample < CapSense_AVG_SAMPLES_NUM; curSample++)
 1889              		.loc 1 2125 0
 1890 0006 0025     		movs	r5, #0
 1891 0008 0BE0     		b	.L132
 1892              	.LVL208:
 1893              	.L134:
2126:Generated_Source\PSoC4/CapSense.c ****         {
2127:Generated_Source\PSoC4/CapSense.c **** 
2128:Generated_Source\PSoC4/CapSense.c ****             CapSense_ScanSensor((uint32)sensor);
 1894              		.loc 1 2128 0
 1895 000a 3000     		movs	r0, r6
 1896 000c FFF7FEFF 		bl	CapSense_ScanSensor
 1897              	.LVL209:
 1898              	.L133:
2129:Generated_Source\PSoC4/CapSense.c ****             while(CapSense_IsBusy() == 1u)
 1899              		.loc 1 2129 0 discriminator 1
 1900 0010 FFF7FEFF 		bl	CapSense_IsBusy
 1901              	.LVL210:
 1902 0014 0128     		cmp	r0, #1
 1903 0016 FBD0     		beq	.L133
2130:Generated_Source\PSoC4/CapSense.c ****             {
2131:Generated_Source\PSoC4/CapSense.c ****                 /* Wait while sensor is busy */
2132:Generated_Source\PSoC4/CapSense.c ****             }
2133:Generated_Source\PSoC4/CapSense.c ****             avgVal += CapSense_ReadSensorRaw((uint32)sensor);
 1904              		.loc 1 2133 0 discriminator 2
 1905 0018 3000     		movs	r0, r6
 1906 001a FFF7FEFF 		bl	CapSense_ReadSensorRaw
 1907              	.LVL211:
 1908 001e 2418     		adds	r4, r4, r0
 1909              	.LVL212:
2125:Generated_Source\PSoC4/CapSense.c ****         {
 1910              		.loc 1 2125 0 discriminator 2
 1911 0020 0135     		adds	r5, r5, #1
 1912              	.LVL213:
 1913              	.L132:
2125:Generated_Source\PSoC4/CapSense.c ****         {
 1914              		.loc 1 2125 0 is_stmt 0 discriminator 1
 1915 0022 002D     		cmp	r5, #0
 1916 0024 F1D0     		beq	.L134
2134:Generated_Source\PSoC4/CapSense.c ****         }
2135:Generated_Source\PSoC4/CapSense.c **** 
2136:Generated_Source\PSoC4/CapSense.c ****         return((uint16)(avgVal / CapSense_AVG_SAMPLES_NUM));
 1917              		.loc 1 2136 0 is_stmt 1
 1918 0026 A0B2     		uxth	r0, r4
ARM GAS  C:\Users\Zeynep\AppData\Local\Temp\ccgAGQqu.s 			page 74


2137:Generated_Source\PSoC4/CapSense.c ****     }
