ARM GAS  C:\Users\Zeynep\AppData\Local\Temp\ccgAGQqu.s 			page 1


   1              		.syntax unified
   2              		.cpu cortex-m0
   3              		.fpu softvfp
   4              		.eabi_attribute 20, 1
   5              		.eabi_attribute 21, 1
   6              		.eabi_attribute 23, 3
   7              		.eabi_attribute 24, 1
   8              		.eabi_attribute 25, 1
   9              		.eabi_attribute 26, 1
  10              		.eabi_attribute 30, 1
  11              		.eabi_attribute 34, 0
  12              		.eabi_attribute 18, 4
  13              		.thumb
  14              		.syntax unified
  15              		.file	"CapSense.c"
  16              		.text
  17              	.Ltext0:
  18              		.cfi_sections	.debug_frame
  19              		.section	.text.CapSense_CsdHwBlockInit,"ax",%progbits
  20              		.align	2
  21              		.global	CapSense_CsdHwBlockInit
  22              		.code	16
  23              		.thumb_func
  24              		.type	CapSense_CsdHwBlockInit, %function
  25              	CapSense_CsdHwBlockInit:
  26              	.LFB33:
  27              		.file 1 "Generated_Source\\PSoC4\\CapSense.c"
   1:Generated_Source\PSoC4/CapSense.c **** /*******************************************************************************
   2:Generated_Source\PSoC4/CapSense.c **** * File Name: CapSense.c
   3:Generated_Source\PSoC4/CapSense.c **** * Version 2.60
   4:Generated_Source\PSoC4/CapSense.c **** *
   5:Generated_Source\PSoC4/CapSense.c **** * Description:
   6:Generated_Source\PSoC4/CapSense.c **** *  This file provides the source code for scanning APIs for the CapSense CSD
   7:Generated_Source\PSoC4/CapSense.c **** *  component.
   8:Generated_Source\PSoC4/CapSense.c **** *
   9:Generated_Source\PSoC4/CapSense.c **** * Note:
  10:Generated_Source\PSoC4/CapSense.c **** *
  11:Generated_Source\PSoC4/CapSense.c **** ********************************************************************************
  12:Generated_Source\PSoC4/CapSense.c **** * Copyright 2013-2016, Cypress Semiconductor Corporation.  All rights reserved.
  13:Generated_Source\PSoC4/CapSense.c **** * You may use this file only in accordance with the license, terms, conditions,
  14:Generated_Source\PSoC4/CapSense.c **** * disclaimers, and limitations in the end user license agreement accompanying
  15:Generated_Source\PSoC4/CapSense.c **** * the software package with which this file was provided.
  16:Generated_Source\PSoC4/CapSense.c **** *******************************************************************************/
  17:Generated_Source\PSoC4/CapSense.c **** 
  18:Generated_Source\PSoC4/CapSense.c **** #include "CapSense.h"
  19:Generated_Source\PSoC4/CapSense.c **** #include "CapSense_PVT.h"
  20:Generated_Source\PSoC4/CapSense.c **** #include "cypins.h"
  21:Generated_Source\PSoC4/CapSense.c **** #include "cyapicallbacks.h"
  22:Generated_Source\PSoC4/CapSense.c **** 
  23:Generated_Source\PSoC4/CapSense.c **** #if(0u != CapSense_CSHL_API_GENERATE)
  24:Generated_Source\PSoC4/CapSense.c ****     #include "CapSense_CSHL.h"
  25:Generated_Source\PSoC4/CapSense.c **** #endif /* (0u != CapSense_CSHL_API_GENERATE) */
  26:Generated_Source\PSoC4/CapSense.c **** 
  27:Generated_Source\PSoC4/CapSense.c **** /* This definition is intended to prevent unexpected linker error.
  28:Generated_Source\PSoC4/CapSense.c ****    For more details please see the IAR Technical Note 49981 */
  29:Generated_Source\PSoC4/CapSense.c **** #if defined(__ICCARM__)
  30:Generated_Source\PSoC4/CapSense.c ****     extern void CapSense_EnableSensor(uint32 sensor);
ARM GAS  C:\Users\Zeynep\AppData\Local\Temp\ccgAGQqu.s 			page 2


  31:Generated_Source\PSoC4/CapSense.c ****     extern void CapSense_DisableSensor(uint32 sensor);
  32:Generated_Source\PSoC4/CapSense.c **** #endif /* (__ICCARM__) */
  33:Generated_Source\PSoC4/CapSense.c **** 
  34:Generated_Source\PSoC4/CapSense.c **** /* SmartSense functions */
  35:Generated_Source\PSoC4/CapSense.c **** #if (CapSense_TUNING_METHOD == CapSense__TUNING_AUTO)
  36:Generated_Source\PSoC4/CapSense.c ****     uint8 CapSense_lowLevelTuningDone = 0u;
  37:Generated_Source\PSoC4/CapSense.c ****     uint8 CapSense_scanSpeedTbl[((CapSense_TOTAL_SENSOR_COUNT - 1u) / 8u) + 1u];
  38:Generated_Source\PSoC4/CapSense.c **** #endif /* (CapSense_TUNING_METHOD == CapSense__TUNING_AUTO) */
  39:Generated_Source\PSoC4/CapSense.c **** 
  40:Generated_Source\PSoC4/CapSense.c **** #if(CapSense_PRS_OPTIONS != CapSense__PRS_NONE)
  41:Generated_Source\PSoC4/CapSense.c ****     uint8 CapSense_prescalersTuningDone = 0u;
  42:Generated_Source\PSoC4/CapSense.c **** #endif /* (CapSense_PRS_OPTIONS == CapSense__PRS_NONE) */
  43:Generated_Source\PSoC4/CapSense.c **** 
  44:Generated_Source\PSoC4/CapSense.c **** /* Global software variables */
  45:Generated_Source\PSoC4/CapSense.c **** volatile uint8 CapSense_csdStatusVar = 0u;   /* CapSense CSD status, variable */
  46:Generated_Source\PSoC4/CapSense.c **** volatile uint8 CapSense_sensorIndex = 0u;    /* Index of scannig sensor */
  47:Generated_Source\PSoC4/CapSense.c **** 
  48:Generated_Source\PSoC4/CapSense.c **** /* Global array of Raw Counts */
  49:Generated_Source\PSoC4/CapSense.c **** uint16 CapSense_sensorRaw[CapSense_TOTAL_SENSOR_COUNT] = {0u};
  50:Generated_Source\PSoC4/CapSense.c **** 
  51:Generated_Source\PSoC4/CapSense.c **** /* Backup variables for trim registers*/
  52:Generated_Source\PSoC4/CapSense.c **** #if (CapSense_IDAC1_POLARITY == CapSense__IDAC_SINK)
  53:Generated_Source\PSoC4/CapSense.c ****     uint8 CapSense_csdTrim2;
  54:Generated_Source\PSoC4/CapSense.c **** #else
  55:Generated_Source\PSoC4/CapSense.c ****     uint8 CapSense_csdTrim1;
  56:Generated_Source\PSoC4/CapSense.c **** #endif /* (CapSense_IDAC1_POLARITY == CapSense__IDAC_SINK) */
  57:Generated_Source\PSoC4/CapSense.c **** 
  58:Generated_Source\PSoC4/CapSense.c **** /* Global array of un-scanned sensors state */
  59:Generated_Source\PSoC4/CapSense.c **** uint8 CapSense_unscannedSnsDriveMode[CapSense_PORT_PIN_CONFIG_TBL_ZISE];
  60:Generated_Source\PSoC4/CapSense.c **** 
  61:Generated_Source\PSoC4/CapSense.c **** /* Backup array for CapSense_sensorEnableMask */
  62:Generated_Source\PSoC4/CapSense.c **** uint8 CapSense_sensorEnableMaskBackup[(((CapSense_TOTAL_SENSOR_COUNT - 1u) / 8u) + 1u)];
  63:Generated_Source\PSoC4/CapSense.c **** 
  64:Generated_Source\PSoC4/CapSense.c **** /* Configured constants and arrays by Customizer */
  65:Generated_Source\PSoC4/CapSense.c **** uint8 CapSense_sensorEnableMask[(((CapSense_TOTAL_SENSOR_COUNT - 1u) / 8u) + 1u)] = {
  66:Generated_Source\PSoC4/CapSense.c **** 0x1Fu, };
  67:Generated_Source\PSoC4/CapSense.c **** 
  68:Generated_Source\PSoC4/CapSense.c **** reg32 * CapSense_pcTable[] = {
  69:Generated_Source\PSoC4/CapSense.c ****     (reg32 *)CapSense_Sns__LinearSlider0_e0__LS__PC, 
  70:Generated_Source\PSoC4/CapSense.c ****     (reg32 *)CapSense_Sns__LinearSlider0_e1__LS__PC, 
  71:Generated_Source\PSoC4/CapSense.c ****     (reg32 *)CapSense_Sns__LinearSlider0_e2__LS__PC, 
  72:Generated_Source\PSoC4/CapSense.c ****     (reg32 *)CapSense_Sns__LinearSlider0_e3__LS__PC, 
  73:Generated_Source\PSoC4/CapSense.c ****     (reg32 *)CapSense_Sns__LinearSlider0_e4__LS__PC, 
  74:Generated_Source\PSoC4/CapSense.c **** };
  75:Generated_Source\PSoC4/CapSense.c **** 
  76:Generated_Source\PSoC4/CapSense.c **** const uint8 CapSense_portTable[] = {
  77:Generated_Source\PSoC4/CapSense.c ****     CapSense_Sns__LinearSlider0_e0__LS__PORT, 
  78:Generated_Source\PSoC4/CapSense.c ****     CapSense_Sns__LinearSlider0_e1__LS__PORT, 
  79:Generated_Source\PSoC4/CapSense.c ****     CapSense_Sns__LinearSlider0_e2__LS__PORT, 
  80:Generated_Source\PSoC4/CapSense.c ****     CapSense_Sns__LinearSlider0_e3__LS__PORT, 
  81:Generated_Source\PSoC4/CapSense.c ****     CapSense_Sns__LinearSlider0_e4__LS__PORT, 
  82:Generated_Source\PSoC4/CapSense.c **** };
  83:Generated_Source\PSoC4/CapSense.c **** 
  84:Generated_Source\PSoC4/CapSense.c **** const uint32 CapSense_maskTable[] = {
  85:Generated_Source\PSoC4/CapSense.c ****     CapSense_Sns__LinearSlider0_e0__LS__MASK, 
  86:Generated_Source\PSoC4/CapSense.c ****     CapSense_Sns__LinearSlider0_e1__LS__MASK, 
  87:Generated_Source\PSoC4/CapSense.c ****     CapSense_Sns__LinearSlider0_e2__LS__MASK, 
ARM GAS  C:\Users\Zeynep\AppData\Local\Temp\ccgAGQqu.s 			page 3


  88:Generated_Source\PSoC4/CapSense.c ****     CapSense_Sns__LinearSlider0_e3__LS__MASK, 
  89:Generated_Source\PSoC4/CapSense.c ****     CapSense_Sns__LinearSlider0_e4__LS__MASK, 
  90:Generated_Source\PSoC4/CapSense.c **** };
  91:Generated_Source\PSoC4/CapSense.c **** 
  92:Generated_Source\PSoC4/CapSense.c **** const uint8 CapSense_pinShiftTbl[] = {
  93:Generated_Source\PSoC4/CapSense.c ****     (uint8) CapSense_Sns__LinearSlider0_e0__LS__SHIFT, 
  94:Generated_Source\PSoC4/CapSense.c ****     (uint8) CapSense_Sns__LinearSlider0_e1__LS__SHIFT, 
  95:Generated_Source\PSoC4/CapSense.c ****     (uint8) CapSense_Sns__LinearSlider0_e2__LS__SHIFT, 
  96:Generated_Source\PSoC4/CapSense.c ****     (uint8) CapSense_Sns__LinearSlider0_e3__LS__SHIFT, 
  97:Generated_Source\PSoC4/CapSense.c ****     (uint8) CapSense_Sns__LinearSlider0_e4__LS__SHIFT, 
  98:Generated_Source\PSoC4/CapSense.c **** };
  99:Generated_Source\PSoC4/CapSense.c **** 
 100:Generated_Source\PSoC4/CapSense.c **** uint8 CapSense_modulationIDAC[CapSense_TOTAL_SENSOR_COUNT];
 101:Generated_Source\PSoC4/CapSense.c **** uint8 CapSense_compensationIDAC[CapSense_TOTAL_SENSOR_COUNT];
 102:Generated_Source\PSoC4/CapSense.c **** 
 103:Generated_Source\PSoC4/CapSense.c **** uint32 CapSense_widgetResolution[CapSense_RESOLUTIONS_TBL_SIZE] = {
 104:Generated_Source\PSoC4/CapSense.c ****     CapSense_RESOLUTION_12_BITS,
 105:Generated_Source\PSoC4/CapSense.c **** };
 106:Generated_Source\PSoC4/CapSense.c **** 
 107:Generated_Source\PSoC4/CapSense.c **** uint8 CapSense_senseClkDividerVal[CapSense_TOTAL_SCANSLOT_COUNT];
 108:Generated_Source\PSoC4/CapSense.c **** uint8 CapSense_sampleClkDividerVal[CapSense_TOTAL_SCANSLOT_COUNT];
 109:Generated_Source\PSoC4/CapSense.c **** 
 110:Generated_Source\PSoC4/CapSense.c **** const uint8 CapSense_widgetNumber[CapSense_TOTAL_SENSOR_COUNT] = {
 111:Generated_Source\PSoC4/CapSense.c ****     0u, 0u, 0u, 0u, 0u, /* LinearSlider0__LS */
 112:Generated_Source\PSoC4/CapSense.c **** };
 113:Generated_Source\PSoC4/CapSense.c **** 
 114:Generated_Source\PSoC4/CapSense.c **** reg32* const CapSense_prtSelTbl[CapSense_CFG_REG_TBL_SIZE] = {
 115:Generated_Source\PSoC4/CapSense.c ****     ((reg32 *) CYREG_HSIOM_PORT_SEL0),
 116:Generated_Source\PSoC4/CapSense.c ****     ((reg32 *) CYREG_HSIOM_PORT_SEL1),
 117:Generated_Source\PSoC4/CapSense.c ****     ((reg32 *) CYREG_HSIOM_PORT_SEL2),
 118:Generated_Source\PSoC4/CapSense.c ****     ((reg32 *) CYREG_HSIOM_PORT_SEL3),
 119:Generated_Source\PSoC4/CapSense.c ****     ((reg32 *) CYREG_HSIOM_PORT_SEL4),
 120:Generated_Source\PSoC4/CapSense.c **** };
 121:Generated_Source\PSoC4/CapSense.c **** 
 122:Generated_Source\PSoC4/CapSense.c **** reg32* const CapSense_prtCfgTbl[CapSense_CFG_REG_TBL_SIZE] = {
 123:Generated_Source\PSoC4/CapSense.c ****     ((reg32 *) CYREG_PRT0_PC),
 124:Generated_Source\PSoC4/CapSense.c ****     ((reg32 *) CYREG_PRT1_PC),
 125:Generated_Source\PSoC4/CapSense.c ****     ((reg32 *) CYREG_PRT2_PC),
 126:Generated_Source\PSoC4/CapSense.c ****     ((reg32 *) CYREG_PRT3_PC),
 127:Generated_Source\PSoC4/CapSense.c ****     ((reg32 *) CYREG_PRT4_PC),
 128:Generated_Source\PSoC4/CapSense.c **** };
 129:Generated_Source\PSoC4/CapSense.c **** 
 130:Generated_Source\PSoC4/CapSense.c **** reg32* const CapSense_prtDRTbl[CapSense_CFG_REG_TBL_SIZE] = {
 131:Generated_Source\PSoC4/CapSense.c ****     ((reg32 *) CYREG_PRT0_DR),
 132:Generated_Source\PSoC4/CapSense.c ****     ((reg32 *) CYREG_PRT1_DR),
 133:Generated_Source\PSoC4/CapSense.c ****     ((reg32 *) CYREG_PRT2_DR),
 134:Generated_Source\PSoC4/CapSense.c ****     ((reg32 *) CYREG_PRT3_DR),
 135:Generated_Source\PSoC4/CapSense.c ****     ((reg32 *) CYREG_PRT4_DR),
 136:Generated_Source\PSoC4/CapSense.c **** };
 137:Generated_Source\PSoC4/CapSense.c **** 
 138:Generated_Source\PSoC4/CapSense.c **** 
 139:Generated_Source\PSoC4/CapSense.c **** 
 140:Generated_Source\PSoC4/CapSense.c **** /*******************************************************************************
 141:Generated_Source\PSoC4/CapSense.c **** * Function Name: CapSense_Init
 142:Generated_Source\PSoC4/CapSense.c **** ********************************************************************************
 143:Generated_Source\PSoC4/CapSense.c **** *
 144:Generated_Source\PSoC4/CapSense.c **** * Summary:
ARM GAS  C:\Users\Zeynep\AppData\Local\Temp\ccgAGQqu.s 			page 4


 145:Generated_Source\PSoC4/CapSense.c **** *  API initializes default CapSense configuration provided by the customizer that defines
 146:Generated_Source\PSoC4/CapSense.c **** *  the mode of component operations and resets all the sensors to an inactive state.
 147:Generated_Source\PSoC4/CapSense.c **** *
 148:Generated_Source\PSoC4/CapSense.c **** * Parameters:
 149:Generated_Source\PSoC4/CapSense.c **** *  None
 150:Generated_Source\PSoC4/CapSense.c **** *
 151:Generated_Source\PSoC4/CapSense.c **** * Return:
 152:Generated_Source\PSoC4/CapSense.c **** *  None
 153:Generated_Source\PSoC4/CapSense.c **** *
 154:Generated_Source\PSoC4/CapSense.c **** * Global Variables:
 155:Generated_Source\PSoC4/CapSense.c **** *  CapSense_immunityIndex - defines immunity level.
 156:Generated_Source\PSoC4/CapSense.c **** *
 157:Generated_Source\PSoC4/CapSense.c **** * Side Effects:
 158:Generated_Source\PSoC4/CapSense.c **** *  None
 159:Generated_Source\PSoC4/CapSense.c **** *
 160:Generated_Source\PSoC4/CapSense.c **** *******************************************************************************/
 161:Generated_Source\PSoC4/CapSense.c **** void CapSense_Init(void)
 162:Generated_Source\PSoC4/CapSense.c **** {
 163:Generated_Source\PSoC4/CapSense.c ****     uint32 curSensor;
 164:Generated_Source\PSoC4/CapSense.c **** 
 165:Generated_Source\PSoC4/CapSense.c ****     #if(CapSense_IS_SHIELD_ENABLE)
 166:Generated_Source\PSoC4/CapSense.c **** 
 167:Generated_Source\PSoC4/CapSense.c ****         #if((CapSense_CSH_TANK_PREGARGE_OPTION == CapSense__CAPPRIOBUF) || (0u != CapSense_CSH_TANK
 168:Generated_Source\PSoC4/CapSense.c ****             uint32 newRegValue;
 169:Generated_Source\PSoC4/CapSense.c **** 
 170:Generated_Source\PSoC4/CapSense.c ****             newRegValue = CapSense_CTANK_CONNECTION_REG;
 171:Generated_Source\PSoC4/CapSense.c ****             newRegValue &= ~(CapSense_CSD_CTANK_CONNECTION_MASK);
 172:Generated_Source\PSoC4/CapSense.c ****             newRegValue |= CapSense_CSD_CTANK_TO_AMUXBUS_B;
 173:Generated_Source\PSoC4/CapSense.c ****             CapSense_CTANK_CONNECTION_REG = newRegValue;
 174:Generated_Source\PSoC4/CapSense.c **** 
 175:Generated_Source\PSoC4/CapSense.c ****             #if(CapSense_CSH_TANK_PREGARGE_OPTION == CapSense__CAPPRIOBUF)
 176:Generated_Source\PSoC4/CapSense.c ****                 newRegValue = CapSense_CTANK_PORT_PC_REG;
 177:Generated_Source\PSoC4/CapSense.c ****                 newRegValue &= ~(CapSense_CSD_CTANK_PC_MASK);
 178:Generated_Source\PSoC4/CapSense.c ****                 newRegValue |= CapSense_CTANK_PC_STRONG_MODE;
 179:Generated_Source\PSoC4/CapSense.c ****                 CapSense_CTANK_PORT_PC_REG = newRegValue;
 180:Generated_Source\PSoC4/CapSense.c **** 
 181:Generated_Source\PSoC4/CapSense.c ****                 newRegValue = CapSense_CTANK_PORT_DR_REG;
 182:Generated_Source\PSoC4/CapSense.c ****                 newRegValue &= ~(CapSense_CTANK_DR_MASK);
 183:Generated_Source\PSoC4/CapSense.c ****                 newRegValue |= CapSense_CTANK_DR_CONFIG;
 184:Generated_Source\PSoC4/CapSense.c ****                 CapSense_CTANK_PORT_DR_REG = newRegValue;
 185:Generated_Source\PSoC4/CapSense.c ****             #endif /* (CapSense_CSH_TANK_PREGARGE_OPTION == CapSense__CAPPRIOBUF) */
 186:Generated_Source\PSoC4/CapSense.c **** 
 187:Generated_Source\PSoC4/CapSense.c ****         #endif /* ((CapSense_CSH_TANK_PREGARGE_OPTION == CapSense__CAPPRIOBUF) || (CapSense_CSH_TAN
 188:Generated_Source\PSoC4/CapSense.c **** 
 189:Generated_Source\PSoC4/CapSense.c ****         CapSense_EnableShieldElectrode((uint32)CapSense_SHIELD_PIN_NUMBER, (uint32)CapSense_SHIELD_
 190:Generated_Source\PSoC4/CapSense.c **** 
 191:Generated_Source\PSoC4/CapSense.c ****     #endif /* (CapSense_IS_SHIELD_ENABLE) */
 192:Generated_Source\PSoC4/CapSense.c **** 
 193:Generated_Source\PSoC4/CapSense.c ****     for(curSensor = 0u; curSensor < CapSense_TOTAL_SENSOR_COUNT; curSensor++)
 194:Generated_Source\PSoC4/CapSense.c ****     {
 195:Generated_Source\PSoC4/CapSense.c ****         CapSense_SetUnscannedSensorState(curSensor, CapSense_CONNECT_INACTIVE_SNS);
 196:Generated_Source\PSoC4/CapSense.c ****     }
 197:Generated_Source\PSoC4/CapSense.c **** 
 198:Generated_Source\PSoC4/CapSense.c ****     CapSense_CsdHwBlockInit();
 199:Generated_Source\PSoC4/CapSense.c ****     CapSense_SetShieldDelay(CapSense_SHIELD_DELAY );
 200:Generated_Source\PSoC4/CapSense.c **** 
 201:Generated_Source\PSoC4/CapSense.c ****     /* Clear all sensors */
ARM GAS  C:\Users\Zeynep\AppData\Local\Temp\ccgAGQqu.s 			page 5


 202:Generated_Source\PSoC4/CapSense.c ****     CapSense_ClearSensors();
 203:Generated_Source\PSoC4/CapSense.c **** }
 204:Generated_Source\PSoC4/CapSense.c **** 
 205:Generated_Source\PSoC4/CapSense.c **** /*******************************************************************************
 206:Generated_Source\PSoC4/CapSense.c **** * Function Name: CapSense_CsdHwBlockInit
 207:Generated_Source\PSoC4/CapSense.c **** ********************************************************************************
 208:Generated_Source\PSoC4/CapSense.c **** *
 209:Generated_Source\PSoC4/CapSense.c **** * Summary:
 210:Generated_Source\PSoC4/CapSense.c **** *  Initialises the hardware parameters of the CSD block
 211:Generated_Source\PSoC4/CapSense.c **** *
 212:Generated_Source\PSoC4/CapSense.c **** * Parameters:
 213:Generated_Source\PSoC4/CapSense.c **** *  None
 214:Generated_Source\PSoC4/CapSense.c **** *
 215:Generated_Source\PSoC4/CapSense.c **** * Return:
 216:Generated_Source\PSoC4/CapSense.c **** *  None
 217:Generated_Source\PSoC4/CapSense.c **** *
 218:Generated_Source\PSoC4/CapSense.c **** * Global Variables:
 219:Generated_Source\PSoC4/CapSense.c **** *  CapSense_csdTrim1 - Contains IDAC trim register value for Sourcing Mode.
 220:Generated_Source\PSoC4/CapSense.c **** *  CapSense_csdTrim2 - Contains IDAC trim register value for Sinking Mode.
 221:Generated_Source\PSoC4/CapSense.c **** *
 222:Generated_Source\PSoC4/CapSense.c **** * Side Effects:
 223:Generated_Source\PSoC4/CapSense.c **** *  None
 224:Generated_Source\PSoC4/CapSense.c **** *
 225:Generated_Source\PSoC4/CapSense.c **** *******************************************************************************/
 226:Generated_Source\PSoC4/CapSense.c **** void CapSense_CsdHwBlockInit(void)
 227:Generated_Source\PSoC4/CapSense.c **** {
  28              		.loc 1 227 0
  29              		.cfi_startproc
  30              		@ args = 0, pretend = 0, frame = 0
  31              		@ frame_needed = 0, uses_anonymous_args = 0
  32 0000 70B5     		push	{r4, r5, r6, lr}
  33              		.cfi_def_cfa_offset 16
  34              		.cfi_offset 4, -16
  35              		.cfi_offset 5, -12
  36              		.cfi_offset 6, -8
  37              		.cfi_offset 14, -4
 228:Generated_Source\PSoC4/CapSense.c ****     uint32 newRegValue;
 229:Generated_Source\PSoC4/CapSense.c **** 
 230:Generated_Source\PSoC4/CapSense.c ****         /* Set trim registers for CSD Mode */
 231:Generated_Source\PSoC4/CapSense.c ****     #if (CapSense_IDAC1_POLARITY == CapSense__IDAC_SINK)
 232:Generated_Source\PSoC4/CapSense.c ****         /* iDAC1 Sinking Mode */
 233:Generated_Source\PSoC4/CapSense.c ****         CapSense_csdTrim2 = (uint8)CapSense_CSD_TRIM2_REG;
 234:Generated_Source\PSoC4/CapSense.c ****         newRegValue = CapSense_csdTrim2;
 235:Generated_Source\PSoC4/CapSense.c ****         newRegValue &= CapSense_CSD_IDAC1_TRIM_MASK;
 236:Generated_Source\PSoC4/CapSense.c ****         newRegValue |= (uint32)((uint32)CapSense_SFLASH_CSD_TRIM2_REG & (uint32)CapSense_CSFLASH_TR
 237:Generated_Source\PSoC4/CapSense.c **** 
 238:Generated_Source\PSoC4/CapSense.c ****         #if (CapSense_IDAC_CNT == 2u)
 239:Generated_Source\PSoC4/CapSense.c ****             /* iDAC2 Sinking Mode */
 240:Generated_Source\PSoC4/CapSense.c ****             newRegValue &= CapSense_CSD_IDAC2_TRIM_MASK;
 241:Generated_Source\PSoC4/CapSense.c ****             newRegValue |= (uint32)((uint32)CapSense_SFLASH_CSD_TRIM2_REG & (uint32)CapSense_CSFLAS
 242:Generated_Source\PSoC4/CapSense.c ****         #endif /* (CapSense_IDAC_CNT == 2u) */
 243:Generated_Source\PSoC4/CapSense.c ****         CapSense_CSD_TRIM2_REG = newRegValue;
 244:Generated_Source\PSoC4/CapSense.c ****     #else
 245:Generated_Source\PSoC4/CapSense.c ****         /* iDAC1 Sourcing Mode */
 246:Generated_Source\PSoC4/CapSense.c ****         CapSense_csdTrim1 = (uint8)CapSense_CSD_TRIM1_REG;
  38              		.loc 1 246 0
  39 0002 1648     		ldr	r0, .L2
ARM GAS  C:\Users\Zeynep\AppData\Local\Temp\ccgAGQqu.s 			page 6


  40 0004 0368     		ldr	r3, [r0]
  41 0006 DBB2     		uxtb	r3, r3
  42 0008 154A     		ldr	r2, .L2+4
  43 000a 1370     		strb	r3, [r2]
  44              	.LVL0:
 247:Generated_Source\PSoC4/CapSense.c ****         newRegValue = CapSense_csdTrim1;
 248:Generated_Source\PSoC4/CapSense.c ****         newRegValue &= CapSense_CSD_IDAC1_TRIM_MASK;
  45              		.loc 1 248 0
  46 000c 0F24     		movs	r4, #15
  47 000e A343     		bics	r3, r4
  48              	.LVL1:
  49 0010 1900     		movs	r1, r3
  50              	.LVL2:
 249:Generated_Source\PSoC4/CapSense.c ****         newRegValue |= (uint32)((uint32)CapSense_SFLASH_CSD_TRIM1_REG & (uint32)CapSense_CSFLASH_TR
  51              		.loc 1 249 0
  52 0012 144D     		ldr	r5, .L2+8
  53 0014 2B78     		ldrb	r3, [r5]
  54 0016 0F22     		movs	r2, #15
  55 0018 1340     		ands	r3, r2
  56 001a 0B43     		orrs	r3, r1
  57              	.LVL3:
 250:Generated_Source\PSoC4/CapSense.c ****         #if (CapSense_IDAC_CNT == 2u)
 251:Generated_Source\PSoC4/CapSense.c ****              /* iDAC2 Sourcing Mode */
 252:Generated_Source\PSoC4/CapSense.c ****             newRegValue &= CapSense_CSD_IDAC2_TRIM_MASK;
  58              		.loc 1 252 0
  59 001c E132     		adds	r2, r2, #225
  60 001e 9343     		bics	r3, r2
  61              	.LVL4:
 253:Generated_Source\PSoC4/CapSense.c ****             newRegValue |= (uint32)((uint32)CapSense_SFLASH_CSD_TRIM1_REG & (uint32)CapSense_CSFLAS
  62              		.loc 1 253 0
  63 0020 2A78     		ldrb	r2, [r5]
  64 0022 A243     		bics	r2, r4
  65 0024 1343     		orrs	r3, r2
  66              	.LVL5:
 254:Generated_Source\PSoC4/CapSense.c ****         #endif
 255:Generated_Source\PSoC4/CapSense.c ****         CapSense_CSD_TRIM1_REG = newRegValue;
  67              		.loc 1 255 0
  68 0026 0360     		str	r3, [r0]
 256:Generated_Source\PSoC4/CapSense.c ****     #endif /* (CapSense_IDAC1_POLARITY == CapSense__IDAC_SINK) */
 257:Generated_Source\PSoC4/CapSense.c **** 
 258:Generated_Source\PSoC4/CapSense.c ****     /* Configure CSD and IDAC */
 259:Generated_Source\PSoC4/CapSense.c ****     #if (CapSense_IDAC_CNT > 1u)
 260:Generated_Source\PSoC4/CapSense.c ****         CapSense_CSD_IDAC_REG = CapSense_DEFAULT_CSD_IDAC_CONFIG;
  69              		.loc 1 260 0
  70 0028 0F4A     		ldr	r2, .L2+12
  71 002a 104B     		ldr	r3, .L2+16
  72              	.LVL6:
  73 002c 1A60     		str	r2, [r3]
  74              	.LVL7:
 261:Generated_Source\PSoC4/CapSense.c ****         CapSense_CSD_CFG_REG = CapSense_DEFAULT_CSD_CONFIG;
  75              		.loc 1 261 0
  76 002e 104A     		ldr	r2, .L2+20
  77 0030 104B     		ldr	r3, .L2+24
  78 0032 1A60     		str	r2, [r3]
 262:Generated_Source\PSoC4/CapSense.c ****     #else
 263:Generated_Source\PSoC4/CapSense.c ****         CapSense_CSD_IDAC_REG &= ~(CapSense_CSD_IDAC1_MODE_MASK  | CapSense_CSD_IDAC1_DATA_MASK);
 264:Generated_Source\PSoC4/CapSense.c ****         CapSense_CSD_IDAC_REG |= CapSense_DEFAULT_CSD_IDAC_CONFIG;
ARM GAS  C:\Users\Zeynep\AppData\Local\Temp\ccgAGQqu.s 			page 7


 265:Generated_Source\PSoC4/CapSense.c **** 
 266:Generated_Source\PSoC4/CapSense.c ****         CapSense_CSD_CFG_REG &= ~(CapSense_CSD_CONFIG_MASK);
 267:Generated_Source\PSoC4/CapSense.c ****         CapSense_CSD_CFG_REG |= (CapSense_DEFAULT_CSD_CONFIG);
 268:Generated_Source\PSoC4/CapSense.c ****     #endif /* (CapSense_IDAC_CNT > 1u) */
 269:Generated_Source\PSoC4/CapSense.c **** 
 270:Generated_Source\PSoC4/CapSense.c **** 
 271:Generated_Source\PSoC4/CapSense.c ****     /* Connect Cmod to AMUX bus */
 272:Generated_Source\PSoC4/CapSense.c ****     newRegValue = CapSense_CMOD_CONNECTION_REG;
  79              		.loc 1 272 0
  80 0034 104A     		ldr	r2, .L2+28
  81 0036 1168     		ldr	r1, [r2]
  82              	.LVL8:
 273:Generated_Source\PSoC4/CapSense.c ****     newRegValue &= ~(CapSense_CSD_CMOD_CONNECTION_MASK);
  83              		.loc 1 273 0
  84 0038 104B     		ldr	r3, .L2+32
  85 003a 0B40     		ands	r3, r1
  86              	.LVL9:
 274:Generated_Source\PSoC4/CapSense.c ****     newRegValue |= CapSense_CSD_CMOD_TO_AMUXBUS_A;
  87              		.loc 1 274 0
  88 003c C021     		movs	r1, #192
  89 003e C900     		lsls	r1, r1, #3
  90 0040 0B43     		orrs	r3, r1
  91              	.LVL10:
 275:Generated_Source\PSoC4/CapSense.c ****     CapSense_CMOD_CONNECTION_REG = newRegValue;
  92              		.loc 1 275 0
  93 0042 1360     		str	r3, [r2]
 276:Generated_Source\PSoC4/CapSense.c **** 
 277:Generated_Source\PSoC4/CapSense.c ****     /* Configure Dead Band PWM if it is enabled */
 278:Generated_Source\PSoC4/CapSense.c ****     #if(CapSense_CSD_4B_PWM_MODE != CapSense__PWM_OFF)
 279:Generated_Source\PSoC4/CapSense.c ****         CapSense_CSD_4B_PWM_REG = CapSense_DEFAULT_CSD_4B_PWM_CONFIG;
 280:Generated_Source\PSoC4/CapSense.c ****     #endif /* (CapSense_CSD_4B_PWM_MODE != CapSense__PWM_OFF) */
 281:Generated_Source\PSoC4/CapSense.c **** 
 282:Generated_Source\PSoC4/CapSense.c ****     /* Setup ISR */
 283:Generated_Source\PSoC4/CapSense.c ****     CyIntDisable(CapSense_ISR_NUMBER);
  94              		.loc 1 283 0
  95 0044 0F20     		movs	r0, #15
  96 0046 FFF7FEFF 		bl	CyIntDisable
  97              	.LVL11:
 284:Generated_Source\PSoC4/CapSense.c ****     #if !defined(CY_EXTERNAL_INTERRUPT_CONFIG)
 285:Generated_Source\PSoC4/CapSense.c ****         (void)CyIntSetVector(CapSense_ISR_NUMBER, &CapSense_ISR);
  98              		.loc 1 285 0
  99 004a 0D49     		ldr	r1, .L2+36
 100 004c 0F20     		movs	r0, #15
 101 004e FFF7FEFF 		bl	CyIntSetVector
 102              	.LVL12:
 286:Generated_Source\PSoC4/CapSense.c ****         CyIntSetPriority(CapSense_ISR_NUMBER, CapSense_ISR_PRIORITY);
 103              		.loc 1 286 0
 104 0052 0321     		movs	r1, #3
 105 0054 0F20     		movs	r0, #15
 106 0056 FFF7FEFF 		bl	CyIntSetPriority
 107              	.LVL13:
 287:Generated_Source\PSoC4/CapSense.c ****     #endif /* (CY_EXTERNAL_INTERRUPT_CONFIG) */
 288:Generated_Source\PSoC4/CapSense.c **** }
 108              		.loc 1 288 0
 109              		@ sp needed
 110 005a 70BD     		pop	{r4, r5, r6, pc}
 111              	.L3:
ARM GAS  C:\Users\Zeynep\AppData\Local\Temp\ccgAGQqu.s 			page 8


 112              		.align	2
 113              	.L2:
 114 005c 00FF0840 		.word	1074331392
 115 0060 00000000 		.word	CapSense_csdTrim1
 116 0064 62F1FF0F 		.word	268431714
 117 0068 00020001 		.word	16777728
 118 006c 08000840 		.word	1074266120
 119 0070 0008A001 		.word	27265024
 120 0074 04000840 		.word	1074266116
 121 0078 10000140 		.word	1073807376
 122 007c FFF0FFFF 		.word	-3841
 123 0080 00000000 		.word	CapSense_ISR
 124              		.cfi_endproc
 125              	.LFE33:
 126              		.size	CapSense_CsdHwBlockInit, .-CapSense_CsdHwBlockInit
 127              		.section	.text.CapSense_Enable,"ax",%progbits
 128              		.align	2
 129              		.global	CapSense_Enable
 130              		.code	16
 131              		.thumb_func
 132              		.type	CapSense_Enable, %function
 133              	CapSense_Enable:
 134              	.LFB34:
 289:Generated_Source\PSoC4/CapSense.c **** 
 290:Generated_Source\PSoC4/CapSense.c **** 
 291:Generated_Source\PSoC4/CapSense.c **** /*******************************************************************************
 292:Generated_Source\PSoC4/CapSense.c **** * Function Name: CapSense_Enable
 293:Generated_Source\PSoC4/CapSense.c **** ********************************************************************************
 294:Generated_Source\PSoC4/CapSense.c **** *
 295:Generated_Source\PSoC4/CapSense.c **** * Summary:
 296:Generated_Source\PSoC4/CapSense.c **** *  Enables the CSD block and related resources to an active mode.
 297:Generated_Source\PSoC4/CapSense.c **** *
 298:Generated_Source\PSoC4/CapSense.c **** * Parameters:
 299:Generated_Source\PSoC4/CapSense.c **** *  None
 300:Generated_Source\PSoC4/CapSense.c **** *
 301:Generated_Source\PSoC4/CapSense.c **** * Return:
 302:Generated_Source\PSoC4/CapSense.c **** *  None
 303:Generated_Source\PSoC4/CapSense.c **** *
 304:Generated_Source\PSoC4/CapSense.c **** * Global Variables:
 305:Generated_Source\PSoC4/CapSense.c **** *  None.
 306:Generated_Source\PSoC4/CapSense.c **** *
 307:Generated_Source\PSoC4/CapSense.c **** * Side Effects:
 308:Generated_Source\PSoC4/CapSense.c **** *  None
 309:Generated_Source\PSoC4/CapSense.c **** *
 310:Generated_Source\PSoC4/CapSense.c **** *******************************************************************************/
 311:Generated_Source\PSoC4/CapSense.c **** void CapSense_Enable(void)
 312:Generated_Source\PSoC4/CapSense.c **** {
 135              		.loc 1 312 0
 136              		.cfi_startproc
 137              		@ args = 0, pretend = 0, frame = 0
 138              		@ frame_needed = 0, uses_anonymous_args = 0
 139 0000 10B5     		push	{r4, lr}
 140              		.cfi_def_cfa_offset 8
 141              		.cfi_offset 4, -8
 142              		.cfi_offset 14, -4
 313:Generated_Source\PSoC4/CapSense.c ****     uint32 newRegValue;
 314:Generated_Source\PSoC4/CapSense.c **** 
ARM GAS  C:\Users\Zeynep\AppData\Local\Temp\ccgAGQqu.s 			page 9


 315:Generated_Source\PSoC4/CapSense.c ****     /* Enable Clocks */
 316:Generated_Source\PSoC4/CapSense.c ****     CapSense_SenseClk_Stop();
 143              		.loc 1 316 0
 144 0002 FFF7FEFF 		bl	CapSense_SenseClk_Stop
 145              	.LVL14:
 317:Generated_Source\PSoC4/CapSense.c ****     CapSense_SampleClk_Stop();
 146              		.loc 1 317 0
 147 0006 FFF7FEFF 		bl	CapSense_SampleClk_Stop
 148              	.LVL15:
 318:Generated_Source\PSoC4/CapSense.c **** 
 319:Generated_Source\PSoC4/CapSense.c ****     CapSense_SampleClk_SetDividerValue((uint16)CapSense_INITIAL_CLK_DIVIDER);
 149              		.loc 1 319 0
 150 000a 0021     		movs	r1, #0
 151 000c 0020     		movs	r0, #0
 152 000e FFF7FEFF 		bl	CapSense_SampleClk_SetFractionalDividerRegister
 153              	.LVL16:
 320:Generated_Source\PSoC4/CapSense.c ****     CapSense_SenseClk_SetDividerValue((uint16)CapSense_INITIAL_CLK_DIVIDER);
 154              		.loc 1 320 0
 155 0012 0021     		movs	r1, #0
 156 0014 0020     		movs	r0, #0
 157 0016 FFF7FEFF 		bl	CapSense_SenseClk_SetFractionalDividerRegister
 158              	.LVL17:
 321:Generated_Source\PSoC4/CapSense.c **** 
 322:Generated_Source\PSoC4/CapSense.c ****     #if (0u == CapSense_IS_M0S8PERI_BLOCK)
 323:Generated_Source\PSoC4/CapSense.c ****         CapSense_SenseClk_Start();
 159              		.loc 1 323 0
 160 001a FFF7FEFF 		bl	CapSense_SenseClk_Start
 161              	.LVL18:
 324:Generated_Source\PSoC4/CapSense.c ****         CapSense_SampleClk_Start();
 162              		.loc 1 324 0
 163 001e FFF7FEFF 		bl	CapSense_SampleClk_Start
 164              	.LVL19:
 325:Generated_Source\PSoC4/CapSense.c ****     #else
 326:Generated_Source\PSoC4/CapSense.c ****         CapSense_SampleClk_Start();
 327:Generated_Source\PSoC4/CapSense.c ****         CapSense_SenseClk_StartEx(CapSense_SampleClk__DIV_ID);
 328:Generated_Source\PSoC4/CapSense.c ****     #endif /* (0u == CapSense_IS_M0S8PERI_BLOCK) */
 329:Generated_Source\PSoC4/CapSense.c **** 
 330:Generated_Source\PSoC4/CapSense.c ****     /* Enable the CSD block */
 331:Generated_Source\PSoC4/CapSense.c ****     newRegValue = CapSense_CSD_CFG_REG;
 165              		.loc 1 331 0
 166 0022 044A     		ldr	r2, .L5
 167 0024 1368     		ldr	r3, [r2]
 168              	.LVL20:
 332:Generated_Source\PSoC4/CapSense.c ****     newRegValue |= (CapSense_CSD_CFG_ENABLE | CapSense_CSD_CFG_SENSE_COMP_EN
 169              		.loc 1 332 0
 170 0026 0449     		ldr	r1, .L5+4
 171 0028 0B43     		orrs	r3, r1
 172              	.LVL21:
 333:Generated_Source\PSoC4/CapSense.c ****                                                    | CapSense_CSD_CFG_SENSE_EN);
 334:Generated_Source\PSoC4/CapSense.c ****     CapSense_CSD_CFG_REG = newRegValue;
 173              		.loc 1 334 0
 174 002a 1360     		str	r3, [r2]
 335:Generated_Source\PSoC4/CapSense.c **** 
 336:Generated_Source\PSoC4/CapSense.c ****     /* Enable interrupt */
 337:Generated_Source\PSoC4/CapSense.c ****     CyIntEnable(CapSense_ISR_NUMBER);
 175              		.loc 1 337 0
 176 002c 0F20     		movs	r0, #15
ARM GAS  C:\Users\Zeynep\AppData\Local\Temp\ccgAGQqu.s 			page 10


 177 002e FFF7FEFF 		bl	CyIntEnable
 178              	.LVL22:
 338:Generated_Source\PSoC4/CapSense.c **** }
 179              		.loc 1 338 0
 180              		@ sp needed
 181 0032 10BD     		pop	{r4, pc}
 182              	.L6:
 183              		.align	2
 184              	.L5:
 185 0034 04000840 		.word	1074266116
 186 0038 00100880 		.word	-2146955264
 187              		.cfi_endproc
 188              	.LFE34:
 189              		.size	CapSense_Enable, .-CapSense_Enable
 190              		.section	.text.CapSense_Stop,"ax",%progbits
 191              		.align	2
 192              		.global	CapSense_Stop
 193              		.code	16
 194              		.thumb_func
 195              		.type	CapSense_Stop, %function
 196              	CapSense_Stop:
 197              	.LFB36:
 339:Generated_Source\PSoC4/CapSense.c **** 
 340:Generated_Source\PSoC4/CapSense.c **** 
 341:Generated_Source\PSoC4/CapSense.c **** /*******************************************************************************
 342:Generated_Source\PSoC4/CapSense.c **** * Function Name: CapSense_Start
 343:Generated_Source\PSoC4/CapSense.c **** ********************************************************************************
 344:Generated_Source\PSoC4/CapSense.c **** *
 345:Generated_Source\PSoC4/CapSense.c **** * Summary:
 346:Generated_Source\PSoC4/CapSense.c **** *  This is the preferred method to begin the component operation. CapSense_Start()
 347:Generated_Source\PSoC4/CapSense.c **** *  calls the CapSense_Init() function, and then calls the CapSense_Enable()
 348:Generated_Source\PSoC4/CapSense.c **** *  function. Initializes the registers and starts the CSD method of the CapSense
 349:Generated_Source\PSoC4/CapSense.c **** *  component. Resets all the sensors to an inactive state. Enables interrupts for
 350:Generated_Source\PSoC4/CapSense.c **** *  sensors scanning. When the SmartSense tuning mode is selected, the tuning procedure
 351:Generated_Source\PSoC4/CapSense.c **** *  is applied for all the sensors. The CapSense_Start() routine must be called before
 352:Generated_Source\PSoC4/CapSense.c **** *  any other API routines.
 353:Generated_Source\PSoC4/CapSense.c **** *
 354:Generated_Source\PSoC4/CapSense.c **** * Parameters:
 355:Generated_Source\PSoC4/CapSense.c **** *  None
 356:Generated_Source\PSoC4/CapSense.c **** *
 357:Generated_Source\PSoC4/CapSense.c **** * Return:
 358:Generated_Source\PSoC4/CapSense.c **** *  None
 359:Generated_Source\PSoC4/CapSense.c **** *
 360:Generated_Source\PSoC4/CapSense.c **** * Global Variables:
 361:Generated_Source\PSoC4/CapSense.c **** *   CapSense_initVar - used to check the initial configuration,
 362:Generated_Source\PSoC4/CapSense.c **** *   modified on the first function call.
 363:Generated_Source\PSoC4/CapSense.c **** *  CapSense_lowLevelTuningDone - Used to notify the Tuner GUI that
 364:Generated_Source\PSoC4/CapSense.c **** *   tuning of the scanning parameters is done.
 365:Generated_Source\PSoC4/CapSense.c **** *
 366:Generated_Source\PSoC4/CapSense.c **** * Side Effects:
 367:Generated_Source\PSoC4/CapSense.c **** *  None
 368:Generated_Source\PSoC4/CapSense.c **** *
 369:Generated_Source\PSoC4/CapSense.c **** *******************************************************************************/
 370:Generated_Source\PSoC4/CapSense.c **** void CapSense_Start(void)
 371:Generated_Source\PSoC4/CapSense.c **** {
 372:Generated_Source\PSoC4/CapSense.c **** 
 373:Generated_Source\PSoC4/CapSense.c ****     static uint8 CapSense_initVar = 0u;
ARM GAS  C:\Users\Zeynep\AppData\Local\Temp\ccgAGQqu.s 			page 11


 374:Generated_Source\PSoC4/CapSense.c **** 
 375:Generated_Source\PSoC4/CapSense.c ****     #if((0u != CapSense_AUTOCALIBRATION_ENABLE) && (CapSense_TUNING_METHOD != CapSense__TUNING_AUTO
 376:Generated_Source\PSoC4/CapSense.c ****         uint32 curSensor;
 377:Generated_Source\PSoC4/CapSense.c ****         uint32 rawLevel;
 378:Generated_Source\PSoC4/CapSense.c ****         uint32 widget;
 379:Generated_Source\PSoC4/CapSense.c ****     #endif /* ((0u != CapSense_AUTOCALIBRATION_ENABLE) && (CapSense_TUNING_METHOD != CapSense__TUNI
 380:Generated_Source\PSoC4/CapSense.c **** 
 381:Generated_Source\PSoC4/CapSense.c ****     if (CapSense_initVar == 0u)
 382:Generated_Source\PSoC4/CapSense.c ****     {
 383:Generated_Source\PSoC4/CapSense.c ****         CapSense_Init();
 384:Generated_Source\PSoC4/CapSense.c ****         CapSense_initVar = 1u;
 385:Generated_Source\PSoC4/CapSense.c ****     }
 386:Generated_Source\PSoC4/CapSense.c ****     CapSense_Enable();
 387:Generated_Source\PSoC4/CapSense.c **** 
 388:Generated_Source\PSoC4/CapSense.c ****     /* AutoTunning start */
 389:Generated_Source\PSoC4/CapSense.c ****     #if(CapSense_TUNING_METHOD == CapSense__TUNING_AUTO)
 390:Generated_Source\PSoC4/CapSense.c ****         #if(0u != CapSense_CSHL_API_GENERATE)
 391:Generated_Source\PSoC4/CapSense.c ****             CapSense_AutoTune();
 392:Generated_Source\PSoC4/CapSense.c ****             CapSense_lowLevelTuningDone = 1u;
 393:Generated_Source\PSoC4/CapSense.c ****         #endif /* (0u != CapSense_CSHL_API_GENERATE) */
 394:Generated_Source\PSoC4/CapSense.c ****     #else
 395:Generated_Source\PSoC4/CapSense.c ****         #if(0u != CapSense_AUTOCALIBRATION_ENABLE)
 396:Generated_Source\PSoC4/CapSense.c **** 
 397:Generated_Source\PSoC4/CapSense.c ****             #if(CapSense_IDAC_CNT > 1u)
 398:Generated_Source\PSoC4/CapSense.c ****                 CapSense_CSD_IDAC_REG &= ~(CapSense_CSD_IDAC2_MODE_MASK);
 399:Generated_Source\PSoC4/CapSense.c ****             #endif /* (CapSense_IDAC_CNT > 1u) */
 400:Generated_Source\PSoC4/CapSense.c **** 
 401:Generated_Source\PSoC4/CapSense.c ****             for(curSensor = 0u; curSensor < CapSense_TOTAL_SCANSLOT_COUNT; curSensor++)
 402:Generated_Source\PSoC4/CapSense.c ****             {
 403:Generated_Source\PSoC4/CapSense.c ****                 widget = CapSense_widgetNumber[curSensor];
 404:Generated_Source\PSoC4/CapSense.c ****                 rawLevel = CapSense_widgetResolution[widget] >> CapSense_RESOLUTION_OFFSET;
 405:Generated_Source\PSoC4/CapSense.c **** 
 406:Generated_Source\PSoC4/CapSense.c ****                 /* Calibration level should be equal to 85% from scanning resolution */
 407:Generated_Source\PSoC4/CapSense.c ****                 rawLevel = (rawLevel * 85u) / 100u;
 408:Generated_Source\PSoC4/CapSense.c **** 
 409:Generated_Source\PSoC4/CapSense.c ****                 CapSense_CalibrateSensor(curSensor, rawLevel, CapSense_modulationIDAC);
 410:Generated_Source\PSoC4/CapSense.c ****             }
 411:Generated_Source\PSoC4/CapSense.c **** 
 412:Generated_Source\PSoC4/CapSense.c ****             #if(0u != CapSense_TOTAL_CENTROIDS_COUNT)
 413:Generated_Source\PSoC4/CapSense.c ****                 CapSense_NormalizeWidgets(CapSense_END_OF_WIDGETS_INDEX, CapSense_modulationIDAC);
 414:Generated_Source\PSoC4/CapSense.c ****             #endif /* (0u != CapSense_TOTAL_CENTROIDS_COUNT)  */
 415:Generated_Source\PSoC4/CapSense.c **** 
 416:Generated_Source\PSoC4/CapSense.c ****             #if(CapSense_IDAC_CNT > 1u)
 417:Generated_Source\PSoC4/CapSense.c ****                 for(curSensor = 0u; curSensor < CapSense_TOTAL_SCANSLOT_COUNT; curSensor++)
 418:Generated_Source\PSoC4/CapSense.c ****                 {
 419:Generated_Source\PSoC4/CapSense.c ****                     CapSense_compensationIDAC[curSensor] = CapSense_modulationIDAC[curSensor] / 2u;
 420:Generated_Source\PSoC4/CapSense.c ****                     CapSense_modulationIDAC[curSensor] = (CapSense_modulationIDAC[curSensor] + 1u) 
 421:Generated_Source\PSoC4/CapSense.c ****                 }
 422:Generated_Source\PSoC4/CapSense.c ****                 CapSense_CSD_IDAC_REG |= CapSense_CSD_IDAC2_MODE_FIXED;
 423:Generated_Source\PSoC4/CapSense.c ****             #endif /* (CapSense_IDAC_CNT > 1u) */
 424:Generated_Source\PSoC4/CapSense.c **** 
 425:Generated_Source\PSoC4/CapSense.c ****         #endif /* (0u != CapSense_AUTOCALIBRATION_ENABLE) */
 426:Generated_Source\PSoC4/CapSense.c **** 
 427:Generated_Source\PSoC4/CapSense.c ****     #endif /* ((CapSense_TUNING_METHOD == CapSense__TUNING_AUTO) */
 428:Generated_Source\PSoC4/CapSense.c **** 
 429:Generated_Source\PSoC4/CapSense.c ****     /* Initialize Advanced Centroid */
 430:Generated_Source\PSoC4/CapSense.c ****     #if(CapSense_TOTAL_TRACKPAD_GESTURES_COUNT > 0u)
ARM GAS  C:\Users\Zeynep\AppData\Local\Temp\ccgAGQqu.s 			page 12


 431:Generated_Source\PSoC4/CapSense.c ****         CapSense_AdvancedCentroidInit();
 432:Generated_Source\PSoC4/CapSense.c ****     #endif /* (CapSense_TOTAL_TRACKPAD_GESTURES_COUNT > 0u) */
 433:Generated_Source\PSoC4/CapSense.c **** 
 434:Generated_Source\PSoC4/CapSense.c ****     /* Connect sense comparator input to AMUXA */
 435:Generated_Source\PSoC4/CapSense.c ****     CapSense_CSD_CFG_REG |= CapSense_CSD_CFG_SENSE_INSEL;
 436:Generated_Source\PSoC4/CapSense.c **** }
 437:Generated_Source\PSoC4/CapSense.c **** 
 438:Generated_Source\PSoC4/CapSense.c **** 
 439:Generated_Source\PSoC4/CapSense.c **** /*******************************************************************************
 440:Generated_Source\PSoC4/CapSense.c **** * Function Name: CapSense_Stop
 441:Generated_Source\PSoC4/CapSense.c **** ********************************************************************************
 442:Generated_Source\PSoC4/CapSense.c **** *
 443:Generated_Source\PSoC4/CapSense.c **** * Summary:
 444:Generated_Source\PSoC4/CapSense.c **** *  Stops the sensor scanning, disables component interrupts, and resets all the
 445:Generated_Source\PSoC4/CapSense.c **** *  sensors to an inactive state. Disables the Active mode power template bits for
 446:Generated_Source\PSoC4/CapSense.c **** *  the subcomponents used within CapSense.
 447:Generated_Source\PSoC4/CapSense.c **** *
 448:Generated_Source\PSoC4/CapSense.c **** * Parameters:
 449:Generated_Source\PSoC4/CapSense.c **** *  None
 450:Generated_Source\PSoC4/CapSense.c **** *
 451:Generated_Source\PSoC4/CapSense.c **** * Return:
 452:Generated_Source\PSoC4/CapSense.c **** *  None
 453:Generated_Source\PSoC4/CapSense.c **** *
 454:Generated_Source\PSoC4/CapSense.c **** * Global Variables:
 455:Generated_Source\PSoC4/CapSense.c **** *  CapSense_csdTrim1 - Contains the IDAC trim register value for the Sourcing Mode.
 456:Generated_Source\PSoC4/CapSense.c **** *  CapSense_csdTrim2 - Contains the IDAC trim register value for vSinking Mode.
 457:Generated_Source\PSoC4/CapSense.c **** *
 458:Generated_Source\PSoC4/CapSense.c **** * Side Effects:
 459:Generated_Source\PSoC4/CapSense.c **** *  This function should be called after scans are completed.
 460:Generated_Source\PSoC4/CapSense.c **** *
 461:Generated_Source\PSoC4/CapSense.c **** *******************************************************************************/
 462:Generated_Source\PSoC4/CapSense.c **** void CapSense_Stop(void)
 463:Generated_Source\PSoC4/CapSense.c **** {
 198              		.loc 1 463 0
 199              		.cfi_startproc
 200              		@ args = 0, pretend = 0, frame = 0
 201              		@ frame_needed = 0, uses_anonymous_args = 0
 202 0000 10B5     		push	{r4, lr}
 203              		.cfi_def_cfa_offset 8
 204              		.cfi_offset 4, -8
 205              		.cfi_offset 14, -4
 464:Generated_Source\PSoC4/CapSense.c ****     /* Disable interrupt */
 465:Generated_Source\PSoC4/CapSense.c ****     CyIntDisable(CapSense_ISR_NUMBER);
 206              		.loc 1 465 0
 207 0002 0F20     		movs	r0, #15
 208 0004 FFF7FEFF 		bl	CyIntDisable
 209              	.LVL23:
 466:Generated_Source\PSoC4/CapSense.c **** 
 467:Generated_Source\PSoC4/CapSense.c ****     CapSense_CSD_CFG_REG &= ~(CapSense_CSD_CFG_SENSE_COMP_EN | CapSense_CSD_CFG_SENSE_EN);
 210              		.loc 1 467 0
 211 0008 064A     		ldr	r2, .L8
 212 000a 1168     		ldr	r1, [r2]
 213 000c 064B     		ldr	r3, .L8+4
 214 000e 0B40     		ands	r3, r1
 215 0010 1360     		str	r3, [r2]
 468:Generated_Source\PSoC4/CapSense.c **** 
 469:Generated_Source\PSoC4/CapSense.c ****     #if(CapSense_IDAC_CNT == 2u)
ARM GAS  C:\Users\Zeynep\AppData\Local\Temp\ccgAGQqu.s 			page 13


 470:Generated_Source\PSoC4/CapSense.c ****         CapSense_CSD_CFG_REG &= ~(CapSense_CSD_CFG_ENABLE);
 216              		.loc 1 470 0
 217 0012 1368     		ldr	r3, [r2]
 218 0014 5B00     		lsls	r3, r3, #1
 219 0016 5B08     		lsrs	r3, r3, #1
 220 0018 1360     		str	r3, [r2]
 471:Generated_Source\PSoC4/CapSense.c ****     #endif /* (CapSense_IDAC_CNT == 2u) */
 472:Generated_Source\PSoC4/CapSense.c **** 
 473:Generated_Source\PSoC4/CapSense.c ****     /* Disable the Clocks */
 474:Generated_Source\PSoC4/CapSense.c ****     CapSense_SenseClk_Stop();
 221              		.loc 1 474 0
 222 001a FFF7FEFF 		bl	CapSense_SenseClk_Stop
 223              	.LVL24:
 475:Generated_Source\PSoC4/CapSense.c ****     CapSense_SampleClk_Stop();
 224              		.loc 1 475 0
 225 001e FFF7FEFF 		bl	CapSense_SampleClk_Stop
 226              	.LVL25:
 476:Generated_Source\PSoC4/CapSense.c **** }
 227              		.loc 1 476 0
 228              		@ sp needed
 229 0022 10BD     		pop	{r4, pc}
 230              	.L9:
 231              		.align	2
 232              	.L8:
 233 0024 04000840 		.word	1074266116
 234 0028 FFEFF7FF 		.word	-528385
 235              		.cfi_endproc
 236              	.LFE36:
 237              		.size	CapSense_Stop, .-CapSense_Stop
 238              		.section	.text.CapSense_IsBusy,"ax",%progbits
 239              		.align	2
 240              		.global	CapSense_IsBusy
 241              		.code	16
 242              		.thumb_func
 243              		.type	CapSense_IsBusy, %function
 244              	CapSense_IsBusy:
 245              	.LFB41:
 477:Generated_Source\PSoC4/CapSense.c **** 
 478:Generated_Source\PSoC4/CapSense.c **** 
 479:Generated_Source\PSoC4/CapSense.c **** /*******************************************************************************
 480:Generated_Source\PSoC4/CapSense.c **** * Function Name: CapSense_FindNextSensor
 481:Generated_Source\PSoC4/CapSense.c **** ********************************************************************************
 482:Generated_Source\PSoC4/CapSense.c **** *
 483:Generated_Source\PSoC4/CapSense.c **** * Summary:
 484:Generated_Source\PSoC4/CapSense.c **** *  Finds the next sensor to scan.
 485:Generated_Source\PSoC4/CapSense.c **** *
 486:Generated_Source\PSoC4/CapSense.c **** * Parameters:
 487:Generated_Source\PSoC4/CapSense.c **** *  snsIndex:  Current index of sensor.
 488:Generated_Source\PSoC4/CapSense.c **** *
 489:Generated_Source\PSoC4/CapSense.c **** * Return:
 490:Generated_Source\PSoC4/CapSense.c **** *  Returns the next sensor index to scan.
 491:Generated_Source\PSoC4/CapSense.c **** *
 492:Generated_Source\PSoC4/CapSense.c **** * Global Variables:
 493:Generated_Source\PSoC4/CapSense.c **** *  CapSense_sensorEnableMask[] - used to store bit masks of the enabled sensors.
 494:Generated_Source\PSoC4/CapSense.c **** *
 495:Generated_Source\PSoC4/CapSense.c **** * Side Effects:
 496:Generated_Source\PSoC4/CapSense.c **** *  This function affects the  current scanning and should not
ARM GAS  C:\Users\Zeynep\AppData\Local\Temp\ccgAGQqu.s 			page 14


 497:Generated_Source\PSoC4/CapSense.c **** *  be used outside the component.
 498:Generated_Source\PSoC4/CapSense.c **** *
 499:Generated_Source\PSoC4/CapSense.c **** *******************************************************************************/
 500:Generated_Source\PSoC4/CapSense.c **** uint8 CapSense_FindNextSensor(uint8 snsIndex)
 501:Generated_Source\PSoC4/CapSense.c **** {
 502:Generated_Source\PSoC4/CapSense.c ****     uint32 enableFlag;
 503:Generated_Source\PSoC4/CapSense.c **** 
 504:Generated_Source\PSoC4/CapSense.c ****     /* Check if sensor enabled */
 505:Generated_Source\PSoC4/CapSense.c ****     do
 506:Generated_Source\PSoC4/CapSense.c ****     {
 507:Generated_Source\PSoC4/CapSense.c ****         /* Proceed with next sensor */
 508:Generated_Source\PSoC4/CapSense.c ****         snsIndex++;
 509:Generated_Source\PSoC4/CapSense.c ****         if(snsIndex == CapSense_TOTAL_SENSOR_COUNT)
 510:Generated_Source\PSoC4/CapSense.c ****         {
 511:Generated_Source\PSoC4/CapSense.c ****             break;
 512:Generated_Source\PSoC4/CapSense.c ****         }
 513:Generated_Source\PSoC4/CapSense.c ****         enableFlag = CapSense_GetBitValue(CapSense_sensorEnableMask, (uint32)snsIndex);
 514:Generated_Source\PSoC4/CapSense.c ****     }
 515:Generated_Source\PSoC4/CapSense.c ****     while(enableFlag == 0u);
 516:Generated_Source\PSoC4/CapSense.c **** 
 517:Generated_Source\PSoC4/CapSense.c ****     return ((uint8)snsIndex);
 518:Generated_Source\PSoC4/CapSense.c **** }
 519:Generated_Source\PSoC4/CapSense.c **** 
 520:Generated_Source\PSoC4/CapSense.c **** 
 521:Generated_Source\PSoC4/CapSense.c **** /*******************************************************************************
 522:Generated_Source\PSoC4/CapSense.c **** * Function Name: CapSense_ScanSensor
 523:Generated_Source\PSoC4/CapSense.c **** ********************************************************************************
 524:Generated_Source\PSoC4/CapSense.c **** *
 525:Generated_Source\PSoC4/CapSense.c **** * Summary:
 526:Generated_Source\PSoC4/CapSense.c **** *  Sets the scan settings and starts scanning a sensor. After scanning is complete,
 527:Generated_Source\PSoC4/CapSense.c **** *  the ISR copies the measured sensor raw data to the global raw sensor array.
 528:Generated_Source\PSoC4/CapSense.c **** *  Use of the ISR ensures this function is non-blocking.
 529:Generated_Source\PSoC4/CapSense.c **** *  Each sensor has a unique number within the sensor array.
 530:Generated_Source\PSoC4/CapSense.c **** *  This number is assigned by the CapSense customizer in sequence.
 531:Generated_Source\PSoC4/CapSense.c **** *
 532:Generated_Source\PSoC4/CapSense.c **** * Parameters:
 533:Generated_Source\PSoC4/CapSense.c **** *  sensor:  Sensor number.
 534:Generated_Source\PSoC4/CapSense.c **** *
 535:Generated_Source\PSoC4/CapSense.c **** * Return:
 536:Generated_Source\PSoC4/CapSense.c **** *  None
 537:Generated_Source\PSoC4/CapSense.c **** *
 538:Generated_Source\PSoC4/CapSense.c **** * Global Variables:
 539:Generated_Source\PSoC4/CapSense.c **** *  CapSense_csdStatusVar - used to provide the status and mode of the scanning process.
 540:Generated_Source\PSoC4/CapSense.c **** *  Sets the busy status(scan in progress) and mode of scan as single scan.
 541:Generated_Source\PSoC4/CapSense.c **** *  CapSense_sensorIndex - used to store a sensor scanning sensor number.
 542:Generated_Source\PSoC4/CapSense.c **** *  Sets to the provided sensor argument.
 543:Generated_Source\PSoC4/CapSense.c **** *
 544:Generated_Source\PSoC4/CapSense.c **** * Side Effects:
 545:Generated_Source\PSoC4/CapSense.c **** *  None
 546:Generated_Source\PSoC4/CapSense.c **** *
 547:Generated_Source\PSoC4/CapSense.c **** *******************************************************************************/
 548:Generated_Source\PSoC4/CapSense.c **** void CapSense_ScanSensor(uint32 sensor)
 549:Generated_Source\PSoC4/CapSense.c **** {
 550:Generated_Source\PSoC4/CapSense.c ****     /* Clears status/control variable and set sensorIndex */
 551:Generated_Source\PSoC4/CapSense.c ****     CapSense_csdStatusVar = 0u;
 552:Generated_Source\PSoC4/CapSense.c ****     CapSense_sensorIndex = (uint8)sensor;
 553:Generated_Source\PSoC4/CapSense.c **** 
ARM GAS  C:\Users\Zeynep\AppData\Local\Temp\ccgAGQqu.s 			page 15


 554:Generated_Source\PSoC4/CapSense.c ****     /* Start of sensor scan */
 555:Generated_Source\PSoC4/CapSense.c ****     CapSense_csdStatusVar = (CapSense_SW_STS_BUSY | CapSense_SW_CTRL_SINGLE_SCAN);
 556:Generated_Source\PSoC4/CapSense.c ****     CapSense_PreScan(sensor);
 557:Generated_Source\PSoC4/CapSense.c **** }
 558:Generated_Source\PSoC4/CapSense.c **** 
 559:Generated_Source\PSoC4/CapSense.c **** 
 560:Generated_Source\PSoC4/CapSense.c **** #if(0u != CapSense_CSHL_API_GENERATE)
 561:Generated_Source\PSoC4/CapSense.c **** /*******************************************************************************
 562:Generated_Source\PSoC4/CapSense.c **** * Function Name: CapSense_ScanWidget
 563:Generated_Source\PSoC4/CapSense.c **** ********************************************************************************
 564:Generated_Source\PSoC4/CapSense.c **** *
 565:Generated_Source\PSoC4/CapSense.c **** * Summary:
 566:Generated_Source\PSoC4/CapSense.c **** *  Sets the scan settings and starts scanning a widget.
 567:Generated_Source\PSoC4/CapSense.c **** *
 568:Generated_Source\PSoC4/CapSense.c **** * Parameters:
 569:Generated_Source\PSoC4/CapSense.c **** *  uint32 widget: Widget number.
 570:Generated_Source\PSoC4/CapSense.c **** *
 571:Generated_Source\PSoC4/CapSense.c **** * Return:
 572:Generated_Source\PSoC4/CapSense.c **** *  None
 573:Generated_Source\PSoC4/CapSense.c **** *
 574:Generated_Source\PSoC4/CapSense.c **** * Global Variables:
 575:Generated_Source\PSoC4/CapSense.c **** *  CapSense_csdStatusVar - used to provide the status and mode of the scanning process.
 576:Generated_Source\PSoC4/CapSense.c **** *  Sets the busy status(scan in progress) and clears the single scan mode.
 577:Generated_Source\PSoC4/CapSense.c **** *  CapSense_sensorIndex - used to store a sensor scanning sensor number.
 578:Generated_Source\PSoC4/CapSense.c **** *  Sets to 0xFF and provided to function CapSense_FindNextSensor or
 579:Generated_Source\PSoC4/CapSense.c **** *  CapSense_sensorEnableMask[] - used to store bit masks of the enabled sensors.
 580:Generated_Source\PSoC4/CapSense.c **** *  CapSense_sensorEnableMaskBackup[] - used to backup bit masks of the enabled
 581:Generated_Source\PSoC4/CapSense.c **** *   sensors.
 582:Generated_Source\PSoC4/CapSense.c **** *
 583:Generated_Source\PSoC4/CapSense.c **** * Side Effects:
 584:Generated_Source\PSoC4/CapSense.c **** *  None
 585:Generated_Source\PSoC4/CapSense.c **** *
 586:Generated_Source\PSoC4/CapSense.c **** *******************************************************************************/
 587:Generated_Source\PSoC4/CapSense.c **** void CapSense_ScanWidget(uint32 widget)
 588:Generated_Source\PSoC4/CapSense.c **** {
 589:Generated_Source\PSoC4/CapSense.c ****     uint32 sensorsPerWidget;
 590:Generated_Source\PSoC4/CapSense.c ****     uint32 lastSensor;
 591:Generated_Source\PSoC4/CapSense.c ****     uint32 snsIndex;
 592:Generated_Source\PSoC4/CapSense.c **** 
 593:Generated_Source\PSoC4/CapSense.c ****     /* Get first sensor in widget */
 594:Generated_Source\PSoC4/CapSense.c ****     CapSense_sensorIndex = CapSense_rawDataIndex[widget];
 595:Generated_Source\PSoC4/CapSense.c **** 
 596:Generated_Source\PSoC4/CapSense.c ****     /* Get number of sensors in widget */
 597:Generated_Source\PSoC4/CapSense.c ****     sensorsPerWidget = CapSense_numberOfSensors[widget];
 598:Generated_Source\PSoC4/CapSense.c **** 
 599:Generated_Source\PSoC4/CapSense.c ****     /* Check if generic Sensor */
 600:Generated_Source\PSoC4/CapSense.c ****     if(sensorsPerWidget == 0u)
 601:Generated_Source\PSoC4/CapSense.c ****     {
 602:Generated_Source\PSoC4/CapSense.c ****         sensorsPerWidget = 1u;
 603:Generated_Source\PSoC4/CapSense.c ****     }
 604:Generated_Source\PSoC4/CapSense.c **** 
 605:Generated_Source\PSoC4/CapSense.c ****     /* Get last sensor in widget */
 606:Generated_Source\PSoC4/CapSense.c ****     lastSensor = (CapSense_rawDataIndex[widget] + sensorsPerWidget) - 1u;
 607:Generated_Source\PSoC4/CapSense.c **** 
 608:Generated_Source\PSoC4/CapSense.c ****     /* Backup sensorEnableMask array */
 609:Generated_Source\PSoC4/CapSense.c ****     for(snsIndex = 0u; snsIndex < CapSense_TOTAL_SENSOR_MASK; snsIndex++)
 610:Generated_Source\PSoC4/CapSense.c ****     {
ARM GAS  C:\Users\Zeynep\AppData\Local\Temp\ccgAGQqu.s 			page 16


 611:Generated_Source\PSoC4/CapSense.c ****         /* Backup sensorEnableMask array */
 612:Generated_Source\PSoC4/CapSense.c ****         CapSense_sensorEnableMaskBackup[snsIndex] = CapSense_sensorEnableMask[snsIndex];
 613:Generated_Source\PSoC4/CapSense.c ****     }
 614:Generated_Source\PSoC4/CapSense.c **** 
 615:Generated_Source\PSoC4/CapSense.c ****     /* Update sensorEnableMask to scan the sensors that belong to widget */
 616:Generated_Source\PSoC4/CapSense.c ****     for(snsIndex = 0u; snsIndex < CapSense_TOTAL_SENSOR_COUNT; snsIndex++)
 617:Generated_Source\PSoC4/CapSense.c ****     {
 618:Generated_Source\PSoC4/CapSense.c ****         /* Update sensorEnableMask array bits to scan the widget only */
 619:Generated_Source\PSoC4/CapSense.c ****         if((snsIndex >= CapSense_sensorIndex) && (snsIndex <= lastSensor))
 620:Generated_Source\PSoC4/CapSense.c ****         {
 621:Generated_Source\PSoC4/CapSense.c ****             /* Set sensor bit to scan */
 622:Generated_Source\PSoC4/CapSense.c ****             CapSense_SetBitValue(CapSense_sensorEnableMask, snsIndex, 1u);
 623:Generated_Source\PSoC4/CapSense.c ****         }
 624:Generated_Source\PSoC4/CapSense.c ****         else
 625:Generated_Source\PSoC4/CapSense.c ****         {
 626:Generated_Source\PSoC4/CapSense.c ****             /* Reset sensor bit to do not scan */
 627:Generated_Source\PSoC4/CapSense.c ****             CapSense_SetBitValue(CapSense_sensorEnableMask, snsIndex, 0u);
 628:Generated_Source\PSoC4/CapSense.c ****         }
 629:Generated_Source\PSoC4/CapSense.c ****     }
 630:Generated_Source\PSoC4/CapSense.c **** 
 631:Generated_Source\PSoC4/CapSense.c ****     /* Check end of scan condition */
 632:Generated_Source\PSoC4/CapSense.c ****     if(CapSense_sensorIndex < CapSense_TOTAL_SENSOR_COUNT)
 633:Generated_Source\PSoC4/CapSense.c ****     {
 634:Generated_Source\PSoC4/CapSense.c ****         /* Set widget busy bit in status/control variable*/
 635:Generated_Source\PSoC4/CapSense.c ****         CapSense_csdStatusVar = (CapSense_SW_STS_BUSY | CapSense_SW_CTRL_WIDGET_SCAN);
 636:Generated_Source\PSoC4/CapSense.c ****         /* Scan first sensor of widget*/
 637:Generated_Source\PSoC4/CapSense.c ****         CapSense_PreScan((uint32)CapSense_sensorIndex);
 638:Generated_Source\PSoC4/CapSense.c ****     }
 639:Generated_Source\PSoC4/CapSense.c **** }
 640:Generated_Source\PSoC4/CapSense.c **** #endif /* (0u != CapSense_CSHL_API_GENERATE) */
 641:Generated_Source\PSoC4/CapSense.c **** 
 642:Generated_Source\PSoC4/CapSense.c **** 
 643:Generated_Source\PSoC4/CapSense.c **** /*******************************************************************************
 644:Generated_Source\PSoC4/CapSense.c **** * Function Name: CapSense_ScanEnableWidgets
 645:Generated_Source\PSoC4/CapSense.c **** ********************************************************************************
 646:Generated_Source\PSoC4/CapSense.c **** *
 647:Generated_Source\PSoC4/CapSense.c **** * Summary:
 648:Generated_Source\PSoC4/CapSense.c **** *  This is the preferred method to scan all of the enabled widgets.
 649:Generated_Source\PSoC4/CapSense.c **** *  The API starts scanning a sensor within the enabled widgets.
 650:Generated_Source\PSoC4/CapSense.c **** *  The ISR continues scanning the sensors until all the enabled widgets are scanned.
 651:Generated_Source\PSoC4/CapSense.c **** *  Use of the ISR ensures this function is non-blocking.
 652:Generated_Source\PSoC4/CapSense.c **** *  All the widgets are enabled by default except proximity widgets.
 653:Generated_Source\PSoC4/CapSense.c **** *  The proximity widgets must be manually enabled as their long scan time
 654:Generated_Source\PSoC4/CapSense.c **** *  is incompatible with a fast response required of other widget types.
 655:Generated_Source\PSoC4/CapSense.c **** *
 656:Generated_Source\PSoC4/CapSense.c **** * Parameters:
 657:Generated_Source\PSoC4/CapSense.c **** *  None
 658:Generated_Source\PSoC4/CapSense.c **** *
 659:Generated_Source\PSoC4/CapSense.c **** * Return:
 660:Generated_Source\PSoC4/CapSense.c **** *  None
 661:Generated_Source\PSoC4/CapSense.c **** *
 662:Generated_Source\PSoC4/CapSense.c **** * Global Variables:
 663:Generated_Source\PSoC4/CapSense.c **** *  CapSense_csdStatusVar - used to provide the status and mode of the scanning process.
 664:Generated_Source\PSoC4/CapSense.c **** *  Sets the busy status(scan in progress) and clears the single scan mode.
 665:Generated_Source\PSoC4/CapSense.c **** *  CapSense_sensorIndex - used to store a sensor scanning sensor number.
 666:Generated_Source\PSoC4/CapSense.c **** *  Sets to 0xFF and provided to function CapSense_FindNextSensor or
 667:Generated_Source\PSoC4/CapSense.c **** *
ARM GAS  C:\Users\Zeynep\AppData\Local\Temp\ccgAGQqu.s 			page 17


 668:Generated_Source\PSoC4/CapSense.c **** * Side Effects:
 669:Generated_Source\PSoC4/CapSense.c **** *  None
 670:Generated_Source\PSoC4/CapSense.c **** *
 671:Generated_Source\PSoC4/CapSense.c **** *******************************************************************************/
 672:Generated_Source\PSoC4/CapSense.c **** void CapSense_ScanEnabledWidgets(void)
 673:Generated_Source\PSoC4/CapSense.c **** {
 674:Generated_Source\PSoC4/CapSense.c ****     /* Clears status/control variable and set sensorIndex */
 675:Generated_Source\PSoC4/CapSense.c ****     CapSense_csdStatusVar = 0u;
 676:Generated_Source\PSoC4/CapSense.c ****     CapSense_sensorIndex = 0xFFu;
 677:Generated_Source\PSoC4/CapSense.c **** 
 678:Generated_Source\PSoC4/CapSense.c ****     /* Find next sensor */
 679:Generated_Source\PSoC4/CapSense.c ****     CapSense_sensorIndex = (uint8)CapSense_FindNextSensor(CapSense_sensorIndex);
 680:Generated_Source\PSoC4/CapSense.c **** 
 681:Generated_Source\PSoC4/CapSense.c ****     /* Check end of scan condition */
 682:Generated_Source\PSoC4/CapSense.c ****     if(CapSense_sensorIndex < CapSense_TOTAL_SENSOR_COUNT)
 683:Generated_Source\PSoC4/CapSense.c ****     {
 684:Generated_Source\PSoC4/CapSense.c ****         CapSense_csdStatusVar |= CapSense_SW_STS_BUSY;
 685:Generated_Source\PSoC4/CapSense.c ****         CapSense_PreScan((uint32)CapSense_sensorIndex);
 686:Generated_Source\PSoC4/CapSense.c ****     }
 687:Generated_Source\PSoC4/CapSense.c **** }
 688:Generated_Source\PSoC4/CapSense.c **** 
 689:Generated_Source\PSoC4/CapSense.c **** 
 690:Generated_Source\PSoC4/CapSense.c **** /*******************************************************************************
 691:Generated_Source\PSoC4/CapSense.c **** * Function Name: CapSense_IsBusy
 692:Generated_Source\PSoC4/CapSense.c **** ********************************************************************************
 693:Generated_Source\PSoC4/CapSense.c **** *
 694:Generated_Source\PSoC4/CapSense.c **** * Summary:
 695:Generated_Source\PSoC4/CapSense.c **** *  Returns the state of the CapSense component. 1 means that scanning in
 696:Generated_Source\PSoC4/CapSense.c **** *  progress and 0 means that scanning is complete.
 697:Generated_Source\PSoC4/CapSense.c **** *
 698:Generated_Source\PSoC4/CapSense.c **** * Parameters:
 699:Generated_Source\PSoC4/CapSense.c **** *  None
 700:Generated_Source\PSoC4/CapSense.c **** *
 701:Generated_Source\PSoC4/CapSense.c **** * Return:
 702:Generated_Source\PSoC4/CapSense.c **** *  Returns the state of scanning. 1 - scanning in progress, 0 - scanning
 703:Generated_Source\PSoC4/CapSense.c **** *  completed.
 704:Generated_Source\PSoC4/CapSense.c **** *
 705:Generated_Source\PSoC4/CapSense.c **** * Global Variables:
 706:Generated_Source\PSoC4/CapSense.c **** *  CapSense_csdStatusVar - used to provide the status and mode of the scanning process.
 707:Generated_Source\PSoC4/CapSense.c **** *  Checks the busy status.
 708:Generated_Source\PSoC4/CapSense.c **** *
 709:Generated_Source\PSoC4/CapSense.c **** * Side Effects:
 710:Generated_Source\PSoC4/CapSense.c **** *  None
 711:Generated_Source\PSoC4/CapSense.c **** *
 712:Generated_Source\PSoC4/CapSense.c **** *******************************************************************************/
 713:Generated_Source\PSoC4/CapSense.c **** uint32 CapSense_IsBusy(void)
 714:Generated_Source\PSoC4/CapSense.c **** {
 246              		.loc 1 714 0
 247              		.cfi_startproc
 248              		@ args = 0, pretend = 0, frame = 0
 249              		@ frame_needed = 0, uses_anonymous_args = 0
 250              		@ link register save eliminated.
 715:Generated_Source\PSoC4/CapSense.c ****     return ((uint32)((0u != (CapSense_csdStatusVar & CapSense_SW_STS_BUSY)) ? 1u : 0u));
 251              		.loc 1 715 0
 252 0000 024B     		ldr	r3, .L11
 253 0002 1878     		ldrb	r0, [r3]
 254 0004 0123     		movs	r3, #1
ARM GAS  C:\Users\Zeynep\AppData\Local\Temp\ccgAGQqu.s 			page 18


 255 0006 1840     		ands	r0, r3
 716:Generated_Source\PSoC4/CapSense.c **** }
 256              		.loc 1 716 0
 257              		@ sp needed
 258 0008 7047     		bx	lr
 259              	.L12:
 260 000a C046     		.align	2
 261              	.L11:
 262 000c 00000000 		.word	.LANCHOR0
 263              		.cfi_endproc
 264              	.LFE41:
 265              		.size	CapSense_IsBusy, .-CapSense_IsBusy
 266              		.section	.text.CapSense_ReadSensorRaw,"ax",%progbits
 267              		.align	2
 268              		.global	CapSense_ReadSensorRaw
 269              		.code	16
 270              		.thumb_func
 271              		.type	CapSense_ReadSensorRaw, %function
 272              	CapSense_ReadSensorRaw:
 273              	.LFB42:
 717:Generated_Source\PSoC4/CapSense.c **** 
 718:Generated_Source\PSoC4/CapSense.c **** 
 719:Generated_Source\PSoC4/CapSense.c **** /*******************************************************************************
 720:Generated_Source\PSoC4/CapSense.c **** * Function Name: CapSense_ReadSensorRaw
 721:Generated_Source\PSoC4/CapSense.c **** ********************************************************************************
 722:Generated_Source\PSoC4/CapSense.c **** *
 723:Generated_Source\PSoC4/CapSense.c **** * Summary:
 724:Generated_Source\PSoC4/CapSense.c **** *  Returns sensor raw data from the global CapSense_sensorRaw[ ] array.
 725:Generated_Source\PSoC4/CapSense.c **** *  Each scan sensor has a unique number within the sensor array.
 726:Generated_Source\PSoC4/CapSense.c **** *  This number is assigned by the CapSense customizer in sequence.
 727:Generated_Source\PSoC4/CapSense.c **** *  Raw data can be used to perform calculations outside of the CapSense
 728:Generated_Source\PSoC4/CapSense.c **** *  provided framework.
 729:Generated_Source\PSoC4/CapSense.c **** *
 730:Generated_Source\PSoC4/CapSense.c **** * Parameters:
 731:Generated_Source\PSoC4/CapSense.c **** *  sensor:  Sensor number.
 732:Generated_Source\PSoC4/CapSense.c **** *
 733:Generated_Source\PSoC4/CapSense.c **** * Return:
 734:Generated_Source\PSoC4/CapSense.c **** *  Returns the current raw data value for a defined sensor number.
 735:Generated_Source\PSoC4/CapSense.c **** *
 736:Generated_Source\PSoC4/CapSense.c **** * Global Variables:
 737:Generated_Source\PSoC4/CapSense.c **** *  CapSense_sensorRaw[] - used to store sensors raw data.
 738:Generated_Source\PSoC4/CapSense.c **** *
 739:Generated_Source\PSoC4/CapSense.c **** * Side Effects:
 740:Generated_Source\PSoC4/CapSense.c **** *  None
 741:Generated_Source\PSoC4/CapSense.c **** *
 742:Generated_Source\PSoC4/CapSense.c **** *******************************************************************************/
 743:Generated_Source\PSoC4/CapSense.c **** uint16 CapSense_ReadSensorRaw(uint32 sensor)
 744:Generated_Source\PSoC4/CapSense.c **** {
 274              		.loc 1 744 0
 275              		.cfi_startproc
 276              		@ args = 0, pretend = 0, frame = 0
 277              		@ frame_needed = 0, uses_anonymous_args = 0
 278              		@ link register save eliminated.
 279              	.LVL26:
 745:Generated_Source\PSoC4/CapSense.c ****     return CapSense_sensorRaw[sensor];
 280              		.loc 1 745 0
 281 0000 4000     		lsls	r0, r0, #1
ARM GAS  C:\Users\Zeynep\AppData\Local\Temp\ccgAGQqu.s 			page 19


 282              	.LVL27:
 283 0002 024B     		ldr	r3, .L14
 284 0004 1818     		adds	r0, r3, r0
 285 0006 8088     		ldrh	r0, [r0, #4]
 746:Generated_Source\PSoC4/CapSense.c **** }
 286              		.loc 1 746 0
 287              		@ sp needed
 288 0008 7047     		bx	lr
 289              	.L15:
 290 000a C046     		.align	2
 291              	.L14:
 292 000c 00000000 		.word	.LANCHOR0
 293              		.cfi_endproc
 294              	.LFE42:
 295              		.size	CapSense_ReadSensorRaw, .-CapSense_ReadSensorRaw
 296              		.section	.text.CapSense_WriteSensorRaw,"ax",%progbits
 297              		.align	2
 298              		.global	CapSense_WriteSensorRaw
 299              		.code	16
 300              		.thumb_func
 301              		.type	CapSense_WriteSensorRaw, %function
 302              	CapSense_WriteSensorRaw:
 303              	.LFB43:
 747:Generated_Source\PSoC4/CapSense.c **** 
 748:Generated_Source\PSoC4/CapSense.c **** 
 749:Generated_Source\PSoC4/CapSense.c **** /*******************************************************************************
 750:Generated_Source\PSoC4/CapSense.c **** * Function Name: CapSense_WriteSensorRaw
 751:Generated_Source\PSoC4/CapSense.c **** ********************************************************************************
 752:Generated_Source\PSoC4/CapSense.c **** *
 753:Generated_Source\PSoC4/CapSense.c **** * Summary:
 754:Generated_Source\PSoC4/CapSense.c **** *  This API writes the raw count value passed as an argument to the sensor Raw count array.
 755:Generated_Source\PSoC4/CapSense.c **** *
 756:Generated_Source\PSoC4/CapSense.c **** * Parameters:
 757:Generated_Source\PSoC4/CapSense.c **** *  sensor:  Sensor number.
 758:Generated_Source\PSoC4/CapSense.c **** *  value: Raw count value.
 759:Generated_Source\PSoC4/CapSense.c **** *
 760:Generated_Source\PSoC4/CapSense.c **** * Global Variables:
 761:Generated_Source\PSoC4/CapSense.c **** *  CapSense_sensorRaw[] - used to store sensors raw data.
 762:Generated_Source\PSoC4/CapSense.c **** *
 763:Generated_Source\PSoC4/CapSense.c **** * Return:
 764:Generated_Source\PSoC4/CapSense.c **** *  None
 765:Generated_Source\PSoC4/CapSense.c **** *
 766:Generated_Source\PSoC4/CapSense.c **** * Side Effects:
 767:Generated_Source\PSoC4/CapSense.c **** *  None
 768:Generated_Source\PSoC4/CapSense.c **** *
 769:Generated_Source\PSoC4/CapSense.c **** *******************************************************************************/
 770:Generated_Source\PSoC4/CapSense.c **** void CapSense_WriteSensorRaw(uint32 sensor, uint16 value)
 771:Generated_Source\PSoC4/CapSense.c **** {
 304              		.loc 1 771 0
 305              		.cfi_startproc
 306              		@ args = 0, pretend = 0, frame = 0
 307              		@ frame_needed = 0, uses_anonymous_args = 0
 308              		@ link register save eliminated.
 309              	.LVL28:
 772:Generated_Source\PSoC4/CapSense.c ****     CapSense_sensorRaw[sensor] = value;
 310              		.loc 1 772 0
 311 0000 4000     		lsls	r0, r0, #1
ARM GAS  C:\Users\Zeynep\AppData\Local\Temp\ccgAGQqu.s 			page 20


 312              	.LVL29:
 313 0002 024B     		ldr	r3, .L17
 314 0004 1818     		adds	r0, r3, r0
 315 0006 8180     		strh	r1, [r0, #4]
 773:Generated_Source\PSoC4/CapSense.c **** }
 316              		.loc 1 773 0
 317              		@ sp needed
 318 0008 7047     		bx	lr
 319              	.L18:
 320 000a C046     		.align	2
 321              	.L17:
 322 000c 00000000 		.word	.LANCHOR0
 323              		.cfi_endproc
 324              	.LFE43:
 325              		.size	CapSense_WriteSensorRaw, .-CapSense_WriteSensorRaw
 326              		.section	.text.CapSense_SetScanResolution,"ax",%progbits
 327              		.align	2
 328              		.global	CapSense_SetScanResolution
 329              		.code	16
 330              		.thumb_func
 331              		.type	CapSense_SetScanResolution, %function
 332              	CapSense_SetScanResolution:
 333              	.LFB44:
 774:Generated_Source\PSoC4/CapSense.c **** 
 775:Generated_Source\PSoC4/CapSense.c **** 
 776:Generated_Source\PSoC4/CapSense.c **** #if (CapSense_TUNING_METHOD != CapSense__TUNING_NONE)
 777:Generated_Source\PSoC4/CapSense.c ****     /*******************************************************************************
 778:Generated_Source\PSoC4/CapSense.c ****     * Function Name: CapSense_SetScanResolution
 779:Generated_Source\PSoC4/CapSense.c ****     ********************************************************************************
 780:Generated_Source\PSoC4/CapSense.c ****     *
 781:Generated_Source\PSoC4/CapSense.c ****     * Summary:
 782:Generated_Source\PSoC4/CapSense.c ****     *  Sets a value of the sensor scan resolution for a widget.
 783:Generated_Source\PSoC4/CapSense.c ****     *  The MIN resolution can be set 8-bit. The MAX Resolution can be set 16 bit.
 784:Generated_Source\PSoC4/CapSense.c ****     *  This function is not available for the tuning mode "None".
 785:Generated_Source\PSoC4/CapSense.c ****     *
 786:Generated_Source\PSoC4/CapSense.c ****     * Parameters:
 787:Generated_Source\PSoC4/CapSense.c ****     *  widget:     Widget index.
 788:Generated_Source\PSoC4/CapSense.c ****     *  resolution: Represents the resolution value. The following defines which are available in th
 789:Generated_Source\PSoC4/CapSense.c ****     *              CapSense.h file should be used:
 790:Generated_Source\PSoC4/CapSense.c ****     *              CapSense_RESOLUTION_6_BITS
 791:Generated_Source\PSoC4/CapSense.c ****     *              CapSense_RESOLUTION_7_BITS
 792:Generated_Source\PSoC4/CapSense.c ****     *              CapSense_RESOLUTION_8_BITS
 793:Generated_Source\PSoC4/CapSense.c ****     *              CapSense_RESOLUTION_9_BITS
 794:Generated_Source\PSoC4/CapSense.c ****     *              CapSense_RESOLUTION_10_BITS
 795:Generated_Source\PSoC4/CapSense.c ****     *              CapSense_RESOLUTION_11_BITS
 796:Generated_Source\PSoC4/CapSense.c ****     *              CapSense_RESOLUTION_12_BITS
 797:Generated_Source\PSoC4/CapSense.c ****     *              CapSense_RESOLUTION_13_BITS
 798:Generated_Source\PSoC4/CapSense.c ****     *              CapSense_RESOLUTION_14_BITS
 799:Generated_Source\PSoC4/CapSense.c ****     *              CapSense_RESOLUTION_15_BITS
 800:Generated_Source\PSoC4/CapSense.c ****     *              CapSense_RESOLUTION_16_BITS
 801:Generated_Source\PSoC4/CapSense.c ****     *
 802:Generated_Source\PSoC4/CapSense.c ****     * Return:
 803:Generated_Source\PSoC4/CapSense.c ****     *  None
 804:Generated_Source\PSoC4/CapSense.c ****     *
 805:Generated_Source\PSoC4/CapSense.c ****     * Global Variables:
 806:Generated_Source\PSoC4/CapSense.c ****     *  CapSense_widgetResolution[] - used to store scan resolution of each widget.
 807:Generated_Source\PSoC4/CapSense.c ****     *
ARM GAS  C:\Users\Zeynep\AppData\Local\Temp\ccgAGQqu.s 			page 21


 808:Generated_Source\PSoC4/CapSense.c ****     * Side Effects:
 809:Generated_Source\PSoC4/CapSense.c ****     *  None
 810:Generated_Source\PSoC4/CapSense.c ****     *
 811:Generated_Source\PSoC4/CapSense.c ****     *******************************************************************************/
 812:Generated_Source\PSoC4/CapSense.c ****     void CapSense_SetScanResolution(uint32 widget, uint32 resolution)
 813:Generated_Source\PSoC4/CapSense.c ****     {
 334              		.loc 1 813 0
 335              		.cfi_startproc
 336              		@ args = 0, pretend = 0, frame = 0
 337              		@ frame_needed = 0, uses_anonymous_args = 0
 338              		@ link register save eliminated.
 339              	.LVL30:
 814:Generated_Source\PSoC4/CapSense.c ****         CapSense_widgetResolution[widget] = resolution;
 340              		.loc 1 814 0
 341 0000 8000     		lsls	r0, r0, #2
 342              	.LVL31:
 343 0002 014B     		ldr	r3, .L20
 344 0004 C150     		str	r1, [r0, r3]
 815:Generated_Source\PSoC4/CapSense.c ****     }
 345              		.loc 1 815 0
 346              		@ sp needed
 347 0006 7047     		bx	lr
 348              	.L21:
 349              		.align	2
 350              	.L20:
 351 0008 00000000 		.word	.LANCHOR1
 352              		.cfi_endproc
 353              	.LFE44:
 354              		.size	CapSense_SetScanResolution, .-CapSense_SetScanResolution
 355              		.section	.text.CapSense_GetScanResolution,"ax",%progbits
 356              		.align	2
 357              		.global	CapSense_GetScanResolution
 358              		.code	16
 359              		.thumb_func
 360              		.type	CapSense_GetScanResolution, %function
 361              	CapSense_GetScanResolution:
 362              	.LFB45:
 816:Generated_Source\PSoC4/CapSense.c **** #endif /* (CapSense_TUNING_METHOD != CapSense__TUNING_NONE) */
 817:Generated_Source\PSoC4/CapSense.c **** 
 818:Generated_Source\PSoC4/CapSense.c **** 
 819:Generated_Source\PSoC4/CapSense.c **** /*******************************************************************************
 820:Generated_Source\PSoC4/CapSense.c **** * Function Name: CapSense_GetScanResolution
 821:Generated_Source\PSoC4/CapSense.c **** ********************************************************************************
 822:Generated_Source\PSoC4/CapSense.c **** *
 823:Generated_Source\PSoC4/CapSense.c **** * Summary:
 824:Generated_Source\PSoC4/CapSense.c **** *  Returns the resolution value for the appropriate sensor.
 825:Generated_Source\PSoC4/CapSense.c **** *  This function is not available for tuning mode "None".
 826:Generated_Source\PSoC4/CapSense.c **** *
 827:Generated_Source\PSoC4/CapSense.c **** * Parameters:
 828:Generated_Source\PSoC4/CapSense.c **** *  widget:     Widget index.
 829:Generated_Source\PSoC4/CapSense.c **** *
 830:Generated_Source\PSoC4/CapSense.c **** * Return:
 831:Generated_Source\PSoC4/CapSense.c **** *  resolution: Returns the resolution value for the appropriate sensor.
 832:Generated_Source\PSoC4/CapSense.c **** *              The resolution values are defined in the CapSense.h file
 833:Generated_Source\PSoC4/CapSense.c **** *              The defines are encountered below:
 834:Generated_Source\PSoC4/CapSense.c **** *              CapSense_RESOLUTION_6_BITS
 835:Generated_Source\PSoC4/CapSense.c **** *              CapSense_RESOLUTION_7_BITS
ARM GAS  C:\Users\Zeynep\AppData\Local\Temp\ccgAGQqu.s 			page 22


 836:Generated_Source\PSoC4/CapSense.c **** *              CapSense_RESOLUTION_8_BITS
 837:Generated_Source\PSoC4/CapSense.c **** *              CapSense_RESOLUTION_9_BITS
 838:Generated_Source\PSoC4/CapSense.c **** *              CapSense_RESOLUTION_10_BITS
 839:Generated_Source\PSoC4/CapSense.c **** *              CapSense_RESOLUTION_11_BITS
 840:Generated_Source\PSoC4/CapSense.c **** *              CapSense_RESOLUTION_12_BITS
 841:Generated_Source\PSoC4/CapSense.c **** *              CapSense_RESOLUTION_13_BITS
 842:Generated_Source\PSoC4/CapSense.c **** *              CapSense_RESOLUTION_14_BITS
 843:Generated_Source\PSoC4/CapSense.c **** *              CapSense_RESOLUTION_15_BITS
 844:Generated_Source\PSoC4/CapSense.c **** *              CapSense_RESOLUTION_16_BITS
 845:Generated_Source\PSoC4/CapSense.c **** *
 846:Generated_Source\PSoC4/CapSense.c **** * Global Variables:
 847:Generated_Source\PSoC4/CapSense.c **** *  CapSense_widgetResolution[] - used to store scan resolution of every widget.
 848:Generated_Source\PSoC4/CapSense.c **** *
 849:Generated_Source\PSoC4/CapSense.c **** * Side Effects:
 850:Generated_Source\PSoC4/CapSense.c **** *  None
 851:Generated_Source\PSoC4/CapSense.c **** *
 852:Generated_Source\PSoC4/CapSense.c **** *******************************************************************************/
 853:Generated_Source\PSoC4/CapSense.c **** uint32 CapSense_GetScanResolution(uint32 widget)
 854:Generated_Source\PSoC4/CapSense.c **** {
 363              		.loc 1 854 0
 364              		.cfi_startproc
 365              		@ args = 0, pretend = 0, frame = 0
 366              		@ frame_needed = 0, uses_anonymous_args = 0
 367              		@ link register save eliminated.
 368              	.LVL32:
 855:Generated_Source\PSoC4/CapSense.c ****     return(CapSense_widgetResolution[widget]);
 369              		.loc 1 855 0
 370 0000 8000     		lsls	r0, r0, #2
 371              	.LVL33:
 372 0002 014B     		ldr	r3, .L23
 373 0004 C058     		ldr	r0, [r0, r3]
 856:Generated_Source\PSoC4/CapSense.c **** }
 374              		.loc 1 856 0
 375              		@ sp needed
 376 0006 7047     		bx	lr
 377              	.L24:
 378              		.align	2
 379              	.L23:
 380 0008 00000000 		.word	.LANCHOR1
 381              		.cfi_endproc
 382              	.LFE45:
 383              		.size	CapSense_GetScanResolution, .-CapSense_GetScanResolution
 384              		.section	.text.CapSense_EnableSensor,"ax",%progbits
 385              		.align	2
 386              		.global	CapSense_EnableSensor
 387              		.code	16
 388              		.thumb_func
 389              		.type	CapSense_EnableSensor, %function
 390              	CapSense_EnableSensor:
 391              	.LFB47:
 857:Generated_Source\PSoC4/CapSense.c **** 
 858:Generated_Source\PSoC4/CapSense.c **** 
 859:Generated_Source\PSoC4/CapSense.c **** /*******************************************************************************
 860:Generated_Source\PSoC4/CapSense.c **** * Function Name: CapSense_ClearSensors
 861:Generated_Source\PSoC4/CapSense.c **** ********************************************************************************
 862:Generated_Source\PSoC4/CapSense.c **** *
 863:Generated_Source\PSoC4/CapSense.c **** * Summary:
ARM GAS  C:\Users\Zeynep\AppData\Local\Temp\ccgAGQqu.s 			page 23


 864:Generated_Source\PSoC4/CapSense.c **** *  Resets all the sensors to the non-sampling state by sequentially disconnecting
 865:Generated_Source\PSoC4/CapSense.c **** *  all the sensors from Analog MUX Bus and putting them to an inactive state.
 866:Generated_Source\PSoC4/CapSense.c **** *
 867:Generated_Source\PSoC4/CapSense.c **** * Parameters:
 868:Generated_Source\PSoC4/CapSense.c **** *  None
 869:Generated_Source\PSoC4/CapSense.c **** *
 870:Generated_Source\PSoC4/CapSense.c **** * Return:
 871:Generated_Source\PSoC4/CapSense.c **** *  None
 872:Generated_Source\PSoC4/CapSense.c **** *
 873:Generated_Source\PSoC4/CapSense.c **** * Global Variables:
 874:Generated_Source\PSoC4/CapSense.c **** *  None
 875:Generated_Source\PSoC4/CapSense.c **** *
 876:Generated_Source\PSoC4/CapSense.c **** * Side Effects:
 877:Generated_Source\PSoC4/CapSense.c **** *  None
 878:Generated_Source\PSoC4/CapSense.c **** *
 879:Generated_Source\PSoC4/CapSense.c **** *******************************************************************************/
 880:Generated_Source\PSoC4/CapSense.c **** void CapSense_ClearSensors(void)
 881:Generated_Source\PSoC4/CapSense.c **** {
 882:Generated_Source\PSoC4/CapSense.c ****     uint32 snsIndex;
 883:Generated_Source\PSoC4/CapSense.c **** 
 884:Generated_Source\PSoC4/CapSense.c ****     for (snsIndex = 0u; snsIndex < CapSense_TOTAL_SENSOR_COUNT; snsIndex++)
 885:Generated_Source\PSoC4/CapSense.c ****     {
 886:Generated_Source\PSoC4/CapSense.c ****         CapSense_DisableScanSlot(snsIndex);
 887:Generated_Source\PSoC4/CapSense.c ****     }
 888:Generated_Source\PSoC4/CapSense.c **** }
 889:Generated_Source\PSoC4/CapSense.c **** 
 890:Generated_Source\PSoC4/CapSense.c **** 
 891:Generated_Source\PSoC4/CapSense.c **** #if (CapSense_IS_COMPLEX_SCANSLOTS)
 892:Generated_Source\PSoC4/CapSense.c ****     /*******************************************************************************
 893:Generated_Source\PSoC4/CapSense.c ****     * Function Name: CapSense_EnableScanSlot
 894:Generated_Source\PSoC4/CapSense.c ****     ********************************************************************************
 895:Generated_Source\PSoC4/CapSense.c ****     *
 896:Generated_Source\PSoC4/CapSense.c ****     * Summary:
 897:Generated_Source\PSoC4/CapSense.c ****     *  Configures the selected slot to measure during the next measurement
 898:Generated_Source\PSoC4/CapSense.c ****     *  cycle. The corresponding pin/pins are set to Analog High-Z mode and
 899:Generated_Source\PSoC4/CapSense.c ****     *  connected to the Analog Mux Bus. This also enables the comparator function.
 900:Generated_Source\PSoC4/CapSense.c ****     *
 901:Generated_Source\PSoC4/CapSense.c ****     * Parameters:
 902:Generated_Source\PSoC4/CapSense.c ****     *  slot:  Slot number.
 903:Generated_Source\PSoC4/CapSense.c ****     *
 904:Generated_Source\PSoC4/CapSense.c ****     * Return:
 905:Generated_Source\PSoC4/CapSense.c ****     *  None
 906:Generated_Source\PSoC4/CapSense.c ****     *
 907:Generated_Source\PSoC4/CapSense.c ****     * Global Constants:
 908:Generated_Source\PSoC4/CapSense.c ****     *  CapSense_portTable[]  - used to store the port number that pin
 909:Generated_Source\PSoC4/CapSense.c ****     *  belongs to for each sensor.
 910:Generated_Source\PSoC4/CapSense.c ****     *  CapSense_maskTable[]  - used to store the pin within the port for
 911:Generated_Source\PSoC4/CapSense.c ****     *  each sensor.
 912:Generated_Source\PSoC4/CapSense.c ****     *  CapSense_indexTable[] - used to store indexes of complex sensors.
 913:Generated_Source\PSoC4/CapSense.c ****     *  The offset and position in this array are stored in a port and mask table for
 914:Generated_Source\PSoC4/CapSense.c ****     *  complex sensors.
 915:Generated_Source\PSoC4/CapSense.c ****     *  Bit 7 (msb) is used to define the sensor type: single or complex.
 916:Generated_Source\PSoC4/CapSense.c ****     *
 917:Generated_Source\PSoC4/CapSense.c ****     * Side Effects:
 918:Generated_Source\PSoC4/CapSense.c ****     *  None
 919:Generated_Source\PSoC4/CapSense.c ****     *
 920:Generated_Source\PSoC4/CapSense.c ****     *******************************************************************************/
ARM GAS  C:\Users\Zeynep\AppData\Local\Temp\ccgAGQqu.s 			page 24


 921:Generated_Source\PSoC4/CapSense.c ****     void CapSense_EnableScanSlot(uint32 slot)
 922:Generated_Source\PSoC4/CapSense.c ****     {
 923:Generated_Source\PSoC4/CapSense.c ****         uint8 j;
 924:Generated_Source\PSoC4/CapSense.c ****         uint8 snsNumber;
 925:Generated_Source\PSoC4/CapSense.c ****         const uint8 *index;
 926:Generated_Source\PSoC4/CapSense.c ****         /* Read sensor type: single or complex */
 927:Generated_Source\PSoC4/CapSense.c ****         uint8 snsType = CapSense_portTable[slot];
 928:Generated_Source\PSoC4/CapSense.c **** 
 929:Generated_Source\PSoC4/CapSense.c ****         /* Check if sensor is complex */
 930:Generated_Source\PSoC4/CapSense.c ****         if ((snsType & CapSense_COMPLEX_SS_FLAG) == 0u)
 931:Generated_Source\PSoC4/CapSense.c ****         {
 932:Generated_Source\PSoC4/CapSense.c ****             /* Enable sensor (single) */
 933:Generated_Source\PSoC4/CapSense.c ****             CapSense_EnableSensor(slot);
 934:Generated_Source\PSoC4/CapSense.c ****         }
 935:Generated_Source\PSoC4/CapSense.c ****         else
 936:Generated_Source\PSoC4/CapSense.c ****         {
 937:Generated_Source\PSoC4/CapSense.c ****             /* Enable complex sensor */
 938:Generated_Source\PSoC4/CapSense.c ****             snsType &= ~CapSense_COMPLEX_SS_FLAG;
 939:Generated_Source\PSoC4/CapSense.c ****             index = &CapSense_indexTable[snsType];
 940:Generated_Source\PSoC4/CapSense.c ****             snsNumber = CapSense_maskTable[slot];
 941:Generated_Source\PSoC4/CapSense.c **** 
 942:Generated_Source\PSoC4/CapSense.c ****             for (j = 0u; j < snsNumber; j++)
 943:Generated_Source\PSoC4/CapSense.c ****             {
 944:Generated_Source\PSoC4/CapSense.c ****                 CapSense_EnableSensor(index[j]);
 945:Generated_Source\PSoC4/CapSense.c ****             }
 946:Generated_Source\PSoC4/CapSense.c ****         }
 947:Generated_Source\PSoC4/CapSense.c ****     }
 948:Generated_Source\PSoC4/CapSense.c **** 
 949:Generated_Source\PSoC4/CapSense.c **** 
 950:Generated_Source\PSoC4/CapSense.c ****     /*******************************************************************************
 951:Generated_Source\PSoC4/CapSense.c ****     * Function Name: CapSense_DisableScanSlot
 952:Generated_Source\PSoC4/CapSense.c ****     ********************************************************************************
 953:Generated_Source\PSoC4/CapSense.c ****     *
 954:Generated_Source\PSoC4/CapSense.c ****     * Summary:
 955:Generated_Source\PSoC4/CapSense.c ****     *  Disables the selected slot. The corresponding pin/pins is/are disconnected
 956:Generated_Source\PSoC4/CapSense.c ****     *  from the Analog Mux Bus and connected to GND, High_Z or Shield electrode.
 957:Generated_Source\PSoC4/CapSense.c ****     *
 958:Generated_Source\PSoC4/CapSense.c ****     * Parameters:
 959:Generated_Source\PSoC4/CapSense.c ****     *  slot:  Slot number.
 960:Generated_Source\PSoC4/CapSense.c ****     *
 961:Generated_Source\PSoC4/CapSense.c ****     * Return:
 962:Generated_Source\PSoC4/CapSense.c ****     *  None
 963:Generated_Source\PSoC4/CapSense.c ****     *
 964:Generated_Source\PSoC4/CapSense.c ****     * Global Variables:
 965:Generated_Source\PSoC4/CapSense.c ****     *  CapSense_portTable[]  - used to store the port number that pin
 966:Generated_Source\PSoC4/CapSense.c ****     *  belongs to for each sensor.
 967:Generated_Source\PSoC4/CapSense.c ****     *  CapSense_maskTable[]  - used to store the pin within the port for
 968:Generated_Source\PSoC4/CapSense.c ****     *  each sensor.
 969:Generated_Source\PSoC4/CapSense.c ****     *  CapSense_indexTable[] - used to store indexes of complex sensors.
 970:Generated_Source\PSoC4/CapSense.c ****     *  The offset and position in this array are stored in a port and mask table for
 971:Generated_Source\PSoC4/CapSense.c ****     *  complex sensors.
 972:Generated_Source\PSoC4/CapSense.c ****     *  7bit(msb) is used to define the sensor type: single or complex.
 973:Generated_Source\PSoC4/CapSense.c ****     *
 974:Generated_Source\PSoC4/CapSense.c ****     * Side Effects:
 975:Generated_Source\PSoC4/CapSense.c ****     *  None
 976:Generated_Source\PSoC4/CapSense.c ****     *
 977:Generated_Source\PSoC4/CapSense.c ****     *******************************************************************************/
ARM GAS  C:\Users\Zeynep\AppData\Local\Temp\ccgAGQqu.s 			page 25


 978:Generated_Source\PSoC4/CapSense.c ****     void CapSense_DisableScanSlot(uint32 slot)
 979:Generated_Source\PSoC4/CapSense.c ****     {
 980:Generated_Source\PSoC4/CapSense.c ****         uint8 j;
 981:Generated_Source\PSoC4/CapSense.c ****         uint8 snsNumber;
 982:Generated_Source\PSoC4/CapSense.c ****         const uint8 *index;
 983:Generated_Source\PSoC4/CapSense.c **** 
 984:Generated_Source\PSoC4/CapSense.c ****         /* Read sensor type: single or complex */
 985:Generated_Source\PSoC4/CapSense.c ****         uint8 snsType = CapSense_portTable[slot];
 986:Generated_Source\PSoC4/CapSense.c **** 
 987:Generated_Source\PSoC4/CapSense.c ****         /* Check if sensor is complex */
 988:Generated_Source\PSoC4/CapSense.c ****         if ((snsType & CapSense_COMPLEX_SS_FLAG) == 0u)
 989:Generated_Source\PSoC4/CapSense.c ****         {
 990:Generated_Source\PSoC4/CapSense.c ****             /* Disable sensor (single) */
 991:Generated_Source\PSoC4/CapSense.c ****             CapSense_DisableSensor(slot);
 992:Generated_Source\PSoC4/CapSense.c ****         }
 993:Generated_Source\PSoC4/CapSense.c ****         else
 994:Generated_Source\PSoC4/CapSense.c ****         {
 995:Generated_Source\PSoC4/CapSense.c ****             /* Disable complex sensor */
 996:Generated_Source\PSoC4/CapSense.c ****             snsType &= ~CapSense_COMPLEX_SS_FLAG;
 997:Generated_Source\PSoC4/CapSense.c ****             index = &CapSense_indexTable[snsType];
 998:Generated_Source\PSoC4/CapSense.c ****             snsNumber = CapSense_maskTable[slot];
 999:Generated_Source\PSoC4/CapSense.c **** 
1000:Generated_Source\PSoC4/CapSense.c ****             for (j=0; j < snsNumber; j++)
1001:Generated_Source\PSoC4/CapSense.c ****             {
1002:Generated_Source\PSoC4/CapSense.c ****                 CapSense_DisableSensor(index[j]);
1003:Generated_Source\PSoC4/CapSense.c ****             }
1004:Generated_Source\PSoC4/CapSense.c ****         }
1005:Generated_Source\PSoC4/CapSense.c ****     }
1006:Generated_Source\PSoC4/CapSense.c **** #endif  /* CapSense_IS_COMPLEX_SCANSLOTS */
1007:Generated_Source\PSoC4/CapSense.c **** 
1008:Generated_Source\PSoC4/CapSense.c **** 
1009:Generated_Source\PSoC4/CapSense.c **** /*******************************************************************************
1010:Generated_Source\PSoC4/CapSense.c **** * Function Name: CapSense_EnableSensor
1011:Generated_Source\PSoC4/CapSense.c **** ********************************************************************************
1012:Generated_Source\PSoC4/CapSense.c **** *
1013:Generated_Source\PSoC4/CapSense.c **** * Summary:
1014:Generated_Source\PSoC4/CapSense.c **** *  Configures the selected sensor to measure during the next measurement cycle.
1015:Generated_Source\PSoC4/CapSense.c **** *  The corresponding pins are set to Analog High-Z mode and connected to the
1016:Generated_Source\PSoC4/CapSense.c **** *  Analog Mux Bus. This also enables the comparator function.
1017:Generated_Source\PSoC4/CapSense.c **** *
1018:Generated_Source\PSoC4/CapSense.c **** * Parameters:
1019:Generated_Source\PSoC4/CapSense.c **** *  sensor:  Sensor number.
1020:Generated_Source\PSoC4/CapSense.c **** *
1021:Generated_Source\PSoC4/CapSense.c **** * Return:
1022:Generated_Source\PSoC4/CapSense.c **** *  None
1023:Generated_Source\PSoC4/CapSense.c **** *
1024:Generated_Source\PSoC4/CapSense.c **** * Global Variables:
1025:Generated_Source\PSoC4/CapSense.c **** *  CapSense_portTable[] - used to store the port number that pin
1026:Generated_Source\PSoC4/CapSense.c **** *  belongs to for each sensor.
1027:Generated_Source\PSoC4/CapSense.c **** *  CapSense_pinShiftTbl[] - used to store position of pin that
1028:Generated_Source\PSoC4/CapSense.c **** *  configured as sensor in port.
1029:Generated_Source\PSoC4/CapSense.c **** *  CapSense_prtSelTbl[] - Contains pointers to the HSIOM
1030:Generated_Source\PSoC4/CapSense.c **** *  registers for each port.
1031:Generated_Source\PSoC4/CapSense.c **** *  CapSense_PrtCfgTb[] - Contains pointers to the port config
1032:Generated_Source\PSoC4/CapSense.c **** *  registers for each port.
1033:Generated_Source\PSoC4/CapSense.c **** *
1034:Generated_Source\PSoC4/CapSense.c **** * Side Effects:
ARM GAS  C:\Users\Zeynep\AppData\Local\Temp\ccgAGQqu.s 			page 26


1035:Generated_Source\PSoC4/CapSense.c **** *  None
1036:Generated_Source\PSoC4/CapSense.c **** *
1037:Generated_Source\PSoC4/CapSense.c **** *******************************************************************************/
1038:Generated_Source\PSoC4/CapSense.c **** void CapSense_EnableSensor(uint32 sensor)
1039:Generated_Source\PSoC4/CapSense.c **** {
 392              		.loc 1 1039 0
 393              		.cfi_startproc
 394              		@ args = 0, pretend = 0, frame = 0
 395              		@ frame_needed = 0, uses_anonymous_args = 0
 396              	.LVL34:
 397 0000 F8B5     		push	{r3, r4, r5, r6, r7, lr}
 398              		.cfi_def_cfa_offset 24
 399              		.cfi_offset 3, -24
 400              		.cfi_offset 4, -20
 401              		.cfi_offset 5, -16
 402              		.cfi_offset 6, -12
 403              		.cfi_offset 7, -8
 404              		.cfi_offset 14, -4
1040:Generated_Source\PSoC4/CapSense.c ****     uint8  pinModeShift;
1041:Generated_Source\PSoC4/CapSense.c ****     uint8  pinHSIOMShift;
1042:Generated_Source\PSoC4/CapSense.c ****     uint8 interruptState;
1043:Generated_Source\PSoC4/CapSense.c ****     uint32 newRegisterValue;
1044:Generated_Source\PSoC4/CapSense.c ****     uint32 port;
1045:Generated_Source\PSoC4/CapSense.c **** 
1046:Generated_Source\PSoC4/CapSense.c ****     port = (uint32) CapSense_portTable[sensor];
 405              		.loc 1 1046 0
 406 0002 104F     		ldr	r7, .L26
 407 0004 3E5C     		ldrb	r6, [r7, r0]
 408              	.LVL35:
1047:Generated_Source\PSoC4/CapSense.c ****     pinModeShift = CapSense_pinShiftTbl[sensor]  * CapSense_PC_PIN_CFG_SIZE;
 409              		.loc 1 1047 0
 410 0006 3818     		adds	r0, r7, r0
 411              	.LVL36:
 412 0008 037A     		ldrb	r3, [r0, #8]
 413 000a 5D00     		lsls	r5, r3, #1
 414 000c 5D19     		adds	r5, r3, r5
 415 000e EDB2     		uxtb	r5, r5
 416              	.LVL37:
1048:Generated_Source\PSoC4/CapSense.c ****     pinHSIOMShift = CapSense_pinShiftTbl[sensor] * CapSense_HSIOM_PIN_CFG_SIZE;
 417              		.loc 1 1048 0
 418 0010 9B00     		lsls	r3, r3, #2
 419 0012 DCB2     		uxtb	r4, r3
 420              	.LVL38:
1049:Generated_Source\PSoC4/CapSense.c **** 
1050:Generated_Source\PSoC4/CapSense.c ****     interruptState = CyEnterCriticalSection();
 421              		.loc 1 1050 0
 422 0014 FFF7FEFF 		bl	CyEnterCriticalSection
 423              	.LVL39:
1051:Generated_Source\PSoC4/CapSense.c **** 
1052:Generated_Source\PSoC4/CapSense.c ****     newRegisterValue = *CapSense_prtSelTbl[port];
 424              		.loc 1 1052 0
 425 0018 B300     		lsls	r3, r6, #2
 426 001a FB18     		adds	r3, r7, r3
 427 001c 1E69     		ldr	r6, [r3, #16]
 428              	.LVL40:
 429 001e 3268     		ldr	r2, [r6]
 430              	.LVL41:
ARM GAS  C:\Users\Zeynep\AppData\Local\Temp\ccgAGQqu.s 			page 27


1053:Generated_Source\PSoC4/CapSense.c ****     newRegisterValue &= ~(CapSense_CSD_HSIOM_MASK << pinHSIOMShift);
 431              		.loc 1 1053 0
 432 0020 0F21     		movs	r1, #15
 433 0022 A140     		lsls	r1, r1, r4
 434 0024 8A43     		bics	r2, r1
 435              	.LVL42:
 436 0026 1100     		movs	r1, r2
 437              	.LVL43:
1054:Generated_Source\PSoC4/CapSense.c ****     newRegisterValue |= (uint32)((uint32)CapSense_CSD_SENSE_PORT_MODE << pinHSIOMShift);
 438              		.loc 1 1054 0
 439 0028 0422     		movs	r2, #4
 440 002a A240     		lsls	r2, r2, r4
 441 002c 0A43     		orrs	r2, r1
 442              	.LVL44:
1055:Generated_Source\PSoC4/CapSense.c **** 
1056:Generated_Source\PSoC4/CapSense.c ****     *CapSense_prtCfgTbl[port] &= (uint32)~((uint32)CapSense_CSD_PIN_MODE_MASK << pinModeShift);
 443              		.loc 1 1056 0
 444 002e 5C6A     		ldr	r4, [r3, #36]
 445              	.LVL45:
 446 0030 2368     		ldr	r3, [r4]
 447 0032 0721     		movs	r1, #7
 448 0034 A940     		lsls	r1, r1, r5
 449 0036 8B43     		bics	r3, r1
 450 0038 2360     		str	r3, [r4]
1057:Generated_Source\PSoC4/CapSense.c ****     *CapSense_prtSelTbl[port] = newRegisterValue;
 451              		.loc 1 1057 0
 452 003a 3260     		str	r2, [r6]
1058:Generated_Source\PSoC4/CapSense.c **** 
1059:Generated_Source\PSoC4/CapSense.c ****     CyExitCriticalSection(interruptState);
 453              		.loc 1 1059 0
 454 003c FFF7FEFF 		bl	CyExitCriticalSection
 455              	.LVL46:
1060:Generated_Source\PSoC4/CapSense.c **** }
 456              		.loc 1 1060 0
 457              		@ sp needed
 458              	.LVL47:
 459              	.LVL48:
 460 0040 F8BD     		pop	{r3, r4, r5, r6, r7, pc}
 461              	.L27:
 462 0042 C046     		.align	2
 463              	.L26:
 464 0044 00000000 		.word	.LANCHOR2
 465              		.cfi_endproc
 466              	.LFE47:
 467              		.size	CapSense_EnableSensor, .-CapSense_EnableSensor
 468              		.section	.text.CapSense_DisableSensor,"ax",%progbits
 469              		.align	2
 470              		.global	CapSense_DisableSensor
 471              		.code	16
 472              		.thumb_func
 473              		.type	CapSense_DisableSensor, %function
 474              	CapSense_DisableSensor:
 475              	.LFB48:
1061:Generated_Source\PSoC4/CapSense.c **** 
1062:Generated_Source\PSoC4/CapSense.c **** 
1063:Generated_Source\PSoC4/CapSense.c **** /*******************************************************************************
1064:Generated_Source\PSoC4/CapSense.c **** * Function Name: CapSense_DisableSensor
ARM GAS  C:\Users\Zeynep\AppData\Local\Temp\ccgAGQqu.s 			page 28


1065:Generated_Source\PSoC4/CapSense.c **** ********************************************************************************
1066:Generated_Source\PSoC4/CapSense.c **** *
1067:Generated_Source\PSoC4/CapSense.c **** * Summary:
1068:Generated_Source\PSoC4/CapSense.c **** *  Disables the selected sensor. The corresponding pin is disconnected from the
1069:Generated_Source\PSoC4/CapSense.c **** *  Analog Mux Bus and connected to GND, High_Z or Shield electrode.
1070:Generated_Source\PSoC4/CapSense.c **** *
1071:Generated_Source\PSoC4/CapSense.c **** * Parameters:
1072:Generated_Source\PSoC4/CapSense.c **** *  sensor:  Sensor number
1073:Generated_Source\PSoC4/CapSense.c **** *
1074:Generated_Source\PSoC4/CapSense.c **** * Return:
1075:Generated_Source\PSoC4/CapSense.c **** *  None
1076:Generated_Source\PSoC4/CapSense.c **** *
1077:Generated_Source\PSoC4/CapSense.c **** * Global Variables:
1078:Generated_Source\PSoC4/CapSense.c **** *  CapSense_portTable[] - used to store the port number that pin
1079:Generated_Source\PSoC4/CapSense.c **** *  belongs to for each sensor.
1080:Generated_Source\PSoC4/CapSense.c **** *  CapSense_pinShiftTbl[] - used to store position of pin that
1081:Generated_Source\PSoC4/CapSense.c **** *  configured as a sensor in the port.
1082:Generated_Source\PSoC4/CapSense.c **** *  CapSense_prtSelTbl[] - Contains pointers to the HSIOM
1083:Generated_Source\PSoC4/CapSense.c **** *  registers for each port.
1084:Generated_Source\PSoC4/CapSense.c **** *  CapSense_PrtCfgTb[] - Contains pointers to the port config
1085:Generated_Source\PSoC4/CapSense.c **** *  registers for each port.
1086:Generated_Source\PSoC4/CapSense.c **** *
1087:Generated_Source\PSoC4/CapSense.c **** * Side Effects:
1088:Generated_Source\PSoC4/CapSense.c **** *  None
1089:Generated_Source\PSoC4/CapSense.c **** *
1090:Generated_Source\PSoC4/CapSense.c **** *******************************************************************************/
1091:Generated_Source\PSoC4/CapSense.c **** void CapSense_DisableSensor(uint32 sensor)
1092:Generated_Source\PSoC4/CapSense.c **** {
 476              		.loc 1 1092 0
 477              		.cfi_startproc
 478              		@ args = 0, pretend = 0, frame = 0
 479              		@ frame_needed = 0, uses_anonymous_args = 0
 480              	.LVL49:
 481 0000 F8B5     		push	{r3, r4, r5, r6, r7, lr}
 482              		.cfi_def_cfa_offset 24
 483              		.cfi_offset 3, -24
 484              		.cfi_offset 4, -20
 485              		.cfi_offset 5, -16
 486              		.cfi_offset 6, -12
 487              		.cfi_offset 7, -8
 488              		.cfi_offset 14, -4
1093:Generated_Source\PSoC4/CapSense.c ****     uint8 interruptState;
1094:Generated_Source\PSoC4/CapSense.c ****     uint32 newRegisterValue;
1095:Generated_Source\PSoC4/CapSense.c **** 
1096:Generated_Source\PSoC4/CapSense.c ****     uint32 port = (uint32) CapSense_portTable[sensor];
 489              		.loc 1 1096 0
 490 0002 194A     		ldr	r2, .L33
 491 0004 145C     		ldrb	r4, [r2, r0]
 492              	.LVL50:
1097:Generated_Source\PSoC4/CapSense.c ****     uint8  pinHSIOMShift = CapSense_pinShiftTbl[sensor] * CapSense_HSIOM_PIN_CFG_SIZE;
 493              		.loc 1 1097 0
 494 0006 1318     		adds	r3, r2, r0
 495 0008 1F7A     		ldrb	r7, [r3, #8]
 496 000a B900     		lsls	r1, r7, #2
 497 000c C9B2     		uxtb	r1, r1
 498              	.LVL51:
1098:Generated_Source\PSoC4/CapSense.c ****     uint8  pinModeShift = CapSense_pinShiftTbl[sensor]  * CapSense_PC_PIN_CFG_SIZE;
ARM GAS  C:\Users\Zeynep\AppData\Local\Temp\ccgAGQqu.s 			page 29


 499              		.loc 1 1098 0
 500 000e 7D00     		lsls	r5, r7, #1
 501 0010 7D19     		adds	r5, r7, r5
 502 0012 EDB2     		uxtb	r5, r5
 503              	.LVL52:
1099:Generated_Source\PSoC4/CapSense.c **** 
1100:Generated_Source\PSoC4/CapSense.c ****     uint32 inactiveConnect = CapSense_SNS_HIZANALOG_CONNECT;
1101:Generated_Source\PSoC4/CapSense.c ****     uint32 sensorState = CapSense_unscannedSnsDriveMode[sensor];
 504              		.loc 1 1101 0
 505 0014 154B     		ldr	r3, .L33+4
 506 0016 185C     		ldrb	r0, [r3, r0]
 507              	.LVL53:
1102:Generated_Source\PSoC4/CapSense.c **** 
1103:Generated_Source\PSoC4/CapSense.c ****     *CapSense_prtSelTbl[port] &= ~(CapSense_CSD_HSIOM_MASK << pinHSIOMShift);
 508              		.loc 1 1103 0
 509 0018 A300     		lsls	r3, r4, #2
 510 001a D318     		adds	r3, r2, r3
 511 001c 1E69     		ldr	r6, [r3, #16]
 512 001e 3368     		ldr	r3, [r6]
 513 0020 0F22     		movs	r2, #15
 514 0022 8A40     		lsls	r2, r2, r1
 515 0024 9343     		bics	r3, r2
 516 0026 3360     		str	r3, [r6]
1104:Generated_Source\PSoC4/CapSense.c **** 
1105:Generated_Source\PSoC4/CapSense.c ****     #if(CapSense_IS_SHIELD_ENABLE != 0)
1106:Generated_Source\PSoC4/CapSense.c ****     if(sensorState != (uint32)CapSense__SHIELD)
1107:Generated_Source\PSoC4/CapSense.c ****     {
1108:Generated_Source\PSoC4/CapSense.c ****     #else
1109:Generated_Source\PSoC4/CapSense.c ****         /* Connected to Ground if shield is disabled */
1110:Generated_Source\PSoC4/CapSense.c ****         if(sensorState == (uint32)CapSense__SHIELD)
 517              		.loc 1 1110 0
 518 0028 0228     		cmp	r0, #2
 519 002a 00D1     		bne	.L29
1111:Generated_Source\PSoC4/CapSense.c ****         {
1112:Generated_Source\PSoC4/CapSense.c ****             sensorState = (uint32)CapSense__GROUND;
 520              		.loc 1 1112 0
 521 002c 0020     		movs	r0, #0
 522              	.LVL54:
 523              	.L29:
1113:Generated_Source\PSoC4/CapSense.c ****         }
1114:Generated_Source\PSoC4/CapSense.c ****     #endif /* (CapSense_IS_SHIELD_ENABLE) */
1115:Generated_Source\PSoC4/CapSense.c ****         if(sensorState != (uint32)CapSense__HIZ_ANALOG)
 524              		.loc 1 1115 0
 525 002e 0128     		cmp	r0, #1
 526 0030 01D1     		bne	.L32
1100:Generated_Source\PSoC4/CapSense.c ****     uint32 sensorState = CapSense_unscannedSnsDriveMode[sensor];
 527              		.loc 1 1100 0
 528 0032 0026     		movs	r6, #0
 529 0034 00E0     		b	.L30
 530              	.L32:
1116:Generated_Source\PSoC4/CapSense.c ****         {
1117:Generated_Source\PSoC4/CapSense.c ****             /* Connected to Ground */
1118:Generated_Source\PSoC4/CapSense.c ****             inactiveConnect = (uint32)CapSense_SNS_GROUND_CONNECT;
 531              		.loc 1 1118 0
 532 0036 0626     		movs	r6, #6
 533              	.L30:
 534              	.LVL55:
ARM GAS  C:\Users\Zeynep\AppData\Local\Temp\ccgAGQqu.s 			page 30


1119:Generated_Source\PSoC4/CapSense.c ****         }
1120:Generated_Source\PSoC4/CapSense.c **** 
1121:Generated_Source\PSoC4/CapSense.c ****         interruptState = CyEnterCriticalSection();
 535              		.loc 1 1121 0
 536 0038 FFF7FEFF 		bl	CyEnterCriticalSection
 537              	.LVL56:
1122:Generated_Source\PSoC4/CapSense.c **** 
1123:Generated_Source\PSoC4/CapSense.c ****         /* Set drive mode */
1124:Generated_Source\PSoC4/CapSense.c ****         newRegisterValue = *CapSense_prtCfgTbl[port];
 538              		.loc 1 1124 0
 539 003c A400     		lsls	r4, r4, #2
 540              	.LVL57:
 541 003e 0A4B     		ldr	r3, .L33
 542              	.LVL58:
 543 0040 1C19     		adds	r4, r3, r4
 544 0042 616A     		ldr	r1, [r4, #36]
 545 0044 0B68     		ldr	r3, [r1]
 546              	.LVL59:
1125:Generated_Source\PSoC4/CapSense.c ****         newRegisterValue &= ~(CapSense_CSD_PIN_MODE_MASK << pinModeShift);
 547              		.loc 1 1125 0
 548 0046 0722     		movs	r2, #7
 549 0048 AA40     		lsls	r2, r2, r5
 550 004a 9343     		bics	r3, r2
 551              	.LVL60:
 552 004c 1A00     		movs	r2, r3
 553              	.LVL61:
1126:Generated_Source\PSoC4/CapSense.c ****         newRegisterValue |=  (uint32)(inactiveConnect << pinModeShift);
 554              		.loc 1 1126 0
 555 004e 3300     		movs	r3, r6
 556 0050 AB40     		lsls	r3, r3, r5
 557 0052 1343     		orrs	r3, r2
 558              	.LVL62:
1127:Generated_Source\PSoC4/CapSense.c ****         *CapSense_prtCfgTbl[port] =  newRegisterValue;
 559              		.loc 1 1127 0
 560 0054 0B60     		str	r3, [r1]
1128:Generated_Source\PSoC4/CapSense.c **** 
1129:Generated_Source\PSoC4/CapSense.c ****         CyExitCriticalSection(interruptState);
 561              		.loc 1 1129 0
 562 0056 FFF7FEFF 		bl	CyExitCriticalSection
 563              	.LVL63:
1130:Generated_Source\PSoC4/CapSense.c **** 
1131:Generated_Source\PSoC4/CapSense.c ****         *CapSense_prtDRTbl[port]  &=  (uint32)~(uint32)((uint32)1u << CapSense_pinShiftTbl[sensor])
 564              		.loc 1 1131 0
 565 005a A16B     		ldr	r1, [r4, #56]
 566 005c 0B68     		ldr	r3, [r1]
 567 005e 0122     		movs	r2, #1
 568 0060 BA40     		lsls	r2, r2, r7
 569 0062 9343     		bics	r3, r2
 570 0064 0B60     		str	r3, [r1]
1132:Generated_Source\PSoC4/CapSense.c ****     #if(CapSense_IS_SHIELD_ENABLE != 0)
1133:Generated_Source\PSoC4/CapSense.c ****     }
1134:Generated_Source\PSoC4/CapSense.c ****     else
1135:Generated_Source\PSoC4/CapSense.c ****     {
1136:Generated_Source\PSoC4/CapSense.c ****         /* Connect to Shield */
1137:Generated_Source\PSoC4/CapSense.c ****         *CapSense_prtSelTbl[port] |= (CapSense_CSD_SHIELD_PORT_MODE << pinHSIOMShift);
1138:Generated_Source\PSoC4/CapSense.c ****     }
1139:Generated_Source\PSoC4/CapSense.c ****     #endif /* (CapSense_IS_SHIELD_ENABLE) */
ARM GAS  C:\Users\Zeynep\AppData\Local\Temp\ccgAGQqu.s 			page 31


1140:Generated_Source\PSoC4/CapSense.c **** }
 571              		.loc 1 1140 0
 572              		@ sp needed
 573              	.LVL64:
 574              	.LVL65:
 575              	.LVL66:
 576 0066 F8BD     		pop	{r3, r4, r5, r6, r7, pc}
 577              	.L34:
 578              		.align	2
 579              	.L33:
 580 0068 00000000 		.word	.LANCHOR2
 581 006c 00000000 		.word	CapSense_unscannedSnsDriveMode
 582              		.cfi_endproc
 583              	.LFE48:
 584              		.size	CapSense_DisableSensor, .-CapSense_DisableSensor
 585              		.section	.text.CapSense_ClearSensors,"ax",%progbits
 586              		.align	2
 587              		.global	CapSense_ClearSensors
 588              		.code	16
 589              		.thumb_func
 590              		.type	CapSense_ClearSensors, %function
 591              	CapSense_ClearSensors:
 592              	.LFB46:
 881:Generated_Source\PSoC4/CapSense.c ****     uint32 snsIndex;
 593              		.loc 1 881 0
 594              		.cfi_startproc
 595              		@ args = 0, pretend = 0, frame = 0
 596              		@ frame_needed = 0, uses_anonymous_args = 0
 597 0000 10B5     		push	{r4, lr}
 598              		.cfi_def_cfa_offset 8
 599              		.cfi_offset 4, -8
 600              		.cfi_offset 14, -4
 601              	.LVL67:
 884:Generated_Source\PSoC4/CapSense.c ****     {
 602              		.loc 1 884 0
 603 0002 0024     		movs	r4, #0
 604 0004 03E0     		b	.L36
 605              	.LVL68:
 606              	.L37:
 886:Generated_Source\PSoC4/CapSense.c ****     }
 607              		.loc 1 886 0 discriminator 3
 608 0006 2000     		movs	r0, r4
 609 0008 FFF7FEFF 		bl	CapSense_DisableSensor
 610              	.LVL69:
 884:Generated_Source\PSoC4/CapSense.c ****     {
 611              		.loc 1 884 0 discriminator 3
 612 000c 0134     		adds	r4, r4, #1
 613              	.LVL70:
 614              	.L36:
 884:Generated_Source\PSoC4/CapSense.c ****     {
 615              		.loc 1 884 0 is_stmt 0 discriminator 1
 616 000e 042C     		cmp	r4, #4
 617 0010 F9D9     		bls	.L37
 888:Generated_Source\PSoC4/CapSense.c **** 
 618              		.loc 1 888 0 is_stmt 1
 619              		@ sp needed
 620              	.LVL71:
ARM GAS  C:\Users\Zeynep\AppData\Local\Temp\ccgAGQqu.s 			page 32


 621 0012 10BD     		pop	{r4, pc}
 622              		.cfi_endproc
 623              	.LFE46:
 624              		.size	CapSense_ClearSensors, .-CapSense_ClearSensors
 625              		.section	.text.CapSense_SetPinDriveMode,"ax",%progbits
 626              		.align	2
 627              		.global	CapSense_SetPinDriveMode
 628              		.code	16
 629              		.thumb_func
 630              		.type	CapSense_SetPinDriveMode, %function
 631              	CapSense_SetPinDriveMode:
 632              	.LFB51:
1141:Generated_Source\PSoC4/CapSense.c **** 
1142:Generated_Source\PSoC4/CapSense.c **** 
1143:Generated_Source\PSoC4/CapSense.c **** /*******************************************************************************
1144:Generated_Source\PSoC4/CapSense.c **** * Function Name: CapSense_SetDriveModeAllPins
1145:Generated_Source\PSoC4/CapSense.c **** ********************************************************************************
1146:Generated_Source\PSoC4/CapSense.c **** *
1147:Generated_Source\PSoC4/CapSense.c **** * Summary:
1148:Generated_Source\PSoC4/CapSense.c **** * This API sets the drive mode of port pins used by the CapSense
1149:Generated_Source\PSoC4/CapSense.c **** * component (sensors, guard, shield, shield tank and Cmod) to drive the
1150:Generated_Source\PSoC4/CapSense.c **** * mode specified by the argument.
1151:Generated_Source\PSoC4/CapSense.c **** *
1152:Generated_Source\PSoC4/CapSense.c **** * Parameters:
1153:Generated_Source\PSoC4/CapSense.c **** *  driveMode:  Drive mode definition.
1154:Generated_Source\PSoC4/CapSense.c **** *
1155:Generated_Source\PSoC4/CapSense.c **** * Return:
1156:Generated_Source\PSoC4/CapSense.c **** *  None
1157:Generated_Source\PSoC4/CapSense.c **** *
1158:Generated_Source\PSoC4/CapSense.c **** * Global Variables:
1159:Generated_Source\PSoC4/CapSense.c **** *  CapSense_portTable[] - used to store the port number that pin
1160:Generated_Source\PSoC4/CapSense.c **** *  belongs to for each sensor.
1161:Generated_Source\PSoC4/CapSense.c **** *  CapSense_pinShiftTbl[] - used to store position of pin that
1162:Generated_Source\PSoC4/CapSense.c **** *  configured as a sensor in the port.
1163:Generated_Source\PSoC4/CapSense.c **** *
1164:Generated_Source\PSoC4/CapSense.c **** * Side Effects:
1165:Generated_Source\PSoC4/CapSense.c **** *  This API shall be called only after CapSense component is stopped.
1166:Generated_Source\PSoC4/CapSense.c **** *
1167:Generated_Source\PSoC4/CapSense.c **** *******************************************************************************/
1168:Generated_Source\PSoC4/CapSense.c **** void CapSense_SetDriveModeAllPins(uint32 driveMode)
1169:Generated_Source\PSoC4/CapSense.c **** {
1170:Generated_Source\PSoC4/CapSense.c ****     uint8 curSensor;
1171:Generated_Source\PSoC4/CapSense.c ****     #if (CapSense_IS_COMPLEX_SCANSLOTS)
1172:Generated_Source\PSoC4/CapSense.c ****         uint8 snsNumber;
1173:Generated_Source\PSoC4/CapSense.c ****         uint8 snsType;
1174:Generated_Source\PSoC4/CapSense.c ****     #endif  /* CapSense_IS_COMPLEX_SCANSLOTS */
1175:Generated_Source\PSoC4/CapSense.c ****     uint32 prtNumberTmp;
1176:Generated_Source\PSoC4/CapSense.c ****     uint32 pinNumberTmp;
1177:Generated_Source\PSoC4/CapSense.c **** 
1178:Generated_Source\PSoC4/CapSense.c ****     for(curSensor = 0u; curSensor < CapSense_TOTAL_SENSOR_COUNT; curSensor++)
1179:Generated_Source\PSoC4/CapSense.c ****     {
1180:Generated_Source\PSoC4/CapSense.c ****         #if (CapSense_IS_COMPLEX_SCANSLOTS)
1181:Generated_Source\PSoC4/CapSense.c ****             /* Read sensor type: single or complex */
1182:Generated_Source\PSoC4/CapSense.c ****             snsType = CapSense_portTable[curSensor];
1183:Generated_Source\PSoC4/CapSense.c **** 
1184:Generated_Source\PSoC4/CapSense.c ****             /* Check if sensor is complex */
1185:Generated_Source\PSoC4/CapSense.c ****             if ((snsType & CapSense_COMPLEX_SS_FLAG) == 0u)
ARM GAS  C:\Users\Zeynep\AppData\Local\Temp\ccgAGQqu.s 			page 33


1186:Generated_Source\PSoC4/CapSense.c ****             {
1187:Generated_Source\PSoC4/CapSense.c ****                 /* The sensor is not complex */
1188:Generated_Source\PSoC4/CapSense.c ****                 snsNumber = curSensor;
1189:Generated_Source\PSoC4/CapSense.c ****             }
1190:Generated_Source\PSoC4/CapSense.c ****             else
1191:Generated_Source\PSoC4/CapSense.c ****             {
1192:Generated_Source\PSoC4/CapSense.c ****                 /* Get dedicated sensor ID of the complex sensor */
1193:Generated_Source\PSoC4/CapSense.c ****                 snsType &= ~CapSense_COMPLEX_SS_FLAG;
1194:Generated_Source\PSoC4/CapSense.c ****                 snsNumber = CapSense_indexTable[snsType];
1195:Generated_Source\PSoC4/CapSense.c ****             }
1196:Generated_Source\PSoC4/CapSense.c **** 
1197:Generated_Source\PSoC4/CapSense.c ****             prtNumberTmp = CapSense_portTable[snsNumber];
1198:Generated_Source\PSoC4/CapSense.c ****             pinNumberTmp = CapSense_pinShiftTbl[snsNumber];
1199:Generated_Source\PSoC4/CapSense.c ****         #else
1200:Generated_Source\PSoC4/CapSense.c ****             prtNumberTmp = CapSense_portTable[curSensor];
1201:Generated_Source\PSoC4/CapSense.c ****             pinNumberTmp = CapSense_pinShiftTbl[curSensor];
1202:Generated_Source\PSoC4/CapSense.c ****         #endif  /* CapSense_IS_COMPLEX_SCANSLOTS */
1203:Generated_Source\PSoC4/CapSense.c **** 
1204:Generated_Source\PSoC4/CapSense.c ****         CapSense_SetPinDriveMode(driveMode, pinNumberTmp, prtNumberTmp);
1205:Generated_Source\PSoC4/CapSense.c ****     }
1206:Generated_Source\PSoC4/CapSense.c **** 
1207:Generated_Source\PSoC4/CapSense.c ****     CapSense_SetPinDriveMode(driveMode, (uint32)CapSense_CMOD_PIN_NUMBER, (uint32)CapSense_CMOD_PRT
1208:Generated_Source\PSoC4/CapSense.c **** 
1209:Generated_Source\PSoC4/CapSense.c ****     #if(0u != CapSense_CSH_TANK_ENABLE)
1210:Generated_Source\PSoC4/CapSense.c ****         CapSense_SetPinDriveMode(driveMode, (uint32)CapSense_CTANK_PIN_NUMBER, (uint32)CapSense_CTA
1211:Generated_Source\PSoC4/CapSense.c ****     #endif /* (0u != CapSense_CSH_TANK_ENABLE) */
1212:Generated_Source\PSoC4/CapSense.c **** 
1213:Generated_Source\PSoC4/CapSense.c ****     #if(0u != CapSense_IS_SHIELD_ENABLE)
1214:Generated_Source\PSoC4/CapSense.c ****         CapSense_SetPinDriveMode(driveMode, (uint32)CapSense_SHIELD_PIN_NUMBER, (uint32)CapSense_SH
1215:Generated_Source\PSoC4/CapSense.c ****     #endif /* (0u != CapSense_IS_SHIELD_ENABLE) */
1216:Generated_Source\PSoC4/CapSense.c **** }
1217:Generated_Source\PSoC4/CapSense.c **** 
1218:Generated_Source\PSoC4/CapSense.c **** 
1219:Generated_Source\PSoC4/CapSense.c **** /*******************************************************************************
1220:Generated_Source\PSoC4/CapSense.c **** * Function Name: CapSense_RestoreDriveModeAllPins
1221:Generated_Source\PSoC4/CapSense.c **** ********************************************************************************
1222:Generated_Source\PSoC4/CapSense.c **** *
1223:Generated_Source\PSoC4/CapSense.c **** * Summary:
1224:Generated_Source\PSoC4/CapSense.c **** *  This API restores the drive for all the CapSense port pins to the original
1225:Generated_Source\PSoC4/CapSense.c **** *  state.
1226:Generated_Source\PSoC4/CapSense.c **** *
1227:Generated_Source\PSoC4/CapSense.c **** * Parameters:
1228:Generated_Source\PSoC4/CapSense.c **** *  None
1229:Generated_Source\PSoC4/CapSense.c **** *
1230:Generated_Source\PSoC4/CapSense.c **** * Return:
1231:Generated_Source\PSoC4/CapSense.c **** *  None
1232:Generated_Source\PSoC4/CapSense.c **** *
1233:Generated_Source\PSoC4/CapSense.c **** * Global Variables:
1234:Generated_Source\PSoC4/CapSense.c **** *  CapSense_prtSelTbl[] - Contains pointers to the HSIOM
1235:Generated_Source\PSoC4/CapSense.c **** *  registers for each port.
1236:Generated_Source\PSoC4/CapSense.c **** *
1237:Generated_Source\PSoC4/CapSense.c **** * Side Effects:
1238:Generated_Source\PSoC4/CapSense.c **** *  This API is called only after the CapSense component is stopped.
1239:Generated_Source\PSoC4/CapSense.c **** *
1240:Generated_Source\PSoC4/CapSense.c **** *******************************************************************************/
1241:Generated_Source\PSoC4/CapSense.c **** void CapSense_RestoreDriveModeAllPins(void)
1242:Generated_Source\PSoC4/CapSense.c **** {
ARM GAS  C:\Users\Zeynep\AppData\Local\Temp\ccgAGQqu.s 			page 34


1243:Generated_Source\PSoC4/CapSense.c ****     uint32 newRegisterValue;
1244:Generated_Source\PSoC4/CapSense.c **** 
1245:Generated_Source\PSoC4/CapSense.c ****     CapSense_SetDriveModeAllPins(CY_SYS_PINS_DM_ALG_HIZ);
1246:Generated_Source\PSoC4/CapSense.c **** 
1247:Generated_Source\PSoC4/CapSense.c ****     newRegisterValue = CapSense_CMOD_CONNECTION_REG;
1248:Generated_Source\PSoC4/CapSense.c ****     newRegisterValue &= ~(CapSense_CSD_CMOD_CONNECTION_MASK);
1249:Generated_Source\PSoC4/CapSense.c ****     newRegisterValue |= CapSense_CSD_CMOD_TO_AMUXBUS_A;
1250:Generated_Source\PSoC4/CapSense.c ****     CapSense_CMOD_CONNECTION_REG = newRegisterValue;
1251:Generated_Source\PSoC4/CapSense.c **** 
1252:Generated_Source\PSoC4/CapSense.c ****     #if(0u != CapSense_CSH_TANK_ENABLE)
1253:Generated_Source\PSoC4/CapSense.c ****         newRegisterValue = CapSense_CTANK_CONNECTION_REG;
1254:Generated_Source\PSoC4/CapSense.c ****         newRegisterValue &= ~(CapSense_CSD_CTANK_CONNECTION_MASK);
1255:Generated_Source\PSoC4/CapSense.c ****         newRegisterValue |= CapSense_CSD_CTANK_TO_AMUXBUS_B;
1256:Generated_Source\PSoC4/CapSense.c ****         CapSense_CTANK_CONNECTION_REG = newRegisterValue;
1257:Generated_Source\PSoC4/CapSense.c ****     #endif/* (0u != CapSense_CSH_TANK_ENABLE) */
1258:Generated_Source\PSoC4/CapSense.c **** 
1259:Generated_Source\PSoC4/CapSense.c ****     #if(0u != CapSense_IS_SHIELD_ENABLE)
1260:Generated_Source\PSoC4/CapSense.c ****         newRegisterValue = *CapSense_prtSelTbl[CapSense_SHIELD_PORT_NUMBER];
1261:Generated_Source\PSoC4/CapSense.c ****         newRegisterValue &= ~(CapSense_CSD_HSIOM_MASK << ((uint32)CapSense_SHIELD_PIN_NUMBER * CapS
1262:Generated_Source\PSoC4/CapSense.c ****         newRegisterValue |= (CapSense_CSD_SHIELD_PORT_MODE << ((uint32)CapSense_SHIELD_PIN_NUMBER *
1263:Generated_Source\PSoC4/CapSense.c ****         *CapSense_prtSelTbl[CapSense_SHIELD_PORT_NUMBER] = newRegisterValue;
1264:Generated_Source\PSoC4/CapSense.c ****     #endif /* (0u != CapSense_IS_SHIELD_ENABLE) */
1265:Generated_Source\PSoC4/CapSense.c **** }
1266:Generated_Source\PSoC4/CapSense.c **** 
1267:Generated_Source\PSoC4/CapSense.c **** 
1268:Generated_Source\PSoC4/CapSense.c **** /*******************************************************************************
1269:Generated_Source\PSoC4/CapSense.c **** * Function Name: CapSense_SetPinDriveMode
1270:Generated_Source\PSoC4/CapSense.c **** ********************************************************************************
1271:Generated_Source\PSoC4/CapSense.c **** *
1272:Generated_Source\PSoC4/CapSense.c **** * Summary:
1273:Generated_Source\PSoC4/CapSense.c **** * This API sets the drive mode for the appropriate port/pin.
1274:Generated_Source\PSoC4/CapSense.c **** *
1275:Generated_Source\PSoC4/CapSense.c **** * Parameters:
1276:Generated_Source\PSoC4/CapSense.c **** *  driveMode:  Drive mode definition.
1277:Generated_Source\PSoC4/CapSense.c **** *  portNumber: contains port number (0, 1, 2).
1278:Generated_Source\PSoC4/CapSense.c **** *  pinNumber: contains pin number (0, 1, 2, ... , 7).
1279:Generated_Source\PSoC4/CapSense.c **** *
1280:Generated_Source\PSoC4/CapSense.c **** * Return:
1281:Generated_Source\PSoC4/CapSense.c **** *  None
1282:Generated_Source\PSoC4/CapSense.c **** *
1283:Generated_Source\PSoC4/CapSense.c **** * Global Variables:
1284:Generated_Source\PSoC4/CapSense.c **** *  CapSense_prtSelTbl[] - Contains pointers to the HSIOM
1285:Generated_Source\PSoC4/CapSense.c **** *  registers for each port.
1286:Generated_Source\PSoC4/CapSense.c **** *  CapSense_prtCfgTb[] - Contains pointers to the port config
1287:Generated_Source\PSoC4/CapSense.c **** *  registers for each port.
1288:Generated_Source\PSoC4/CapSense.c **** *
1289:Generated_Source\PSoC4/CapSense.c **** * Side Effects:
1290:Generated_Source\PSoC4/CapSense.c **** *  This API is called only after CapSense component is stopped.
1291:Generated_Source\PSoC4/CapSense.c **** *
1292:Generated_Source\PSoC4/CapSense.c **** *******************************************************************************/
1293:Generated_Source\PSoC4/CapSense.c **** void CapSense_SetPinDriveMode(uint32 driveMode, uint32 pinNumber, uint32 portNumber)
1294:Generated_Source\PSoC4/CapSense.c **** {
 633              		.loc 1 1294 0
 634              		.cfi_startproc
 635              		@ args = 0, pretend = 0, frame = 0
 636              		@ frame_needed = 0, uses_anonymous_args = 0
 637              	.LVL72:
ARM GAS  C:\Users\Zeynep\AppData\Local\Temp\ccgAGQqu.s 			page 35


 638 0000 10B5     		push	{r4, lr}
 639              		.cfi_def_cfa_offset 8
 640              		.cfi_offset 4, -8
 641              		.cfi_offset 14, -4
1295:Generated_Source\PSoC4/CapSense.c ****     uint32  pinModeShift;
1296:Generated_Source\PSoC4/CapSense.c ****     uint32 newRegisterValue;
1297:Generated_Source\PSoC4/CapSense.c **** 
1298:Generated_Source\PSoC4/CapSense.c ****     pinModeShift  = pinNumber * CapSense_PC_PIN_CFG_SIZE;
 642              		.loc 1 1298 0
 643 0002 4B00     		lsls	r3, r1, #1
 644 0004 5918     		adds	r1, r3, r1
 645              	.LVL73:
1299:Generated_Source\PSoC4/CapSense.c **** 
1300:Generated_Source\PSoC4/CapSense.c ****     newRegisterValue = *CapSense_prtCfgTbl[portNumber];
 646              		.loc 1 1300 0
 647 0006 9200     		lsls	r2, r2, #2
 648              	.LVL74:
 649 0008 054B     		ldr	r3, .L39
 650 000a 9A18     		adds	r2, r3, r2
 651 000c 546A     		ldr	r4, [r2, #36]
 652 000e 2368     		ldr	r3, [r4]
 653              	.LVL75:
1301:Generated_Source\PSoC4/CapSense.c ****     newRegisterValue &= ~(CapSense_CSD_PIN_MODE_MASK << pinModeShift);
 654              		.loc 1 1301 0
 655 0010 0722     		movs	r2, #7
 656 0012 8A40     		lsls	r2, r2, r1
 657 0014 9343     		bics	r3, r2
 658              	.LVL76:
1302:Generated_Source\PSoC4/CapSense.c ****     newRegisterValue |=  (uint32)((uint32)driveMode << pinModeShift);
 659              		.loc 1 1302 0
 660 0016 8840     		lsls	r0, r0, r1
 661              	.LVL77:
 662 0018 1843     		orrs	r0, r3
 663              	.LVL78:
1303:Generated_Source\PSoC4/CapSense.c ****     *CapSense_prtCfgTbl[portNumber] =  newRegisterValue;
 664              		.loc 1 1303 0
 665 001a 2060     		str	r0, [r4]
1304:Generated_Source\PSoC4/CapSense.c **** }
 666              		.loc 1 1304 0
 667              		@ sp needed
 668 001c 10BD     		pop	{r4, pc}
 669              	.L40:
 670 001e C046     		.align	2
 671              	.L39:
 672 0020 00000000 		.word	.LANCHOR2
 673              		.cfi_endproc
 674              	.LFE51:
 675              		.size	CapSense_SetPinDriveMode, .-CapSense_SetPinDriveMode
 676              		.section	.text.CapSense_SetDriveModeAllPins,"ax",%progbits
 677              		.align	2
 678              		.global	CapSense_SetDriveModeAllPins
 679              		.code	16
 680              		.thumb_func
 681              		.type	CapSense_SetDriveModeAllPins, %function
 682              	CapSense_SetDriveModeAllPins:
 683              	.LFB49:
1169:Generated_Source\PSoC4/CapSense.c ****     uint8 curSensor;
ARM GAS  C:\Users\Zeynep\AppData\Local\Temp\ccgAGQqu.s 			page 36


 684              		.loc 1 1169 0
 685              		.cfi_startproc
 686              		@ args = 0, pretend = 0, frame = 0
 687              		@ frame_needed = 0, uses_anonymous_args = 0
 688              	.LVL79:
 689 0000 70B5     		push	{r4, r5, r6, lr}
 690              		.cfi_def_cfa_offset 16
 691              		.cfi_offset 4, -16
 692              		.cfi_offset 5, -12
 693              		.cfi_offset 6, -8
 694              		.cfi_offset 14, -4
 695 0002 0500     		movs	r5, r0
 696              	.LVL80:
1178:Generated_Source\PSoC4/CapSense.c ****     {
 697              		.loc 1 1178 0
 698 0004 0024     		movs	r4, #0
 699 0006 08E0     		b	.L42
 700              	.LVL81:
 701              	.L43:
1200:Generated_Source\PSoC4/CapSense.c ****             pinNumberTmp = CapSense_pinShiftTbl[curSensor];
 702              		.loc 1 1200 0 discriminator 3
 703 0008 084B     		ldr	r3, .L44
 704 000a 1A5D     		ldrb	r2, [r3, r4]
 705              	.LVL82:
1201:Generated_Source\PSoC4/CapSense.c ****         #endif  /* CapSense_IS_COMPLEX_SCANSLOTS */
 706              		.loc 1 1201 0 discriminator 3
 707 000c 1B19     		adds	r3, r3, r4
 708 000e 197A     		ldrb	r1, [r3, #8]
 709              	.LVL83:
1204:Generated_Source\PSoC4/CapSense.c ****     }
 710              		.loc 1 1204 0 discriminator 3
 711 0010 2800     		movs	r0, r5
 712 0012 FFF7FEFF 		bl	CapSense_SetPinDriveMode
 713              	.LVL84:
1178:Generated_Source\PSoC4/CapSense.c ****     {
 714              		.loc 1 1178 0 discriminator 3
 715 0016 0134     		adds	r4, r4, #1
 716              	.LVL85:
 717 0018 E4B2     		uxtb	r4, r4
 718              	.LVL86:
 719              	.L42:
1178:Generated_Source\PSoC4/CapSense.c ****     {
 720              		.loc 1 1178 0 is_stmt 0 discriminator 1
 721 001a 042C     		cmp	r4, #4
 722 001c F4D9     		bls	.L43
1207:Generated_Source\PSoC4/CapSense.c **** 
 723              		.loc 1 1207 0 is_stmt 1
 724 001e 0422     		movs	r2, #4
 725 0020 0221     		movs	r1, #2
 726 0022 2800     		movs	r0, r5
 727 0024 FFF7FEFF 		bl	CapSense_SetPinDriveMode
 728              	.LVL87:
1216:Generated_Source\PSoC4/CapSense.c **** 
 729              		.loc 1 1216 0
 730              		@ sp needed
 731              	.LVL88:
 732              	.LVL89:
ARM GAS  C:\Users\Zeynep\AppData\Local\Temp\ccgAGQqu.s 			page 37


 733 0028 70BD     		pop	{r4, r5, r6, pc}
 734              	.L45:
 735 002a C046     		.align	2
 736              	.L44:
 737 002c 00000000 		.word	.LANCHOR2
 738              		.cfi_endproc
 739              	.LFE49:
 740              		.size	CapSense_SetDriveModeAllPins, .-CapSense_SetDriveModeAllPins
 741              		.section	.text.CapSense_RestoreDriveModeAllPins,"ax",%progbits
 742              		.align	2
 743              		.global	CapSense_RestoreDriveModeAllPins
 744              		.code	16
 745              		.thumb_func
 746              		.type	CapSense_RestoreDriveModeAllPins, %function
 747              	CapSense_RestoreDriveModeAllPins:
 748              	.LFB50:
1242:Generated_Source\PSoC4/CapSense.c ****     uint32 newRegisterValue;
 749              		.loc 1 1242 0
 750              		.cfi_startproc
 751              		@ args = 0, pretend = 0, frame = 0
 752              		@ frame_needed = 0, uses_anonymous_args = 0
 753 0000 10B5     		push	{r4, lr}
 754              		.cfi_def_cfa_offset 8
 755              		.cfi_offset 4, -8
 756              		.cfi_offset 14, -4
1245:Generated_Source\PSoC4/CapSense.c **** 
 757              		.loc 1 1245 0
 758 0002 0020     		movs	r0, #0
 759 0004 FFF7FEFF 		bl	CapSense_SetDriveModeAllPins
 760              	.LVL90:
1247:Generated_Source\PSoC4/CapSense.c ****     newRegisterValue &= ~(CapSense_CSD_CMOD_CONNECTION_MASK);
 761              		.loc 1 1247 0
 762 0008 044A     		ldr	r2, .L47
 763 000a 1168     		ldr	r1, [r2]
 764              	.LVL91:
1248:Generated_Source\PSoC4/CapSense.c ****     newRegisterValue |= CapSense_CSD_CMOD_TO_AMUXBUS_A;
 765              		.loc 1 1248 0
 766 000c 044B     		ldr	r3, .L47+4
 767 000e 0B40     		ands	r3, r1
 768              	.LVL92:
1249:Generated_Source\PSoC4/CapSense.c ****     CapSense_CMOD_CONNECTION_REG = newRegisterValue;
 769              		.loc 1 1249 0
 770 0010 C021     		movs	r1, #192
 771 0012 C900     		lsls	r1, r1, #3
 772 0014 0B43     		orrs	r3, r1
 773              	.LVL93:
1250:Generated_Source\PSoC4/CapSense.c **** 
 774              		.loc 1 1250 0
 775 0016 1360     		str	r3, [r2]
1265:Generated_Source\PSoC4/CapSense.c **** 
 776              		.loc 1 1265 0
 777              		@ sp needed
 778 0018 10BD     		pop	{r4, pc}
 779              	.L48:
 780 001a C046     		.align	2
 781              	.L47:
 782 001c 10000140 		.word	1073807376
ARM GAS  C:\Users\Zeynep\AppData\Local\Temp\ccgAGQqu.s 			page 38


 783 0020 FFF0FFFF 		.word	-3841
 784              		.cfi_endproc
 785              	.LFE50:
 786              		.size	CapSense_RestoreDriveModeAllPins, .-CapSense_RestoreDriveModeAllPins
 787              		.section	.text.CapSense_EnableShieldElectrode,"ax",%progbits
 788              		.align	2
 789              		.global	CapSense_EnableShieldElectrode
 790              		.code	16
 791              		.thumb_func
 792              		.type	CapSense_EnableShieldElectrode, %function
 793              	CapSense_EnableShieldElectrode:
 794              	.LFB54:
1305:Generated_Source\PSoC4/CapSense.c **** 
1306:Generated_Source\PSoC4/CapSense.c **** 
1307:Generated_Source\PSoC4/CapSense.c **** /*******************************************************************************
1308:Generated_Source\PSoC4/CapSense.c **** * Function Name: CapSense_PreScan
1309:Generated_Source\PSoC4/CapSense.c **** ********************************************************************************
1310:Generated_Source\PSoC4/CapSense.c **** *
1311:Generated_Source\PSoC4/CapSense.c **** * Summary:
1312:Generated_Source\PSoC4/CapSense.c **** *  Sets required settings, enables a sensor, removes Vref from AMUX and starts the
1313:Generated_Source\PSoC4/CapSense.c **** *  scanning process of the sensor.
1314:Generated_Source\PSoC4/CapSense.c **** *
1315:Generated_Source\PSoC4/CapSense.c **** * Parameters:
1316:Generated_Source\PSoC4/CapSense.c **** *  sensor:  Sensor number.
1317:Generated_Source\PSoC4/CapSense.c **** *
1318:Generated_Source\PSoC4/CapSense.c **** * Return:
1319:Generated_Source\PSoC4/CapSense.c **** *  None
1320:Generated_Source\PSoC4/CapSense.c **** *
1321:Generated_Source\PSoC4/CapSense.c **** * Global Variables:
1322:Generated_Source\PSoC4/CapSense.c **** * CapSense_widgetNumber[] - This array contains numbers of widgets for each sensor.
1323:Generated_Source\PSoC4/CapSense.c **** * CapSense_widgetResolution[] - Contains the widget resolution.
1324:Generated_Source\PSoC4/CapSense.c **** *
1325:Generated_Source\PSoC4/CapSense.c **** * Side Effects:
1326:Generated_Source\PSoC4/CapSense.c **** *  None
1327:Generated_Source\PSoC4/CapSense.c **** *
1328:Generated_Source\PSoC4/CapSense.c **** *******************************************************************************/
1329:Generated_Source\PSoC4/CapSense.c **** void CapSense_PreScan(uint32 sensor)
1330:Generated_Source\PSoC4/CapSense.c **** {
1331:Generated_Source\PSoC4/CapSense.c ****     uint8 widget;
1332:Generated_Source\PSoC4/CapSense.c ****     uint8 interruptState;
1333:Generated_Source\PSoC4/CapSense.c ****     uint32 newRegValue;
1334:Generated_Source\PSoC4/CapSense.c ****     uint32 counterResolution;
1335:Generated_Source\PSoC4/CapSense.c **** 
1336:Generated_Source\PSoC4/CapSense.c ****     #if(CapSense_PRS_OPTIONS == CapSense__PRS_AUTO)
1337:Generated_Source\PSoC4/CapSense.c ****         uint8 senseClkDivMath;
1338:Generated_Source\PSoC4/CapSense.c ****         uint8 sampleClkDivMath;
1339:Generated_Source\PSoC4/CapSense.c ****     #endif /* (CapSense_PRS_OPTIONS == CapSense__PRS_AUTO) */
1340:Generated_Source\PSoC4/CapSense.c **** 
1341:Generated_Source\PSoC4/CapSense.c ****     #if ((CapSense_TUNING_METHOD == CapSense__TUNING_AUTO) &&\
1342:Generated_Source\PSoC4/CapSense.c ****          (0 != CapSense_IS_OVERSAMPLING_EN))
1343:Generated_Source\PSoC4/CapSense.c ****         uint32 oversamplingFactor;
1344:Generated_Source\PSoC4/CapSense.c ****     #endif /* ((CapSense_TUNING_METHOD == CapSense__TUNING_AUTO) &&\
1345:Generated_Source\PSoC4/CapSense.c ****                (0 != CapSense_IS_OVERSAMPLING_EN)) */
1346:Generated_Source\PSoC4/CapSense.c **** 
1347:Generated_Source\PSoC4/CapSense.c ****     /* Define widget sensor belongs to */
1348:Generated_Source\PSoC4/CapSense.c ****     widget = CapSense_widgetNumber[sensor];
1349:Generated_Source\PSoC4/CapSense.c **** 
ARM GAS  C:\Users\Zeynep\AppData\Local\Temp\ccgAGQqu.s 			page 39


1350:Generated_Source\PSoC4/CapSense.c ****     /* Recalculate Counter Resolution to MSB 16 bits */
1351:Generated_Source\PSoC4/CapSense.c ****     counterResolution = CapSense_widgetResolution[widget];
1352:Generated_Source\PSoC4/CapSense.c **** 
1353:Generated_Source\PSoC4/CapSense.c ****     #if ((CapSense_TUNING_METHOD == CapSense__TUNING_AUTO) &&\
1354:Generated_Source\PSoC4/CapSense.c ****          (0 != CapSense_IS_OVERSAMPLING_EN))
1355:Generated_Source\PSoC4/CapSense.c ****         oversamplingFactor = CapSense_GetBitValue(CapSense_scanSpeedTbl, sensor);
1356:Generated_Source\PSoC4/CapSense.c **** 
1357:Generated_Source\PSoC4/CapSense.c ****         if(counterResolution < CapSense_RESOLUTION_16_BITS)
1358:Generated_Source\PSoC4/CapSense.c ****         {
1359:Generated_Source\PSoC4/CapSense.c ****             counterResolution <<= oversamplingFactor;
1360:Generated_Source\PSoC4/CapSense.c ****             counterResolution |= (uint32)(CapSense_RESOLUTION_8_BITS);
1361:Generated_Source\PSoC4/CapSense.c ****         }
1362:Generated_Source\PSoC4/CapSense.c ****     #endif /* ((CapSense_TUNING_METHOD == CapSense__TUNING_AUTO) &&\
1363:Generated_Source\PSoC4/CapSense.c ****                (0 != CapSense_IS_OVERSAMPLING_EN)) */
1364:Generated_Source\PSoC4/CapSense.c **** 
1365:Generated_Source\PSoC4/CapSense.c ****     #if (0u != CapSense_IS_M0S8PERI_BLOCK)
1366:Generated_Source\PSoC4/CapSense.c ****         CapSense_SenseClk_Stop();
1367:Generated_Source\PSoC4/CapSense.c ****         CapSense_SampleClk_Stop();
1368:Generated_Source\PSoC4/CapSense.c ****     #endif /* (0u != CapSense_IS_M0S8PERI_BLOCK) */
1369:Generated_Source\PSoC4/CapSense.c **** 
1370:Generated_Source\PSoC4/CapSense.c ****     #if (0u != CapSense_MULTIPLE_FREQUENCY_SET)
1371:Generated_Source\PSoC4/CapSense.c ****         CapSense_SampleClk_SetDividerValue((uint16)CapSense_sampleClkDividerVal[sensor]);
1372:Generated_Source\PSoC4/CapSense.c ****         CapSense_SenseClk_SetDividerValue((uint16)CapSense_senseClkDividerVal[sensor]);
1373:Generated_Source\PSoC4/CapSense.c ****     #else
1374:Generated_Source\PSoC4/CapSense.c ****         CapSense_SampleClk_SetDividerValue((uint16)CapSense_sampleClkDividerVal);
1375:Generated_Source\PSoC4/CapSense.c ****         CapSense_SenseClk_SetDividerValue((uint16)CapSense_senseClkDividerVal);
1376:Generated_Source\PSoC4/CapSense.c ****     #endif /* (0u != CapSense_MULTIPLE_FREQUENCY_SET) */
1377:Generated_Source\PSoC4/CapSense.c **** 
1378:Generated_Source\PSoC4/CapSense.c ****     #if (0u != CapSense_IS_M0S8PERI_BLOCK)
1379:Generated_Source\PSoC4/CapSense.c ****         CapSense_SampleClk_Start();
1380:Generated_Source\PSoC4/CapSense.c ****         CapSense_SenseClk_StartEx(CapSense_SampleClk__DIV_ID);
1381:Generated_Source\PSoC4/CapSense.c **** 
1382:Generated_Source\PSoC4/CapSense.c ****         #if(CapSense_PRS_OPTIONS == CapSense__PRS_NONE)
1383:Generated_Source\PSoC4/CapSense.c ****             CyIntDisable(CapSense_ISR_NUMBER);
1384:Generated_Source\PSoC4/CapSense.c ****             CapSense_CSD_CNT_REG = CapSense_ONE_CYCLE;
1385:Generated_Source\PSoC4/CapSense.c ****             while(0u != (CapSense_CSD_CNT_REG & CapSense_RESOLUTION_16_BITS))
1386:Generated_Source\PSoC4/CapSense.c ****             {
1387:Generated_Source\PSoC4/CapSense.c ****             /* Wait until scanning is complete */
1388:Generated_Source\PSoC4/CapSense.c ****             }
1389:Generated_Source\PSoC4/CapSense.c ****             CapSense_CSD_INTR_REG = 1u;
1390:Generated_Source\PSoC4/CapSense.c ****             CyIntClearPending(CapSense_ISR_NUMBER);
1391:Generated_Source\PSoC4/CapSense.c ****             CyIntEnable(CapSense_ISR_NUMBER);
1392:Generated_Source\PSoC4/CapSense.c ****         #endif /* CapSense_PRS_OPTIONS == CapSense__PRS_NONE */
1393:Generated_Source\PSoC4/CapSense.c ****     #endif /* (0u != CapSense_IS_M0S8PERI_BLOCK) */
1394:Generated_Source\PSoC4/CapSense.c **** 
1395:Generated_Source\PSoC4/CapSense.c **** #if(CapSense_PRS_OPTIONS != CapSense__PRS_NONE)
1396:Generated_Source\PSoC4/CapSense.c **** 
1397:Generated_Source\PSoC4/CapSense.c ****     #if(CapSense_TUNING_METHOD == CapSense__TUNING_AUTO)
1398:Generated_Source\PSoC4/CapSense.c ****         if(CapSense_prescalersTuningDone != 0u)
1399:Generated_Source\PSoC4/CapSense.c ****         {
1400:Generated_Source\PSoC4/CapSense.c ****     #endif /* (CapSense_TUNING_METHOD == CapSense__TUNING_AUTO) */
1401:Generated_Source\PSoC4/CapSense.c **** 
1402:Generated_Source\PSoC4/CapSense.c ****             CyIntDisable(CapSense_ISR_NUMBER);
1403:Generated_Source\PSoC4/CapSense.c **** 
1404:Generated_Source\PSoC4/CapSense.c ****             newRegValue = CapSense_CSD_CFG_REG;
1405:Generated_Source\PSoC4/CapSense.c ****             newRegValue |= CapSense_CSD_CFG_PRS_SELECT;
1406:Generated_Source\PSoC4/CapSense.c **** 
ARM GAS  C:\Users\Zeynep\AppData\Local\Temp\ccgAGQqu.s 			page 40


1407:Generated_Source\PSoC4/CapSense.c ****             #if(CapSense_PRS_OPTIONS == CapSense__PRS_AUTO)
1408:Generated_Source\PSoC4/CapSense.c **** 
1409:Generated_Source\PSoC4/CapSense.c ****                 newRegValue &= ~(CapSense_PRS_MODE_MASK);
1410:Generated_Source\PSoC4/CapSense.c **** 
1411:Generated_Source\PSoC4/CapSense.c ****                 #if (0u != CapSense_MULTIPLE_FREQUENCY_SET)
1412:Generated_Source\PSoC4/CapSense.c ****                     senseClkDivMath = CapSense_senseClkDividerVal[sensor];
1413:Generated_Source\PSoC4/CapSense.c ****                     sampleClkDivMath = CapSense_sampleClkDividerVal[sensor];
1414:Generated_Source\PSoC4/CapSense.c ****                 #else
1415:Generated_Source\PSoC4/CapSense.c ****                     senseClkDivMath = CapSense_senseClkDividerVal;
1416:Generated_Source\PSoC4/CapSense.c ****                     sampleClkDivMath = CapSense_sampleClkDividerVal;
1417:Generated_Source\PSoC4/CapSense.c ****                 #endif /* ( CapSense_MULTIPLE_FREQUENCY_SET) */
1418:Generated_Source\PSoC4/CapSense.c **** 
1419:Generated_Source\PSoC4/CapSense.c ****                 #if(0u == CapSense_IS_M0S8PERI_BLOCK)
1420:Generated_Source\PSoC4/CapSense.c ****                     senseClkDivMath *= sampleClkDivMath;
1421:Generated_Source\PSoC4/CapSense.c ****                 #endif /* (0u == CapSense_IS_M0S8PERI_BLOCK) */
1422:Generated_Source\PSoC4/CapSense.c **** 
1423:Generated_Source\PSoC4/CapSense.c ****                 if((senseClkDivMath * CapSense_RESOLUTION_12_BITS) <
1424:Generated_Source\PSoC4/CapSense.c ****                    (sampleClkDivMath * CapSense_widgetResolution[widget]))
1425:Generated_Source\PSoC4/CapSense.c ****                 {
1426:Generated_Source\PSoC4/CapSense.c ****                     newRegValue |= CapSense_CSD_PRS_12_BIT;
1427:Generated_Source\PSoC4/CapSense.c ****                 }
1428:Generated_Source\PSoC4/CapSense.c ****             #endif /* (CapSense_PRS_OPTIONS == CapSense__PRS_AUTO) */
1429:Generated_Source\PSoC4/CapSense.c **** 
1430:Generated_Source\PSoC4/CapSense.c ****             CapSense_CSD_CFG_REG = newRegValue;
1431:Generated_Source\PSoC4/CapSense.c **** 
1432:Generated_Source\PSoC4/CapSense.c ****             CyIntEnable(CapSense_ISR_NUMBER);
1433:Generated_Source\PSoC4/CapSense.c **** 
1434:Generated_Source\PSoC4/CapSense.c ****     #if(CapSense_TUNING_METHOD == CapSense__TUNING_AUTO)
1435:Generated_Source\PSoC4/CapSense.c ****         }
1436:Generated_Source\PSoC4/CapSense.c ****     #endif /* (CapSense_PRS_OPTIONS != CapSense__PRS_NONE) */
1437:Generated_Source\PSoC4/CapSense.c **** 
1438:Generated_Source\PSoC4/CapSense.c **** #endif /* (CapSense_PRS_OPTIONS == CapSense__PRS_NONE) */
1439:Generated_Source\PSoC4/CapSense.c **** 
1440:Generated_Source\PSoC4/CapSense.c ****     /* Set Idac Value */
1441:Generated_Source\PSoC4/CapSense.c ****     CyIntDisable(CapSense_ISR_NUMBER);
1442:Generated_Source\PSoC4/CapSense.c ****     newRegValue = CapSense_CSD_IDAC_REG;
1443:Generated_Source\PSoC4/CapSense.c **** 
1444:Generated_Source\PSoC4/CapSense.c **** #if (CapSense_IDAC_CNT == 1u)
1445:Generated_Source\PSoC4/CapSense.c ****     newRegValue &= ~(CapSense_CSD_IDAC1_DATA_MASK);
1446:Generated_Source\PSoC4/CapSense.c ****     newRegValue |= CapSense_modulationIDAC[sensor];
1447:Generated_Source\PSoC4/CapSense.c **** #else
1448:Generated_Source\PSoC4/CapSense.c ****     newRegValue &= ~(CapSense_CSD_IDAC1_DATA_MASK | CapSense_CSD_IDAC2_DATA_MASK);
1449:Generated_Source\PSoC4/CapSense.c ****     newRegValue |= (CapSense_modulationIDAC[sensor] |
1450:Generated_Source\PSoC4/CapSense.c ****                             (uint32)((uint32)CapSense_compensationIDAC[sensor] <<
1451:Generated_Source\PSoC4/CapSense.c ****                             CapSense_CSD_IDAC2_DATA_OFFSET));
1452:Generated_Source\PSoC4/CapSense.c **** #endif /* (CapSense_IDAC_CNT == 1u) */
1453:Generated_Source\PSoC4/CapSense.c **** 
1454:Generated_Source\PSoC4/CapSense.c ****     CapSense_CSD_IDAC_REG = newRegValue;
1455:Generated_Source\PSoC4/CapSense.c **** 
1456:Generated_Source\PSoC4/CapSense.c **** #if(CapSense_CMOD_PREGARGE_OPTION == CapSense__CAPPRIOBUF)
1457:Generated_Source\PSoC4/CapSense.c ****     newRegValue = CapSense_CMOD_CONNECTION_REG;
1458:Generated_Source\PSoC4/CapSense.c ****     newRegValue &= ~(CapSense_CSD_CMOD_CONNECTION_MASK);
1459:Generated_Source\PSoC4/CapSense.c ****     newRegValue |= CapSense_CSD_CMOD_TO_AMUXBUS_A;
1460:Generated_Source\PSoC4/CapSense.c ****     CapSense_CMOD_CONNECTION_REG = newRegValue;
1461:Generated_Source\PSoC4/CapSense.c **** 
1462:Generated_Source\PSoC4/CapSense.c ****     newRegValue = CapSense_CMOD_PORT_PC_REG;
1463:Generated_Source\PSoC4/CapSense.c ****     newRegValue &= ~(CapSense_CSD_CMOD_PC_MASK);
ARM GAS  C:\Users\Zeynep\AppData\Local\Temp\ccgAGQqu.s 			page 41


1464:Generated_Source\PSoC4/CapSense.c ****     newRegValue |= CapSense_CMOD_PC_HIGH_Z_MODE;
1465:Generated_Source\PSoC4/CapSense.c ****     CapSense_CMOD_PORT_PC_REG = newRegValue;
1466:Generated_Source\PSoC4/CapSense.c **** #endif /* (CapSense_CMOD_PREGARGE_OPTION == CapSense__CAPPRIOBUF) */
1467:Generated_Source\PSoC4/CapSense.c **** 
1468:Generated_Source\PSoC4/CapSense.c ****     /* Disconnect Vref Buffer from AMUX */
1469:Generated_Source\PSoC4/CapSense.c ****     newRegValue = CapSense_CSD_CFG_REG;
1470:Generated_Source\PSoC4/CapSense.c ****     newRegValue &= ~(CapSense_PRECHARGE_CONFIG_MASK);
1471:Generated_Source\PSoC4/CapSense.c ****     newRegValue |= CapSense_CTANK_PRECHARGE_CONFIG;
1472:Generated_Source\PSoC4/CapSense.c **** 
1473:Generated_Source\PSoC4/CapSense.c ****     CyIntEnable(CapSense_ISR_NUMBER);
1474:Generated_Source\PSoC4/CapSense.c **** 
1475:Generated_Source\PSoC4/CapSense.c ****     /* Enable Sensor */
1476:Generated_Source\PSoC4/CapSense.c ****     CapSense_EnableScanSlot(sensor);
1477:Generated_Source\PSoC4/CapSense.c **** 
1478:Generated_Source\PSoC4/CapSense.c ****     interruptState = CyEnterCriticalSection();
1479:Generated_Source\PSoC4/CapSense.c ****     CapSense_CSD_CFG_REG = newRegValue;
1480:Generated_Source\PSoC4/CapSense.c **** 
1481:Generated_Source\PSoC4/CapSense.c ****     /* `#START CapSense_PreSettlingDelay_Debug` */
1482:Generated_Source\PSoC4/CapSense.c **** 
1483:Generated_Source\PSoC4/CapSense.c ****     /* `#END` */
1484:Generated_Source\PSoC4/CapSense.c **** 
1485:Generated_Source\PSoC4/CapSense.c **** #ifdef CapSense_PRE_SCAN_PRE_SETTLING_DELAY_DEBUG_CALLBACK
1486:Generated_Source\PSoC4/CapSense.c ****     CapSense_PreScan_Pre_SettlingDelay_Debug_Callback();
1487:Generated_Source\PSoC4/CapSense.c **** #endif /* CapSense_PRE_SCAN_PRE_SETTLING_DELAY_DEBUG_CALLBACK */
1488:Generated_Source\PSoC4/CapSense.c **** 
1489:Generated_Source\PSoC4/CapSense.c ****     CyDelayCycles(CapSense_GLITCH_ELIMINATION_CYCLES);
1490:Generated_Source\PSoC4/CapSense.c **** 
1491:Generated_Source\PSoC4/CapSense.c ****     /* `#START CapSense_PreScan_Debug` */
1492:Generated_Source\PSoC4/CapSense.c **** 
1493:Generated_Source\PSoC4/CapSense.c ****     /* `#END` */
1494:Generated_Source\PSoC4/CapSense.c **** 
1495:Generated_Source\PSoC4/CapSense.c **** #ifdef CapSense_PRE_SCAN_DEBUG_CALLBACK
1496:Generated_Source\PSoC4/CapSense.c ****     CapSense_PreScan_Debug_Callback();
1497:Generated_Source\PSoC4/CapSense.c **** #endif /* CapSense_PRE_SCAN_DEBUG_CALLBACK */
1498:Generated_Source\PSoC4/CapSense.c **** 
1499:Generated_Source\PSoC4/CapSense.c ****     CapSense_CSD_CNT_REG = counterResolution;
1500:Generated_Source\PSoC4/CapSense.c ****     CyExitCriticalSection(interruptState);
1501:Generated_Source\PSoC4/CapSense.c **** }
1502:Generated_Source\PSoC4/CapSense.c **** 
1503:Generated_Source\PSoC4/CapSense.c **** 
1504:Generated_Source\PSoC4/CapSense.c **** /*******************************************************************************
1505:Generated_Source\PSoC4/CapSense.c **** * Function Name: CapSense_PostScan
1506:Generated_Source\PSoC4/CapSense.c **** ********************************************************************************
1507:Generated_Source\PSoC4/CapSense.c **** *
1508:Generated_Source\PSoC4/CapSense.c **** * Summary:
1509:Generated_Source\PSoC4/CapSense.c **** *  Stores the results of measurement in the CapSense_sensorRaw[] array,
1510:Generated_Source\PSoC4/CapSense.c **** *  sets the scanning sensor in the non-sampling state, turns off Idac(Current Source IDAC),
1511:Generated_Source\PSoC4/CapSense.c **** *  disconnects the IDAC(Sink mode), and applies Vref on AMUX.
1512:Generated_Source\PSoC4/CapSense.c **** *
1513:Generated_Source\PSoC4/CapSense.c **** * Parameters:
1514:Generated_Source\PSoC4/CapSense.c **** *  sensor:  Sensor number.
1515:Generated_Source\PSoC4/CapSense.c **** *
1516:Generated_Source\PSoC4/CapSense.c **** * Return:
1517:Generated_Source\PSoC4/CapSense.c **** *  None
1518:Generated_Source\PSoC4/CapSense.c **** *
1519:Generated_Source\PSoC4/CapSense.c **** * Global Variables:
1520:Generated_Source\PSoC4/CapSense.c **** *  CapSense_sensorRaw[] - used to store sensors raw data.
ARM GAS  C:\Users\Zeynep\AppData\Local\Temp\ccgAGQqu.s 			page 42


1521:Generated_Source\PSoC4/CapSense.c **** *
1522:Generated_Source\PSoC4/CapSense.c **** * Side Effects:
1523:Generated_Source\PSoC4/CapSense.c **** *  None
1524:Generated_Source\PSoC4/CapSense.c **** *
1525:Generated_Source\PSoC4/CapSense.c **** *******************************************************************************/
1526:Generated_Source\PSoC4/CapSense.c **** void CapSense_PostScan(uint32 sensor)
1527:Generated_Source\PSoC4/CapSense.c **** {
1528:Generated_Source\PSoC4/CapSense.c ****     uint32 newRegValue;
1529:Generated_Source\PSoC4/CapSense.c **** #if ((CapSense_TUNING_METHOD == CapSense__TUNING_AUTO) &&\
1530:Generated_Source\PSoC4/CapSense.c ****      (0 != CapSense_IS_OVERSAMPLING_EN))
1531:Generated_Source\PSoC4/CapSense.c ****     uint32 oversamplingFactor;
1532:Generated_Source\PSoC4/CapSense.c ****     uint32 widget;
1533:Generated_Source\PSoC4/CapSense.c **** #endif /* ((CapSense_TUNING_METHOD == CapSense__TUNING_AUTO) &&\
1534:Generated_Source\PSoC4/CapSense.c ****            (0 != CapSense_IS_OVERSAMPLING_EN)) */
1535:Generated_Source\PSoC4/CapSense.c **** 
1536:Generated_Source\PSoC4/CapSense.c ****     /* `#START CapSense_PostScan_Debug` */
1537:Generated_Source\PSoC4/CapSense.c **** 
1538:Generated_Source\PSoC4/CapSense.c ****     /* `#END` */
1539:Generated_Source\PSoC4/CapSense.c **** 
1540:Generated_Source\PSoC4/CapSense.c **** #ifdef CapSense_POST_SCAN_DEBUG_CALLBACK
1541:Generated_Source\PSoC4/CapSense.c ****     CapSense_PostScan_Debug_Callback();
1542:Generated_Source\PSoC4/CapSense.c **** #endif /* CapSense_POST_SCAN_DEBUG_Callback */
1543:Generated_Source\PSoC4/CapSense.c **** 
1544:Generated_Source\PSoC4/CapSense.c ****     /* Read SlotResult from Raw Counter */
1545:Generated_Source\PSoC4/CapSense.c ****     CapSense_sensorRaw[sensor]  = (uint16)CapSense_CSD_CNT_REG;
1546:Generated_Source\PSoC4/CapSense.c **** 
1547:Generated_Source\PSoC4/CapSense.c **** #if ((CapSense_TUNING_METHOD == CapSense__TUNING_AUTO) &&\
1548:Generated_Source\PSoC4/CapSense.c ****      (0 != CapSense_IS_OVERSAMPLING_EN))
1549:Generated_Source\PSoC4/CapSense.c ****     widget = CapSense_widgetNumber[sensor];
1550:Generated_Source\PSoC4/CapSense.c ****     if(CapSense_widgetResolution[widget] < CapSense_RESOLUTION_16_BITS)
1551:Generated_Source\PSoC4/CapSense.c ****     {
1552:Generated_Source\PSoC4/CapSense.c ****         oversamplingFactor = CapSense_GetBitValue(CapSense_scanSpeedTbl, sensor);
1553:Generated_Source\PSoC4/CapSense.c ****         CapSense_sensorRaw[sensor] >>= oversamplingFactor;
1554:Generated_Source\PSoC4/CapSense.c ****     }
1555:Generated_Source\PSoC4/CapSense.c **** #endif /* ((CapSense_TUNING_METHOD == CapSense__TUNING_AUTO) &&\
1556:Generated_Source\PSoC4/CapSense.c ****            (0 != CapSense_IS_OVERSAMPLING_EN)) */
1557:Generated_Source\PSoC4/CapSense.c **** 
1558:Generated_Source\PSoC4/CapSense.c ****     /* Disable Sensor */
1559:Generated_Source\PSoC4/CapSense.c ****     CapSense_DisableScanSlot(sensor);
1560:Generated_Source\PSoC4/CapSense.c **** 
1561:Generated_Source\PSoC4/CapSense.c ****     CyIntDisable(CapSense_ISR_NUMBER);
1562:Generated_Source\PSoC4/CapSense.c **** 
1563:Generated_Source\PSoC4/CapSense.c **** #if(CapSense_CMOD_PREGARGE_OPTION == CapSense__CAPPRIOBUF)
1564:Generated_Source\PSoC4/CapSense.c ****     newRegValue = CapSense_CMOD_CONNECTION_REG;
1565:Generated_Source\PSoC4/CapSense.c ****     newRegValue &= ~(CapSense_CSD_CMOD_CONNECTION_MASK);
1566:Generated_Source\PSoC4/CapSense.c ****     newRegValue |= CapSense_CSD_CMOD_TO_AMUXBUS_B;
1567:Generated_Source\PSoC4/CapSense.c ****     CapSense_CMOD_CONNECTION_REG = newRegValue;
1568:Generated_Source\PSoC4/CapSense.c **** 
1569:Generated_Source\PSoC4/CapSense.c ****     newRegValue = CapSense_CMOD_PORT_PC_REG;
1570:Generated_Source\PSoC4/CapSense.c ****     newRegValue &= ~(CapSense_CSD_CMOD_PC_MASK);
1571:Generated_Source\PSoC4/CapSense.c ****     newRegValue |= CapSense_CMOD_PC_STRONG_MODE;
1572:Generated_Source\PSoC4/CapSense.c ****     CapSense_CMOD_PORT_PC_REG = newRegValue;
1573:Generated_Source\PSoC4/CapSense.c **** 
1574:Generated_Source\PSoC4/CapSense.c ****     newRegValue = CapSense_CMOD_PORT_DR_REG;
1575:Generated_Source\PSoC4/CapSense.c ****     newRegValue &= ~(CapSense_CMOD_DR_MASK);
1576:Generated_Source\PSoC4/CapSense.c ****     newRegValue |= CapSense_CMOD_DR_CONFIG;
1577:Generated_Source\PSoC4/CapSense.c ****     CapSense_CMOD_PORT_DR_REG = newRegValue;
ARM GAS  C:\Users\Zeynep\AppData\Local\Temp\ccgAGQqu.s 			page 43


1578:Generated_Source\PSoC4/CapSense.c **** #endif /* (CapSense_CMOD_PREGARGE_OPTION == CapSense__CAPPRIOBUF) */
1579:Generated_Source\PSoC4/CapSense.c **** 
1580:Generated_Source\PSoC4/CapSense.c ****     /* Connect Vref Buffer to AMUX bus  */
1581:Generated_Source\PSoC4/CapSense.c ****     newRegValue = CapSense_CSD_CFG_REG;
1582:Generated_Source\PSoC4/CapSense.c ****     newRegValue &= ~(CapSense_PRECHARGE_CONFIG_MASK);
1583:Generated_Source\PSoC4/CapSense.c ****     newRegValue |= CapSense_CMOD_PRECHARGE_CONFIG;
1584:Generated_Source\PSoC4/CapSense.c ****     CapSense_CSD_CFG_REG = newRegValue;
1585:Generated_Source\PSoC4/CapSense.c **** 
1586:Generated_Source\PSoC4/CapSense.c ****     /* Set Idac Value = 0 */
1587:Generated_Source\PSoC4/CapSense.c **** #if (CapSense_IDAC_CNT == 1u)
1588:Generated_Source\PSoC4/CapSense.c ****     CapSense_CSD_IDAC_REG &= ~(CapSense_CSD_IDAC1_DATA_MASK);
1589:Generated_Source\PSoC4/CapSense.c **** #else
1590:Generated_Source\PSoC4/CapSense.c ****     CapSense_CSD_IDAC_REG &= ~(CapSense_CSD_IDAC1_DATA_MASK | CapSense_CSD_IDAC2_DATA_MASK);
1591:Generated_Source\PSoC4/CapSense.c **** #endif /* (CapSense_IDAC_CNT == 1u) */
1592:Generated_Source\PSoC4/CapSense.c **** 
1593:Generated_Source\PSoC4/CapSense.c ****     CyIntEnable(CapSense_ISR_NUMBER);
1594:Generated_Source\PSoC4/CapSense.c **** }
1595:Generated_Source\PSoC4/CapSense.c **** 
1596:Generated_Source\PSoC4/CapSense.c **** 
1597:Generated_Source\PSoC4/CapSense.c **** /*******************************************************************************
1598:Generated_Source\PSoC4/CapSense.c **** * Function Name: CapSense_EnableShieldElectrode
1599:Generated_Source\PSoC4/CapSense.c **** ********************************************************************************
1600:Generated_Source\PSoC4/CapSense.c **** *
1601:Generated_Source\PSoC4/CapSense.c **** * Summary:
1602:Generated_Source\PSoC4/CapSense.c **** *  This API enables or disables the shield electrode on a specified port pin.
1603:Generated_Source\PSoC4/CapSense.c **** *
1604:Generated_Source\PSoC4/CapSense.c **** * Parameters:
1605:Generated_Source\PSoC4/CapSense.c **** *  portNumber: contains the shield electrode port number (0, 1, 2).
1606:Generated_Source\PSoC4/CapSense.c **** *  pinNumber: contains the shield electrode pin number (0, 1, 2, ... , 7).
1607:Generated_Source\PSoC4/CapSense.c **** *
1608:Generated_Source\PSoC4/CapSense.c **** * Return:
1609:Generated_Source\PSoC4/CapSense.c **** *  None
1610:Generated_Source\PSoC4/CapSense.c **** *
1611:Generated_Source\PSoC4/CapSense.c **** * Global Variables:
1612:Generated_Source\PSoC4/CapSense.c **** *  CapSense_prtCfgTbl[] - Contains pointers to the port config registers for each port.
1613:Generated_Source\PSoC4/CapSense.c **** *  CapSense_prtSelTbl[] - Contains pointers to the HSIOM registers for each port.
1614:Generated_Source\PSoC4/CapSense.c **** *
1615:Generated_Source\PSoC4/CapSense.c **** * Side Effects:
1616:Generated_Source\PSoC4/CapSense.c **** *  None
1617:Generated_Source\PSoC4/CapSense.c **** *
1618:Generated_Source\PSoC4/CapSense.c **** *******************************************************************************/
1619:Generated_Source\PSoC4/CapSense.c **** void CapSense_EnableShieldElectrode(uint32 pinNumber, uint32 portNumber)
1620:Generated_Source\PSoC4/CapSense.c **** {
 795              		.loc 1 1620 0
 796              		.cfi_startproc
 797              		@ args = 0, pretend = 0, frame = 0
 798              		@ frame_needed = 0, uses_anonymous_args = 0
 799              	.LVL94:
 800 0000 30B5     		push	{r4, r5, lr}
 801              		.cfi_def_cfa_offset 12
 802              		.cfi_offset 4, -12
 803              		.cfi_offset 5, -8
 804              		.cfi_offset 14, -4
1621:Generated_Source\PSoC4/CapSense.c ****     uint32 newRegValue;
1622:Generated_Source\PSoC4/CapSense.c **** 
1623:Generated_Source\PSoC4/CapSense.c ****     *CapSense_prtCfgTbl[portNumber] &= ~(CapSense_CSD_PIN_MODE_MASK << (pinNumber * CapSense_PC_PIN
 805              		.loc 1 1623 0
ARM GAS  C:\Users\Zeynep\AppData\Local\Temp\ccgAGQqu.s 			page 44


 806 0002 8900     		lsls	r1, r1, #2
 807              	.LVL95:
 808 0004 0A4B     		ldr	r3, .L50
 809 0006 5918     		adds	r1, r3, r1
 810 0008 4D6A     		ldr	r5, [r1, #36]
 811 000a 2B68     		ldr	r3, [r5]
 812 000c 4400     		lsls	r4, r0, #1
 813 000e 2418     		adds	r4, r4, r0
 814 0010 0722     		movs	r2, #7
 815 0012 A240     		lsls	r2, r2, r4
 816 0014 9343     		bics	r3, r2
 817 0016 2B60     		str	r3, [r5]
1624:Generated_Source\PSoC4/CapSense.c ****     newRegValue = *CapSense_prtSelTbl[portNumber];
 818              		.loc 1 1624 0
 819 0018 0969     		ldr	r1, [r1, #16]
 820 001a 0B68     		ldr	r3, [r1]
 821              	.LVL96:
1625:Generated_Source\PSoC4/CapSense.c ****     newRegValue &= ~(CapSense_CSD_HSIOM_MASK << (pinNumber * CapSense_HSIOM_PIN_CFG_SIZE));
 822              		.loc 1 1625 0
 823 001c 8000     		lsls	r0, r0, #2
 824              	.LVL97:
 825 001e 0F22     		movs	r2, #15
 826 0020 8240     		lsls	r2, r2, r0
 827 0022 9343     		bics	r3, r2
 828              	.LVL98:
 829 0024 1A00     		movs	r2, r3
 830              	.LVL99:
1626:Generated_Source\PSoC4/CapSense.c ****     newRegValue |= (CapSense_CSD_SHIELD_PORT_MODE << (pinNumber * CapSense_HSIOM_PIN_CFG_SIZE));
 831              		.loc 1 1626 0
 832 0026 0523     		movs	r3, #5
 833 0028 8340     		lsls	r3, r3, r0
 834 002a 1343     		orrs	r3, r2
 835              	.LVL100:
1627:Generated_Source\PSoC4/CapSense.c ****     *CapSense_prtSelTbl[portNumber] = newRegValue;
 836              		.loc 1 1627 0
 837 002c 0B60     		str	r3, [r1]
1628:Generated_Source\PSoC4/CapSense.c **** }
 838              		.loc 1 1628 0
 839              		@ sp needed
 840 002e 30BD     		pop	{r4, r5, pc}
 841              	.L51:
 842              		.align	2
 843              	.L50:
 844 0030 00000000 		.word	.LANCHOR2
 845              		.cfi_endproc
 846              	.LFE54:
 847              		.size	CapSense_EnableShieldElectrode, .-CapSense_EnableShieldElectrode
 848              		.section	.text.CapSense_SetShieldDelay,"ax",%progbits
 849              		.align	2
 850              		.global	CapSense_SetShieldDelay
 851              		.code	16
 852              		.thumb_func
 853              		.type	CapSense_SetShieldDelay, %function
 854              	CapSense_SetShieldDelay:
 855              	.LFB55:
1629:Generated_Source\PSoC4/CapSense.c **** 
1630:Generated_Source\PSoC4/CapSense.c **** 
ARM GAS  C:\Users\Zeynep\AppData\Local\Temp\ccgAGQqu.s 			page 45


1631:Generated_Source\PSoC4/CapSense.c **** /*******************************************************************************
1632:Generated_Source\PSoC4/CapSense.c **** * Function Name: CapSense_SetShieldDelay
1633:Generated_Source\PSoC4/CapSense.c **** ********************************************************************************
1634:Generated_Source\PSoC4/CapSense.c **** *
1635:Generated_Source\PSoC4/CapSense.c **** * Summary:
1636:Generated_Source\PSoC4/CapSense.c **** *  This API sets a shield delay.
1637:Generated_Source\PSoC4/CapSense.c **** *
1638:Generated_Source\PSoC4/CapSense.c **** * Parameters:
1639:Generated_Source\PSoC4/CapSense.c **** *  delay:  shield delay value:
1640:Generated_Source\PSoC4/CapSense.c **** *                               0 - no delay
1641:Generated_Source\PSoC4/CapSense.c **** *                               1 - 1 cycle delay
1642:Generated_Source\PSoC4/CapSense.c **** *                               2 - 2 cycles delay
1643:Generated_Source\PSoC4/CapSense.c **** *
1644:Generated_Source\PSoC4/CapSense.c **** * Return:
1645:Generated_Source\PSoC4/CapSense.c **** *  None
1646:Generated_Source\PSoC4/CapSense.c **** *
1647:Generated_Source\PSoC4/CapSense.c **** * Global Variables:
1648:Generated_Source\PSoC4/CapSense.c **** *  None
1649:Generated_Source\PSoC4/CapSense.c **** *
1650:Generated_Source\PSoC4/CapSense.c **** * Side Effects:
1651:Generated_Source\PSoC4/CapSense.c **** *  None
1652:Generated_Source\PSoC4/CapSense.c **** *
1653:Generated_Source\PSoC4/CapSense.c **** *******************************************************************************/
1654:Generated_Source\PSoC4/CapSense.c **** void CapSense_SetShieldDelay(uint32 delay)
1655:Generated_Source\PSoC4/CapSense.c **** {
 856              		.loc 1 1655 0
 857              		.cfi_startproc
 858              		@ args = 0, pretend = 0, frame = 0
 859              		@ frame_needed = 0, uses_anonymous_args = 0
 860              		@ link register save eliminated.
 861              	.LVL101:
1656:Generated_Source\PSoC4/CapSense.c ****     uint32 newRegValue;
1657:Generated_Source\PSoC4/CapSense.c **** 
1658:Generated_Source\PSoC4/CapSense.c ****     delay &= 0x03u;
1659:Generated_Source\PSoC4/CapSense.c **** 
1660:Generated_Source\PSoC4/CapSense.c ****     newRegValue = CapSense_CSD_CFG_REG;
 862              		.loc 1 1660 0
 863 0000 044A     		ldr	r2, .L53
 864 0002 1168     		ldr	r1, [r2]
 865              	.LVL102:
1661:Generated_Source\PSoC4/CapSense.c ****     newRegValue &= (uint32)(~(uint32)CapSense_SHIELD_DELAY);
1662:Generated_Source\PSoC4/CapSense.c ****     newRegValue |= (delay << CapSense_CSD_CFG_SHIELD_DELAY_POS);
 866              		.loc 1 1662 0
 867 0004 4002     		lsls	r0, r0, #9
 868              	.LVL103:
 869 0006 C023     		movs	r3, #192
 870 0008 DB00     		lsls	r3, r3, #3
 871 000a 1840     		ands	r0, r3
 872 000c 0843     		orrs	r0, r1
 873              	.LVL104:
1663:Generated_Source\PSoC4/CapSense.c ****     CapSense_CSD_CFG_REG = newRegValue;
 874              		.loc 1 1663 0
 875 000e 1060     		str	r0, [r2]
1664:Generated_Source\PSoC4/CapSense.c **** }
 876              		.loc 1 1664 0
 877              		@ sp needed
 878 0010 7047     		bx	lr
ARM GAS  C:\Users\Zeynep\AppData\Local\Temp\ccgAGQqu.s 			page 46


 879              	.L54:
 880 0012 C046     		.align	2
 881              	.L53:
 882 0014 04000840 		.word	1074266116
 883              		.cfi_endproc
 884              	.LFE55:
 885              		.size	CapSense_SetShieldDelay, .-CapSense_SetShieldDelay
 886              		.section	.text.CapSense_ReadCurrentScanningSensor,"ax",%progbits
 887              		.align	2
 888              		.global	CapSense_ReadCurrentScanningSensor
 889              		.code	16
 890              		.thumb_func
 891              		.type	CapSense_ReadCurrentScanningSensor, %function
 892              	CapSense_ReadCurrentScanningSensor:
 893              	.LFB56:
1665:Generated_Source\PSoC4/CapSense.c **** 
1666:Generated_Source\PSoC4/CapSense.c **** 
1667:Generated_Source\PSoC4/CapSense.c **** /*******************************************************************************
1668:Generated_Source\PSoC4/CapSense.c **** * Function Name: CapSense_ReadCurrentScanningSensor
1669:Generated_Source\PSoC4/CapSense.c **** ********************************************************************************
1670:Generated_Source\PSoC4/CapSense.c **** *
1671:Generated_Source\PSoC4/CapSense.c **** * Summary:
1672:Generated_Source\PSoC4/CapSense.c **** *  This API returns scanning sensor number when sensor scan is in progress.
1673:Generated_Source\PSoC4/CapSense.c **** *  When sensor scan is completed the API returns
1674:Generated_Source\PSoC4/CapSense.c **** *  $INSTANCE_NAME`_NOT_SENSOR (0xFFFFFFFF) (when no sensor is scanned).
1675:Generated_Source\PSoC4/CapSense.c **** *
1676:Generated_Source\PSoC4/CapSense.c **** * Parameters:
1677:Generated_Source\PSoC4/CapSense.c **** *   None.
1678:Generated_Source\PSoC4/CapSense.c **** *
1679:Generated_Source\PSoC4/CapSense.c **** * Return:
1680:Generated_Source\PSoC4/CapSense.c **** *  Returns Sensor number if sensor is being scanned and
1681:Generated_Source\PSoC4/CapSense.c **** *  $INSTANCE_NAME`_NOT_SENSOR (0xFFFFFFFF) if scanning is complete.
1682:Generated_Source\PSoC4/CapSense.c **** *
1683:Generated_Source\PSoC4/CapSense.c **** * Global Variables:
1684:Generated_Source\PSoC4/CapSense.c **** *  CapSense_sensorIndex - the sensor number is being scanned.
1685:Generated_Source\PSoC4/CapSense.c **** *
1686:Generated_Source\PSoC4/CapSense.c **** * Side Effects:
1687:Generated_Source\PSoC4/CapSense.c **** *  None
1688:Generated_Source\PSoC4/CapSense.c **** *
1689:Generated_Source\PSoC4/CapSense.c **** *******************************************************************************/
1690:Generated_Source\PSoC4/CapSense.c **** uint32 CapSense_ReadCurrentScanningSensor(void)
1691:Generated_Source\PSoC4/CapSense.c **** {
 894              		.loc 1 1691 0
 895              		.cfi_startproc
 896              		@ args = 0, pretend = 0, frame = 0
 897              		@ frame_needed = 0, uses_anonymous_args = 0
 898              		@ link register save eliminated.
1692:Generated_Source\PSoC4/CapSense.c ****     return ((uint32)(( 0u != (CapSense_csdStatusVar & CapSense_SW_STS_BUSY)) ?
 899              		.loc 1 1692 0
 900 0000 054B     		ldr	r3, .L58
 901 0002 1B78     		ldrb	r3, [r3]
 902 0004 DB07     		lsls	r3, r3, #31
 903 0006 03D5     		bpl	.L57
 904              		.loc 1 1692 0 is_stmt 0 discriminator 1
 905 0008 034B     		ldr	r3, .L58
 906 000a 987B     		ldrb	r0, [r3, #14]
 907 000c C0B2     		uxtb	r0, r0
ARM GAS  C:\Users\Zeynep\AppData\Local\Temp\ccgAGQqu.s 			page 47


 908 000e 01E0     		b	.L56
 909              	.L57:
 910              		.loc 1 1692 0
 911 0010 0120     		movs	r0, #1
 912 0012 4042     		rsbs	r0, r0, #0
 913              	.L56:
1693:Generated_Source\PSoC4/CapSense.c ****                      CapSense_sensorIndex : CapSense_NOT_SENSOR));
1694:Generated_Source\PSoC4/CapSense.c **** }
 914              		.loc 1 1694 0 is_stmt 1 discriminator 4
 915              		@ sp needed
 916 0014 7047     		bx	lr
 917              	.L59:
 918 0016 C046     		.align	2
 919              	.L58:
 920 0018 00000000 		.word	.LANCHOR0
 921              		.cfi_endproc
 922              	.LFE56:
 923              		.size	CapSense_ReadCurrentScanningSensor, .-CapSense_ReadCurrentScanningSensor
 924              		.section	.text.CapSense_GetBitValue,"ax",%progbits
 925              		.align	2
 926              		.global	CapSense_GetBitValue
 927              		.code	16
 928              		.thumb_func
 929              		.type	CapSense_GetBitValue, %function
 930              	CapSense_GetBitValue:
 931              	.LFB57:
1695:Generated_Source\PSoC4/CapSense.c **** 
1696:Generated_Source\PSoC4/CapSense.c **** 
1697:Generated_Source\PSoC4/CapSense.c **** /*******************************************************************************
1698:Generated_Source\PSoC4/CapSense.c **** * Function Name: CapSense_GetBitValue
1699:Generated_Source\PSoC4/CapSense.c **** ********************************************************************************
1700:Generated_Source\PSoC4/CapSense.c **** *
1701:Generated_Source\PSoC4/CapSense.c **** * Summary:
1702:Generated_Source\PSoC4/CapSense.c **** *  The API returns a bit status of the bit in the table array which contains the masks.
1703:Generated_Source\PSoC4/CapSense.c **** *
1704:Generated_Source\PSoC4/CapSense.c **** * Parameters:
1705:Generated_Source\PSoC4/CapSense.c **** *  table[] - array with bit masks.
1706:Generated_Source\PSoC4/CapSense.c **** *  position - position of bit in the table[] array.
1707:Generated_Source\PSoC4/CapSense.c **** *
1708:Generated_Source\PSoC4/CapSense.c **** * Return:
1709:Generated_Source\PSoC4/CapSense.c **** *  0 - bit is not set; 1 - bit is set.
1710:Generated_Source\PSoC4/CapSense.c **** *
1711:Generated_Source\PSoC4/CapSense.c **** * Global Variables:
1712:Generated_Source\PSoC4/CapSense.c **** *  None
1713:Generated_Source\PSoC4/CapSense.c **** *
1714:Generated_Source\PSoC4/CapSense.c **** * Side Effects:
1715:Generated_Source\PSoC4/CapSense.c **** *  None
1716:Generated_Source\PSoC4/CapSense.c **** *
1717:Generated_Source\PSoC4/CapSense.c **** *******************************************************************************/
1718:Generated_Source\PSoC4/CapSense.c **** uint32 CapSense_GetBitValue(const uint8 table[], uint32 position)
1719:Generated_Source\PSoC4/CapSense.c **** {
 932              		.loc 1 1719 0
 933              		.cfi_startproc
 934              		@ args = 0, pretend = 0, frame = 0
 935              		@ frame_needed = 0, uses_anonymous_args = 0
 936              		@ link register save eliminated.
 937              	.LVL105:
ARM GAS  C:\Users\Zeynep\AppData\Local\Temp\ccgAGQqu.s 			page 48


1720:Generated_Source\PSoC4/CapSense.c ****     uint32 offset;
1721:Generated_Source\PSoC4/CapSense.c ****     uint8 enMask;
1722:Generated_Source\PSoC4/CapSense.c **** 
1723:Generated_Source\PSoC4/CapSense.c ****     /* position is divided by 8 to calculate the element of the
1724:Generated_Source\PSoC4/CapSense.c ****        table[] array that contains the enable bit
1725:Generated_Source\PSoC4/CapSense.c ****        for an appropriate sensor.
1726:Generated_Source\PSoC4/CapSense.c ****     */
1727:Generated_Source\PSoC4/CapSense.c ****     offset = (position >> 3u);
 938              		.loc 1 1727 0
 939 0000 CA08     		lsrs	r2, r1, #3
 940              	.LVL106:
1728:Generated_Source\PSoC4/CapSense.c **** 
1729:Generated_Source\PSoC4/CapSense.c ****     /* The enMask calculation for the appropriate sensor. Operation (position & 0x07u)
1730:Generated_Source\PSoC4/CapSense.c ****        intends to calculate the enable bit offset for the 8-bit element of the
1731:Generated_Source\PSoC4/CapSense.c ****        table[] array.
1732:Generated_Source\PSoC4/CapSense.c ****     */
1733:Generated_Source\PSoC4/CapSense.c ****     enMask = 0x01u << (position & 0x07u);
 941              		.loc 1 1733 0
 942 0002 0723     		movs	r3, #7
 943 0004 1940     		ands	r1, r3
 944              	.LVL107:
 945 0006 063B     		subs	r3, r3, #6
 946 0008 8B40     		lsls	r3, r3, r1
 947              	.LVL108:
1734:Generated_Source\PSoC4/CapSense.c **** 
1735:Generated_Source\PSoC4/CapSense.c ****     return ((0u !=(table[offset] & enMask)) ? 1Lu : 0Lu);
 948              		.loc 1 1735 0
 949 000a 825C     		ldrb	r2, [r0, r2]
 950              	.LVL109:
 951 000c 1342     		tst	r3, r2
 952 000e 01D0     		beq	.L62
 953 0010 0120     		movs	r0, #1
 954              	.LVL110:
 955 0012 00E0     		b	.L61
 956              	.LVL111:
 957              	.L62:
 958 0014 0020     		movs	r0, #0
 959              	.LVL112:
 960              	.L61:
1736:Generated_Source\PSoC4/CapSense.c **** }
 961              		.loc 1 1736 0 discriminator 4
 962              		@ sp needed
 963 0016 7047     		bx	lr
 964              		.cfi_endproc
 965              	.LFE57:
 966              		.size	CapSense_GetBitValue, .-CapSense_GetBitValue
 967              		.section	.text.CapSense_FindNextSensor,"ax",%progbits
 968              		.align	2
 969              		.global	CapSense_FindNextSensor
 970              		.code	16
 971              		.thumb_func
 972              		.type	CapSense_FindNextSensor, %function
 973              	CapSense_FindNextSensor:
 974              	.LFB37:
 501:Generated_Source\PSoC4/CapSense.c ****     uint32 enableFlag;
 975              		.loc 1 501 0
 976              		.cfi_startproc
ARM GAS  C:\Users\Zeynep\AppData\Local\Temp\ccgAGQqu.s 			page 49


 977              		@ args = 0, pretend = 0, frame = 0
 978              		@ frame_needed = 0, uses_anonymous_args = 0
 979              	.LVL113:
 980 0000 10B5     		push	{r4, lr}
 981              		.cfi_def_cfa_offset 8
 982              		.cfi_offset 4, -8
 983              		.cfi_offset 14, -4
 984 0002 0400     		movs	r4, r0
 985              	.LVL114:
 986              	.L65:
 508:Generated_Source\PSoC4/CapSense.c ****         if(snsIndex == CapSense_TOTAL_SENSOR_COUNT)
 987              		.loc 1 508 0
 988 0004 0134     		adds	r4, r4, #1
 989              	.LVL115:
 990 0006 E4B2     		uxtb	r4, r4
 991              	.LVL116:
 509:Generated_Source\PSoC4/CapSense.c ****         {
 992              		.loc 1 509 0
 993 0008 052C     		cmp	r4, #5
 994 000a 06D0     		beq	.L64
 513:Generated_Source\PSoC4/CapSense.c ****     }
 995              		.loc 1 513 0
 996 000c 2100     		movs	r1, r4
 997 000e 0448     		ldr	r0, .L66
 998 0010 0430     		adds	r0, r0, #4
 999 0012 FFF7FEFF 		bl	CapSense_GetBitValue
 1000              	.LVL117:
 515:Generated_Source\PSoC4/CapSense.c **** 
 1001              		.loc 1 515 0
 1002 0016 0028     		cmp	r0, #0
 1003 0018 F4D0     		beq	.L65
 1004              	.LVL118:
 1005              	.L64:
 518:Generated_Source\PSoC4/CapSense.c **** 
 1006              		.loc 1 518 0
 1007 001a 2000     		movs	r0, r4
 1008              		@ sp needed
 1009              	.LVL119:
 1010 001c 10BD     		pop	{r4, pc}
 1011              	.L67:
 1012 001e C046     		.align	2
 1013              	.L66:
 1014 0020 00000000 		.word	.LANCHOR1
 1015              		.cfi_endproc
 1016              	.LFE37:
 1017              		.size	CapSense_FindNextSensor, .-CapSense_FindNextSensor
 1018              		.section	.text.CapSense_PreScan,"ax",%progbits
 1019              		.align	2
 1020              		.global	CapSense_PreScan
 1021              		.code	16
 1022              		.thumb_func
 1023              		.type	CapSense_PreScan, %function
 1024              	CapSense_PreScan:
 1025              	.LFB52:
1330:Generated_Source\PSoC4/CapSense.c ****     uint8 widget;
 1026              		.loc 1 1330 0
 1027              		.cfi_startproc
ARM GAS  C:\Users\Zeynep\AppData\Local\Temp\ccgAGQqu.s 			page 50


 1028              		@ args = 0, pretend = 0, frame = 0
 1029              		@ frame_needed = 0, uses_anonymous_args = 0
 1030              	.LVL120:
 1031 0000 F8B5     		push	{r3, r4, r5, r6, r7, lr}
 1032              		.cfi_def_cfa_offset 24
 1033              		.cfi_offset 3, -24
 1034              		.cfi_offset 4, -20
 1035              		.cfi_offset 5, -16
 1036              		.cfi_offset 6, -12
 1037              		.cfi_offset 7, -8
 1038              		.cfi_offset 14, -4
 1039 0002 0400     		movs	r4, r0
1348:Generated_Source\PSoC4/CapSense.c **** 
 1040              		.loc 1 1348 0
 1041 0004 234B     		ldr	r3, .L70
 1042 0006 1B18     		adds	r3, r3, r0
 1043 0008 4C22     		movs	r2, #76
 1044 000a 9B5C     		ldrb	r3, [r3, r2]
 1045              	.LVL121:
1351:Generated_Source\PSoC4/CapSense.c **** 
 1046              		.loc 1 1351 0
 1047 000c 9B00     		lsls	r3, r3, #2
 1048              	.LVL122:
 1049 000e 224A     		ldr	r2, .L70+4
 1050              	.LVL123:
 1051 0010 9E58     		ldr	r6, [r3, r2]
 1052              	.LVL124:
1355:Generated_Source\PSoC4/CapSense.c **** 
 1053              		.loc 1 1355 0
 1054 0012 0100     		movs	r1, r0
 1055 0014 2148     		ldr	r0, .L70+8
 1056              	.LVL125:
 1057 0016 FFF7FEFF 		bl	CapSense_GetBitValue
 1058              	.LVL126:
1357:Generated_Source\PSoC4/CapSense.c ****         {
 1059              		.loc 1 1357 0
 1060 001a 214B     		ldr	r3, .L70+12
 1061 001c 9E42     		cmp	r6, r3
 1062 001e 03D8     		bhi	.L69
1359:Generated_Source\PSoC4/CapSense.c ****             counterResolution |= (uint32)(CapSense_RESOLUTION_8_BITS);
 1063              		.loc 1 1359 0
 1064 0020 8640     		lsls	r6, r6, r0
 1065              	.LVL127:
1360:Generated_Source\PSoC4/CapSense.c ****         }
 1066              		.loc 1 1360 0
 1067 0022 FF23     		movs	r3, #255
 1068 0024 1B04     		lsls	r3, r3, #16
 1069 0026 1E43     		orrs	r6, r3
 1070              	.LVL128:
 1071              	.L69:
1371:Generated_Source\PSoC4/CapSense.c ****         CapSense_SenseClk_SetDividerValue((uint16)CapSense_senseClkDividerVal[sensor]);
 1072              		.loc 1 1371 0
 1073 0028 1E4B     		ldr	r3, .L70+16
 1074 002a 185D     		ldrb	r0, [r3, r4]
 1075              	.LVL129:
 1076 002c 0138     		subs	r0, r0, #1
 1077 002e 80B2     		uxth	r0, r0
ARM GAS  C:\Users\Zeynep\AppData\Local\Temp\ccgAGQqu.s 			page 51


 1078 0030 0021     		movs	r1, #0
 1079 0032 FFF7FEFF 		bl	CapSense_SampleClk_SetFractionalDividerRegister
 1080              	.LVL130:
1372:Generated_Source\PSoC4/CapSense.c ****     #else
 1081              		.loc 1 1372 0
 1082 0036 1C4B     		ldr	r3, .L70+20
 1083 0038 185D     		ldrb	r0, [r3, r4]
 1084 003a 0138     		subs	r0, r0, #1
 1085 003c 80B2     		uxth	r0, r0
 1086 003e 0021     		movs	r1, #0
 1087 0040 FFF7FEFF 		bl	CapSense_SenseClk_SetFractionalDividerRegister
 1088              	.LVL131:
1441:Generated_Source\PSoC4/CapSense.c ****     newRegValue = CapSense_CSD_IDAC_REG;
 1089              		.loc 1 1441 0
 1090 0044 0F20     		movs	r0, #15
 1091 0046 FFF7FEFF 		bl	CyIntDisable
 1092              	.LVL132:
1442:Generated_Source\PSoC4/CapSense.c **** 
 1093              		.loc 1 1442 0
 1094 004a 1848     		ldr	r0, .L70+24
 1095 004c 0168     		ldr	r1, [r0]
 1096              	.LVL133:
1448:Generated_Source\PSoC4/CapSense.c ****     newRegValue |= (CapSense_modulationIDAC[sensor] |
 1097              		.loc 1 1448 0
 1098 004e 184B     		ldr	r3, .L70+28
 1099 0050 1940     		ands	r1, r3
 1100              	.LVL134:
1449:Generated_Source\PSoC4/CapSense.c ****                             (uint32)((uint32)CapSense_compensationIDAC[sensor] <<
 1101              		.loc 1 1449 0
 1102 0052 184B     		ldr	r3, .L70+32
 1103 0054 1B5D     		ldrb	r3, [r3, r4]
1450:Generated_Source\PSoC4/CapSense.c ****                             CapSense_CSD_IDAC2_DATA_OFFSET));
 1104              		.loc 1 1450 0
 1105 0056 184A     		ldr	r2, .L70+36
 1106 0058 125D     		ldrb	r2, [r2, r4]
 1107 005a 1204     		lsls	r2, r2, #16
1449:Generated_Source\PSoC4/CapSense.c ****                             (uint32)((uint32)CapSense_compensationIDAC[sensor] <<
 1108              		.loc 1 1449 0
 1109 005c 1343     		orrs	r3, r2
 1110 005e 0B43     		orrs	r3, r1
 1111              	.LVL135:
1454:Generated_Source\PSoC4/CapSense.c **** 
 1112              		.loc 1 1454 0
 1113 0060 0360     		str	r3, [r0]
1469:Generated_Source\PSoC4/CapSense.c ****     newRegValue &= ~(CapSense_PRECHARGE_CONFIG_MASK);
 1114              		.loc 1 1469 0
 1115 0062 164F     		ldr	r7, .L70+40
 1116 0064 3D68     		ldr	r5, [r7]
 1117              	.LVL136:
1470:Generated_Source\PSoC4/CapSense.c ****     newRegValue |= CapSense_CTANK_PRECHARGE_CONFIG;
 1118              		.loc 1 1470 0
 1119 0066 164B     		ldr	r3, .L70+44
 1120 0068 1D40     		ands	r5, r3
 1121              	.LVL137:
1471:Generated_Source\PSoC4/CapSense.c **** 
 1122              		.loc 1 1471 0
 1123 006a 164B     		ldr	r3, .L70+48
ARM GAS  C:\Users\Zeynep\AppData\Local\Temp\ccgAGQqu.s 			page 52


 1124 006c 1D43     		orrs	r5, r3
 1125              	.LVL138:
1473:Generated_Source\PSoC4/CapSense.c **** 
 1126              		.loc 1 1473 0
 1127 006e 0F20     		movs	r0, #15
 1128 0070 FFF7FEFF 		bl	CyIntEnable
 1129              	.LVL139:
1476:Generated_Source\PSoC4/CapSense.c **** 
 1130              		.loc 1 1476 0
 1131 0074 2000     		movs	r0, r4
 1132 0076 FFF7FEFF 		bl	CapSense_EnableSensor
 1133              	.LVL140:
1478:Generated_Source\PSoC4/CapSense.c ****     CapSense_CSD_CFG_REG = newRegValue;
 1134              		.loc 1 1478 0
 1135 007a FFF7FEFF 		bl	CyEnterCriticalSection
 1136              	.LVL141:
 1137 007e 0400     		movs	r4, r0
 1138              	.LVL142:
1479:Generated_Source\PSoC4/CapSense.c **** 
 1139              		.loc 1 1479 0
 1140 0080 3D60     		str	r5, [r7]
1489:Generated_Source\PSoC4/CapSense.c **** 
 1141              		.loc 1 1489 0
 1142 0082 0020     		movs	r0, #0
 1143 0084 FFF7FEFF 		bl	CyDelayCycles
 1144              	.LVL143:
1499:Generated_Source\PSoC4/CapSense.c ****     CyExitCriticalSection(interruptState);
 1145              		.loc 1 1499 0
 1146 0088 0F4B     		ldr	r3, .L70+52
 1147 008a 1E60     		str	r6, [r3]
1500:Generated_Source\PSoC4/CapSense.c **** }
 1148              		.loc 1 1500 0
 1149 008c 2000     		movs	r0, r4
 1150 008e FFF7FEFF 		bl	CyExitCriticalSection
 1151              	.LVL144:
1501:Generated_Source\PSoC4/CapSense.c **** 
 1152              		.loc 1 1501 0
 1153              		@ sp needed
 1154              	.LVL145:
 1155              	.LVL146:
 1156              	.LVL147:
 1157 0092 F8BD     		pop	{r3, r4, r5, r6, r7, pc}
 1158              	.L71:
 1159              		.align	2
 1160              	.L70:
 1161 0094 00000000 		.word	.LANCHOR2
 1162 0098 00000000 		.word	.LANCHOR1
 1163 009c 00000000 		.word	CapSense_scanSpeedTbl
 1164 00a0 FFFFFEFF 		.word	-65537
 1165 00a4 00000000 		.word	CapSense_sampleClkDividerVal
 1166 00a8 00000000 		.word	CapSense_senseClkDividerVal
 1167 00ac 08000840 		.word	1074266120
 1168 00b0 00FF80FF 		.word	-8323328
 1169 00b4 00000000 		.word	CapSense_modulationIDAC
 1170 00b8 00000000 		.word	CapSense_compensationIDAC
 1171 00bc 04000840 		.word	1074266116
 1172 00c0 FF1FDFFF 		.word	-2154497
ARM GAS  C:\Users\Zeynep\AppData\Local\Temp\ccgAGQqu.s 			page 53


 1173 00c4 20002000 		.word	2097184
 1174 00c8 0C000840 		.word	1074266124
 1175              		.cfi_endproc
 1176              	.LFE52:
 1177              		.size	CapSense_PreScan, .-CapSense_PreScan
 1178              		.section	.text.CapSense_ScanSensor,"ax",%progbits
 1179              		.align	2
 1180              		.global	CapSense_ScanSensor
 1181              		.code	16
 1182              		.thumb_func
 1183              		.type	CapSense_ScanSensor, %function
 1184              	CapSense_ScanSensor:
 1185              	.LFB38:
 549:Generated_Source\PSoC4/CapSense.c ****     /* Clears status/control variable and set sensorIndex */
 1186              		.loc 1 549 0
 1187              		.cfi_startproc
 1188              		@ args = 0, pretend = 0, frame = 0
 1189              		@ frame_needed = 0, uses_anonymous_args = 0
 1190              	.LVL148:
 1191 0000 10B5     		push	{r4, lr}
 1192              		.cfi_def_cfa_offset 8
 1193              		.cfi_offset 4, -8
 1194              		.cfi_offset 14, -4
 551:Generated_Source\PSoC4/CapSense.c ****     CapSense_sensorIndex = (uint8)sensor;
 1195              		.loc 1 551 0
 1196 0002 054B     		ldr	r3, .L73
 1197 0004 0022     		movs	r2, #0
 1198 0006 1A70     		strb	r2, [r3]
 552:Generated_Source\PSoC4/CapSense.c **** 
 1199              		.loc 1 552 0
 1200 0008 C2B2     		uxtb	r2, r0
 1201 000a 9A73     		strb	r2, [r3, #14]
 555:Generated_Source\PSoC4/CapSense.c ****     CapSense_PreScan(sensor);
 1202              		.loc 1 555 0
 1203 000c 8122     		movs	r2, #129
 1204 000e 1A70     		strb	r2, [r3]
 556:Generated_Source\PSoC4/CapSense.c **** }
 1205              		.loc 1 556 0
 1206 0010 FFF7FEFF 		bl	CapSense_PreScan
 1207              	.LVL149:
 557:Generated_Source\PSoC4/CapSense.c **** 
 1208              		.loc 1 557 0
 1209              		@ sp needed
 1210 0014 10BD     		pop	{r4, pc}
 1211              	.L74:
 1212 0016 C046     		.align	2
 1213              	.L73:
 1214 0018 00000000 		.word	.LANCHOR0
 1215              		.cfi_endproc
 1216              	.LFE38:
 1217              		.size	CapSense_ScanSensor, .-CapSense_ScanSensor
 1218              		.section	.text.CapSense_ScanEnabledWidgets,"ax",%progbits
 1219              		.align	2
 1220              		.global	CapSense_ScanEnabledWidgets
 1221              		.code	16
 1222              		.thumb_func
 1223              		.type	CapSense_ScanEnabledWidgets, %function
ARM GAS  C:\Users\Zeynep\AppData\Local\Temp\ccgAGQqu.s 			page 54


 1224              	CapSense_ScanEnabledWidgets:
 1225              	.LFB40:
 673:Generated_Source\PSoC4/CapSense.c ****     /* Clears status/control variable and set sensorIndex */
 1226              		.loc 1 673 0
 1227              		.cfi_startproc
 1228              		@ args = 0, pretend = 0, frame = 0
 1229              		@ frame_needed = 0, uses_anonymous_args = 0
 1230 0000 10B5     		push	{r4, lr}
 1231              		.cfi_def_cfa_offset 8
 1232              		.cfi_offset 4, -8
 1233              		.cfi_offset 14, -4
 675:Generated_Source\PSoC4/CapSense.c ****     CapSense_sensorIndex = 0xFFu;
 1234              		.loc 1 675 0
 1235 0002 0C4C     		ldr	r4, .L77
 1236 0004 0023     		movs	r3, #0
 1237 0006 2370     		strb	r3, [r4]
 676:Generated_Source\PSoC4/CapSense.c **** 
 1238              		.loc 1 676 0
 1239 0008 FF33     		adds	r3, r3, #255
 1240 000a A373     		strb	r3, [r4, #14]
 679:Generated_Source\PSoC4/CapSense.c **** 
 1241              		.loc 1 679 0
 1242 000c A07B     		ldrb	r0, [r4, #14]
 1243 000e C0B2     		uxtb	r0, r0
 1244 0010 FFF7FEFF 		bl	CapSense_FindNextSensor
 1245              	.LVL150:
 1246 0014 A073     		strb	r0, [r4, #14]
 682:Generated_Source\PSoC4/CapSense.c ****     {
 1247              		.loc 1 682 0
 1248 0016 A37B     		ldrb	r3, [r4, #14]
 1249 0018 DBB2     		uxtb	r3, r3
 1250 001a 042B     		cmp	r3, #4
 1251 001c 08D8     		bhi	.L75
 684:Generated_Source\PSoC4/CapSense.c ****         CapSense_PreScan((uint32)CapSense_sensorIndex);
 1252              		.loc 1 684 0
 1253 001e 2178     		ldrb	r1, [r4]
 1254 0020 0123     		movs	r3, #1
 1255 0022 0B43     		orrs	r3, r1
 1256 0024 DBB2     		uxtb	r3, r3
 1257 0026 2370     		strb	r3, [r4]
 685:Generated_Source\PSoC4/CapSense.c ****     }
 1258              		.loc 1 685 0
 1259 0028 A07B     		ldrb	r0, [r4, #14]
 1260 002a C0B2     		uxtb	r0, r0
 1261 002c FFF7FEFF 		bl	CapSense_PreScan
 1262              	.LVL151:
 1263              	.L75:
 687:Generated_Source\PSoC4/CapSense.c **** 
 1264              		.loc 1 687 0
 1265              		@ sp needed
 1266 0030 10BD     		pop	{r4, pc}
 1267              	.L78:
 1268 0032 C046     		.align	2
 1269              	.L77:
 1270 0034 00000000 		.word	.LANCHOR0
 1271              		.cfi_endproc
 1272              	.LFE40:
ARM GAS  C:\Users\Zeynep\AppData\Local\Temp\ccgAGQqu.s 			page 55


 1273              		.size	CapSense_ScanEnabledWidgets, .-CapSense_ScanEnabledWidgets
 1274              		.section	.text.CapSense_PostScan,"ax",%progbits
 1275              		.align	2
 1276              		.global	CapSense_PostScan
 1277              		.code	16
 1278              		.thumb_func
 1279              		.type	CapSense_PostScan, %function
 1280              	CapSense_PostScan:
 1281              	.LFB53:
1527:Generated_Source\PSoC4/CapSense.c ****     uint32 newRegValue;
 1282              		.loc 1 1527 0
 1283              		.cfi_startproc
 1284              		@ args = 0, pretend = 0, frame = 0
 1285              		@ frame_needed = 0, uses_anonymous_args = 0
 1286              	.LVL152:
 1287 0000 70B5     		push	{r4, r5, r6, lr}
 1288              		.cfi_def_cfa_offset 16
 1289              		.cfi_offset 4, -16
 1290              		.cfi_offset 5, -12
 1291              		.cfi_offset 6, -8
 1292              		.cfi_offset 14, -4
 1293 0002 0500     		movs	r5, r0
1545:Generated_Source\PSoC4/CapSense.c **** 
 1294              		.loc 1 1545 0
 1295 0004 184B     		ldr	r3, .L81
 1296 0006 1C68     		ldr	r4, [r3]
 1297 0008 A4B2     		uxth	r4, r4
 1298 000a 4300     		lsls	r3, r0, #1
 1299 000c 174A     		ldr	r2, .L81+4
 1300 000e D318     		adds	r3, r2, r3
 1301 0010 9C80     		strh	r4, [r3, #4]
1549:Generated_Source\PSoC4/CapSense.c ****     if(CapSense_widgetResolution[widget] < CapSense_RESOLUTION_16_BITS)
 1302              		.loc 1 1549 0
 1303 0012 174B     		ldr	r3, .L81+8
 1304 0014 1B18     		adds	r3, r3, r0
 1305 0016 4C22     		movs	r2, #76
 1306 0018 9B5C     		ldrb	r3, [r3, r2]
 1307              	.LVL153:
1550:Generated_Source\PSoC4/CapSense.c ****     {
 1308              		.loc 1 1550 0
 1309 001a 9B00     		lsls	r3, r3, #2
 1310              	.LVL154:
 1311 001c 154A     		ldr	r2, .L81+12
 1312              	.LVL155:
 1313 001e 9A58     		ldr	r2, [r3, r2]
 1314 0020 154B     		ldr	r3, .L81+16
 1315 0022 9A42     		cmp	r2, r3
 1316 0024 08D8     		bhi	.L80
1552:Generated_Source\PSoC4/CapSense.c ****         CapSense_sensorRaw[sensor] >>= oversamplingFactor;
 1317              		.loc 1 1552 0
 1318 0026 0100     		movs	r1, r0
 1319 0028 1448     		ldr	r0, .L81+20
 1320              	.LVL156:
 1321 002a FFF7FEFF 		bl	CapSense_GetBitValue
 1322              	.LVL157:
1553:Generated_Source\PSoC4/CapSense.c ****     }
 1323              		.loc 1 1553 0
ARM GAS  C:\Users\Zeynep\AppData\Local\Temp\ccgAGQqu.s 			page 56


 1324 002e 6B00     		lsls	r3, r5, #1
 1325 0030 0E4A     		ldr	r2, .L81+4
 1326 0032 D318     		adds	r3, r2, r3
 1327 0034 0441     		asrs	r4, r4, r0
 1328 0036 9C80     		strh	r4, [r3, #4]
 1329              	.LVL158:
 1330              	.L80:
1559:Generated_Source\PSoC4/CapSense.c **** 
 1331              		.loc 1 1559 0
 1332 0038 2800     		movs	r0, r5
 1333 003a FFF7FEFF 		bl	CapSense_DisableSensor
 1334              	.LVL159:
1561:Generated_Source\PSoC4/CapSense.c **** 
 1335              		.loc 1 1561 0
 1336 003e 0F20     		movs	r0, #15
 1337 0040 FFF7FEFF 		bl	CyIntDisable
 1338              	.LVL160:
1581:Generated_Source\PSoC4/CapSense.c ****     newRegValue &= ~(CapSense_PRECHARGE_CONFIG_MASK);
 1339              		.loc 1 1581 0
 1340 0044 0E4A     		ldr	r2, .L81+24
 1341 0046 1168     		ldr	r1, [r2]
 1342              	.LVL161:
1582:Generated_Source\PSoC4/CapSense.c ****     newRegValue |= CapSense_CMOD_PRECHARGE_CONFIG;
 1343              		.loc 1 1582 0
 1344 0048 0E4B     		ldr	r3, .L81+28
 1345 004a 0B40     		ands	r3, r1
 1346              	.LVL162:
1583:Generated_Source\PSoC4/CapSense.c ****     CapSense_CSD_CFG_REG = newRegValue;
 1347              		.loc 1 1583 0
 1348 004c A021     		movs	r1, #160
 1349 004e 0902     		lsls	r1, r1, #8
 1350 0050 0B43     		orrs	r3, r1
 1351              	.LVL163:
1584:Generated_Source\PSoC4/CapSense.c **** 
 1352              		.loc 1 1584 0
 1353 0052 1360     		str	r3, [r2]
1590:Generated_Source\PSoC4/CapSense.c **** #endif /* (CapSense_IDAC_CNT == 1u) */
 1354              		.loc 1 1590 0
 1355 0054 0C4A     		ldr	r2, .L81+32
 1356 0056 1168     		ldr	r1, [r2]
 1357 0058 0C4B     		ldr	r3, .L81+36
 1358              	.LVL164:
 1359 005a 0B40     		ands	r3, r1
 1360 005c 1360     		str	r3, [r2]
 1361              	.LVL165:
1593:Generated_Source\PSoC4/CapSense.c **** }
 1362              		.loc 1 1593 0
 1363 005e 0F20     		movs	r0, #15
 1364 0060 FFF7FEFF 		bl	CyIntEnable
 1365              	.LVL166:
1594:Generated_Source\PSoC4/CapSense.c **** 
 1366              		.loc 1 1594 0
 1367              		@ sp needed
 1368              	.LVL167:
 1369 0064 70BD     		pop	{r4, r5, r6, pc}
 1370              	.L82:
 1371 0066 C046     		.align	2
ARM GAS  C:\Users\Zeynep\AppData\Local\Temp\ccgAGQqu.s 			page 57


 1372              	.L81:
 1373 0068 0C000840 		.word	1074266124
 1374 006c 00000000 		.word	.LANCHOR0
 1375 0070 00000000 		.word	.LANCHOR2
 1376 0074 00000000 		.word	.LANCHOR1
 1377 0078 FFFFFEFF 		.word	-65537
 1378 007c 00000000 		.word	CapSense_scanSpeedTbl
 1379 0080 04000840 		.word	1074266116
 1380 0084 FF1FDFFF 		.word	-2154497
 1381 0088 08000840 		.word	1074266120
 1382 008c 00FF80FF 		.word	-8323328
 1383              		.cfi_endproc
 1384              	.LFE53:
 1385              		.size	CapSense_PostScan, .-CapSense_PostScan
 1386              		.section	.text.CapSense_SetBitValue,"ax",%progbits
 1387              		.align	2
 1388              		.global	CapSense_SetBitValue
 1389              		.code	16
 1390              		.thumb_func
 1391              		.type	CapSense_SetBitValue, %function
 1392              	CapSense_SetBitValue:
 1393              	.LFB58:
1737:Generated_Source\PSoC4/CapSense.c **** 
1738:Generated_Source\PSoC4/CapSense.c **** 
1739:Generated_Source\PSoC4/CapSense.c **** /*******************************************************************************
1740:Generated_Source\PSoC4/CapSense.c **** * Function Name: CapSense_SetBitValue
1741:Generated_Source\PSoC4/CapSense.c **** ********************************************************************************
1742:Generated_Source\PSoC4/CapSense.c **** *
1743:Generated_Source\PSoC4/CapSense.c **** * Summary:
1744:Generated_Source\PSoC4/CapSense.c **** *  The API sets a bit status of the bit in the table array which contains masks.
1745:Generated_Source\PSoC4/CapSense.c **** *
1746:Generated_Source\PSoC4/CapSense.c **** * Parameters:
1747:Generated_Source\PSoC4/CapSense.c **** *  table[] - array with bit masks.
1748:Generated_Source\PSoC4/CapSense.c **** *  position - position of bit in the table[] array.
1749:Generated_Source\PSoC4/CapSense.c **** *  value: 0 - bit is not set; 1 - bit is set.
1750:Generated_Source\PSoC4/CapSense.c **** *
1751:Generated_Source\PSoC4/CapSense.c **** * Return:
1752:Generated_Source\PSoC4/CapSense.c **** *  None
1753:Generated_Source\PSoC4/CapSense.c **** *
1754:Generated_Source\PSoC4/CapSense.c **** * Global Variables:
1755:Generated_Source\PSoC4/CapSense.c **** *  None
1756:Generated_Source\PSoC4/CapSense.c **** *
1757:Generated_Source\PSoC4/CapSense.c **** * Side Effects:
1758:Generated_Source\PSoC4/CapSense.c **** *  None
1759:Generated_Source\PSoC4/CapSense.c **** *
1760:Generated_Source\PSoC4/CapSense.c **** *******************************************************************************/
1761:Generated_Source\PSoC4/CapSense.c **** void CapSense_SetBitValue(uint8 table[], uint32 position, uint32 value)
1762:Generated_Source\PSoC4/CapSense.c **** {
 1394              		.loc 1 1762 0
 1395              		.cfi_startproc
 1396              		@ args = 0, pretend = 0, frame = 0
 1397              		@ frame_needed = 0, uses_anonymous_args = 0
 1398              	.LVL168:
 1399 0000 10B5     		push	{r4, lr}
 1400              		.cfi_def_cfa_offset 8
 1401              		.cfi_offset 4, -8
 1402              		.cfi_offset 14, -4
ARM GAS  C:\Users\Zeynep\AppData\Local\Temp\ccgAGQqu.s 			page 58


1763:Generated_Source\PSoC4/CapSense.c ****     uint32 offset;
1764:Generated_Source\PSoC4/CapSense.c ****     uint8 enMask;
1765:Generated_Source\PSoC4/CapSense.c **** 
1766:Generated_Source\PSoC4/CapSense.c ****     /* position is divided by 8 to calculate the element of the
1767:Generated_Source\PSoC4/CapSense.c ****        table[] array that contains the enable bit
1768:Generated_Source\PSoC4/CapSense.c ****        for an appropriate sensor.
1769:Generated_Source\PSoC4/CapSense.c ****     */
1770:Generated_Source\PSoC4/CapSense.c ****     offset = (position >> 3u);
 1403              		.loc 1 1770 0
 1404 0002 CC08     		lsrs	r4, r1, #3
 1405              	.LVL169:
1771:Generated_Source\PSoC4/CapSense.c **** 
1772:Generated_Source\PSoC4/CapSense.c ****     /* The enMask calculation for the appropriate sensor. Operation (position & 0x07u)
1773:Generated_Source\PSoC4/CapSense.c ****        intends to calculate the enable bit offset for the 8-bit element of the
1774:Generated_Source\PSoC4/CapSense.c ****        table[] array.
1775:Generated_Source\PSoC4/CapSense.c ****     */
1776:Generated_Source\PSoC4/CapSense.c ****     enMask = 0x01u << (position & 0x07u);
 1406              		.loc 1 1776 0
 1407 0004 0723     		movs	r3, #7
 1408 0006 1940     		ands	r1, r3
 1409              	.LVL170:
 1410 0008 063B     		subs	r3, r3, #6
 1411 000a 8B40     		lsls	r3, r3, r1
 1412 000c DBB2     		uxtb	r3, r3
 1413              	.LVL171:
1777:Generated_Source\PSoC4/CapSense.c **** 
1778:Generated_Source\PSoC4/CapSense.c ****     if(0u != value)
 1414              		.loc 1 1778 0
 1415 000e 002A     		cmp	r2, #0
 1416 0010 04D0     		beq	.L84
1779:Generated_Source\PSoC4/CapSense.c ****     {
1780:Generated_Source\PSoC4/CapSense.c ****         table[offset] |= enMask;
 1417              		.loc 1 1780 0
 1418 0012 0419     		adds	r4, r0, r4
 1419              	.LVL172:
 1420 0014 2278     		ldrb	r2, [r4]
 1421              	.LVL173:
 1422 0016 1343     		orrs	r3, r2
 1423              	.LVL174:
 1424 0018 2370     		strb	r3, [r4]
 1425 001a 03E0     		b	.L83
 1426              	.LVL175:
 1427              	.L84:
1781:Generated_Source\PSoC4/CapSense.c ****     }
1782:Generated_Source\PSoC4/CapSense.c ****     else
1783:Generated_Source\PSoC4/CapSense.c ****     {
1784:Generated_Source\PSoC4/CapSense.c ****         table[offset] &= (uint8)~(enMask);
 1428              		.loc 1 1784 0
 1429 001c 0419     		adds	r4, r0, r4
 1430              	.LVL176:
 1431 001e 2278     		ldrb	r2, [r4]
 1432              	.LVL177:
 1433 0020 9A43     		bics	r2, r3
 1434 0022 2270     		strb	r2, [r4]
 1435              	.LVL178:
 1436              	.L83:
1785:Generated_Source\PSoC4/CapSense.c ****     }
ARM GAS  C:\Users\Zeynep\AppData\Local\Temp\ccgAGQqu.s 			page 59


1786:Generated_Source\PSoC4/CapSense.c **** }
 1437              		.loc 1 1786 0
 1438              		@ sp needed
 1439 0024 10BD     		pop	{r4, pc}
 1440              		.cfi_endproc
 1441              	.LFE58:
 1442              		.size	CapSense_SetBitValue, .-CapSense_SetBitValue
 1443 0026 C046     		.section	.text.CapSense_ScanWidget,"ax",%progbits
 1444              		.align	2
 1445              		.global	CapSense_ScanWidget
 1446              		.code	16
 1447              		.thumb_func
 1448              		.type	CapSense_ScanWidget, %function
 1449              	CapSense_ScanWidget:
 1450              	.LFB39:
 588:Generated_Source\PSoC4/CapSense.c ****     uint32 sensorsPerWidget;
 1451              		.loc 1 588 0
 1452              		.cfi_startproc
 1453              		@ args = 0, pretend = 0, frame = 0
 1454              		@ frame_needed = 0, uses_anonymous_args = 0
 1455              	.LVL179:
 1456 0000 70B5     		push	{r4, r5, r6, lr}
 1457              		.cfi_def_cfa_offset 16
 1458              		.cfi_offset 4, -16
 1459              		.cfi_offset 5, -12
 1460              		.cfi_offset 6, -8
 1461              		.cfi_offset 14, -4
 594:Generated_Source\PSoC4/CapSense.c **** 
 1462              		.loc 1 594 0
 1463 0002 1D4B     		ldr	r3, .L96
 1464 0004 1B5C     		ldrb	r3, [r3, r0]
 1465 0006 1D4A     		ldr	r2, .L96+4
 1466 0008 9373     		strb	r3, [r2, #14]
 597:Generated_Source\PSoC4/CapSense.c **** 
 1467              		.loc 1 597 0
 1468 000a 1D4A     		ldr	r2, .L96+8
 1469 000c 155C     		ldrb	r5, [r2, r0]
 1470              	.LVL180:
 600:Generated_Source\PSoC4/CapSense.c ****     {
 1471              		.loc 1 600 0
 1472 000e 002D     		cmp	r5, #0
 1473 0010 00D1     		bne	.L87
 602:Generated_Source\PSoC4/CapSense.c ****     }
 1474              		.loc 1 602 0
 1475 0012 0135     		adds	r5, r5, #1
 1476              	.LVL181:
 1477              	.L87:
 606:Generated_Source\PSoC4/CapSense.c **** 
 1478              		.loc 1 606 0
 1479 0014 5D19     		adds	r5, r3, r5
 1480              	.LVL182:
 1481 0016 013D     		subs	r5, r5, #1
 1482              	.LVL183:
 609:Generated_Source\PSoC4/CapSense.c ****     {
 1483              		.loc 1 609 0
 1484 0018 0023     		movs	r3, #0
 1485 001a 05E0     		b	.L88
ARM GAS  C:\Users\Zeynep\AppData\Local\Temp\ccgAGQqu.s 			page 60


 1486              	.LVL184:
 1487              	.L89:
 612:Generated_Source\PSoC4/CapSense.c ****     }
 1488              		.loc 1 612 0 discriminator 3
 1489 001c 194A     		ldr	r2, .L96+12
 1490 001e D218     		adds	r2, r2, r3
 1491 0020 1179     		ldrb	r1, [r2, #4]
 1492 0022 194A     		ldr	r2, .L96+16
 1493 0024 D154     		strb	r1, [r2, r3]
 609:Generated_Source\PSoC4/CapSense.c ****     {
 1494              		.loc 1 609 0 discriminator 3
 1495 0026 0133     		adds	r3, r3, #1
 1496              	.LVL185:
 1497              	.L88:
 609:Generated_Source\PSoC4/CapSense.c ****     {
 1498              		.loc 1 609 0 is_stmt 0 discriminator 1
 1499 0028 002B     		cmp	r3, #0
 1500 002a F7D0     		beq	.L89
 1501 002c 0024     		movs	r4, #0
 1502 002e 14E0     		b	.L90
 1503              	.LVL186:
 1504              	.L93:
 619:Generated_Source\PSoC4/CapSense.c ****         {
 1505              		.loc 1 619 0 is_stmt 1
 1506 0030 124B     		ldr	r3, .L96+4
 1507 0032 9B7B     		ldrb	r3, [r3, #14]
 1508 0034 DBB2     		uxtb	r3, r3
 1509 0036 9C42     		cmp	r4, r3
 1510 0038 08D3     		bcc	.L91
 619:Generated_Source\PSoC4/CapSense.c ****         {
 1511              		.loc 1 619 0 is_stmt 0 discriminator 1
 1512 003a AC42     		cmp	r4, r5
 1513 003c 06D8     		bhi	.L91
 622:Generated_Source\PSoC4/CapSense.c ****         }
 1514              		.loc 1 622 0 is_stmt 1
 1515 003e 0122     		movs	r2, #1
 1516 0040 2100     		movs	r1, r4
 1517 0042 1048     		ldr	r0, .L96+12
 1518 0044 0430     		adds	r0, r0, #4
 1519 0046 FFF7FEFF 		bl	CapSense_SetBitValue
 1520              	.LVL187:
 1521 004a 05E0     		b	.L92
 1522              	.L91:
 627:Generated_Source\PSoC4/CapSense.c ****         }
 1523              		.loc 1 627 0
 1524 004c 0022     		movs	r2, #0
 1525 004e 2100     		movs	r1, r4
 1526 0050 0C48     		ldr	r0, .L96+12
 1527 0052 0430     		adds	r0, r0, #4
 1528 0054 FFF7FEFF 		bl	CapSense_SetBitValue
 1529              	.LVL188:
 1530              	.L92:
 616:Generated_Source\PSoC4/CapSense.c ****     {
 1531              		.loc 1 616 0 discriminator 2
 1532 0058 0134     		adds	r4, r4, #1
 1533              	.LVL189:
 1534              	.L90:
ARM GAS  C:\Users\Zeynep\AppData\Local\Temp\ccgAGQqu.s 			page 61


 616:Generated_Source\PSoC4/CapSense.c ****     {
 1535              		.loc 1 616 0 is_stmt 0 discriminator 1
 1536 005a 042C     		cmp	r4, #4
 1537 005c E8D9     		bls	.L93
 632:Generated_Source\PSoC4/CapSense.c ****     {
 1538              		.loc 1 632 0 is_stmt 1
 1539 005e 074B     		ldr	r3, .L96+4
 1540 0060 9B7B     		ldrb	r3, [r3, #14]
 1541 0062 DBB2     		uxtb	r3, r3
 1542 0064 042B     		cmp	r3, #4
 1543 0066 06D8     		bhi	.L86
 635:Generated_Source\PSoC4/CapSense.c ****         /* Scan first sensor of widget*/
 1544              		.loc 1 635 0
 1545 0068 044B     		ldr	r3, .L96+4
 1546 006a 4122     		movs	r2, #65
 1547 006c 1A70     		strb	r2, [r3]
 637:Generated_Source\PSoC4/CapSense.c ****     }
 1548              		.loc 1 637 0
 1549 006e 987B     		ldrb	r0, [r3, #14]
 1550 0070 C0B2     		uxtb	r0, r0
 1551 0072 FFF7FEFF 		bl	CapSense_PreScan
 1552              	.LVL190:
 1553              	.L86:
 639:Generated_Source\PSoC4/CapSense.c **** #endif /* (0u != CapSense_CSHL_API_GENERATE) */
 1554              		.loc 1 639 0
 1555              		@ sp needed
 1556              	.LVL191:
 1557              	.LVL192:
 1558 0076 70BD     		pop	{r4, r5, r6, pc}
 1559              	.L97:
 1560              		.align	2
 1561              	.L96:
 1562 0078 00000000 		.word	CapSense_rawDataIndex
 1563 007c 00000000 		.word	.LANCHOR0
 1564 0080 00000000 		.word	CapSense_numberOfSensors
 1565 0084 00000000 		.word	.LANCHOR1
 1566 0088 00000000 		.word	CapSense_sensorEnableMaskBackup
 1567              		.cfi_endproc
 1568              	.LFE39:
 1569              		.size	CapSense_ScanWidget, .-CapSense_ScanWidget
 1570              		.section	.text.CapSense_GetSenseClkDivider,"ax",%progbits
 1571              		.align	2
 1572              		.global	CapSense_GetSenseClkDivider
 1573              		.code	16
 1574              		.thumb_func
 1575              		.type	CapSense_GetSenseClkDivider, %function
 1576              	CapSense_GetSenseClkDivider:
 1577              	.LFB59:
1787:Generated_Source\PSoC4/CapSense.c **** 
1788:Generated_Source\PSoC4/CapSense.c **** 
1789:Generated_Source\PSoC4/CapSense.c **** 
1790:Generated_Source\PSoC4/CapSense.c **** /*******************************************************************************
1791:Generated_Source\PSoC4/CapSense.c **** * Function Name: CapSense_GetSenseClkDivider
1792:Generated_Source\PSoC4/CapSense.c **** ********************************************************************************
1793:Generated_Source\PSoC4/CapSense.c **** *
1794:Generated_Source\PSoC4/CapSense.c **** * Summary:
1795:Generated_Source\PSoC4/CapSense.c **** *  This API returns a value of the sense clock divider for the  sensor.
ARM GAS  C:\Users\Zeynep\AppData\Local\Temp\ccgAGQqu.s 			page 62


1796:Generated_Source\PSoC4/CapSense.c **** *
1797:Generated_Source\PSoC4/CapSense.c **** * Parameters:
1798:Generated_Source\PSoC4/CapSense.c **** *  sensor: sensor index. The index value can be
1799:Generated_Source\PSoC4/CapSense.c **** *  from 0 to (CapSense_TOTAL_SENSOR_COUNT-1).
1800:Generated_Source\PSoC4/CapSense.c **** *
1801:Generated_Source\PSoC4/CapSense.c **** * Return:
1802:Generated_Source\PSoC4/CapSense.c **** *  This API returns the sense clock divider of the sensor.
1803:Generated_Source\PSoC4/CapSense.c **** *
1804:Generated_Source\PSoC4/CapSense.c **** * Global Variables:
1805:Generated_Source\PSoC4/CapSense.c **** *  CapSense_senseClkDividerVal[] - stores the sense clock divider values.
1806:Generated_Source\PSoC4/CapSense.c **** *
1807:Generated_Source\PSoC4/CapSense.c **** * Side Effects:
1808:Generated_Source\PSoC4/CapSense.c **** *  None
1809:Generated_Source\PSoC4/CapSense.c **** *
1810:Generated_Source\PSoC4/CapSense.c **** *******************************************************************************/
1811:Generated_Source\PSoC4/CapSense.c **** uint32 CapSense_GetSenseClkDivider(uint32 sensor)
1812:Generated_Source\PSoC4/CapSense.c **** {
 1578              		.loc 1 1812 0
 1579              		.cfi_startproc
 1580              		@ args = 0, pretend = 0, frame = 0
 1581              		@ frame_needed = 0, uses_anonymous_args = 0
 1582              		@ link register save eliminated.
 1583              	.LVL193:
1813:Generated_Source\PSoC4/CapSense.c ****     #if(0u != CapSense_MULTIPLE_FREQUENCY_SET)
1814:Generated_Source\PSoC4/CapSense.c ****         return((uint32)CapSense_senseClkDividerVal[sensor]);
 1584              		.loc 1 1814 0
 1585 0000 014B     		ldr	r3, .L99
 1586 0002 185C     		ldrb	r0, [r3, r0]
 1587              	.LVL194:
1815:Generated_Source\PSoC4/CapSense.c ****     #else
1816:Generated_Source\PSoC4/CapSense.c ****         return((uint32)CapSense_senseClkDividerVal);
1817:Generated_Source\PSoC4/CapSense.c ****     #endif /* (0u != CapSense_MULTIPLE_FREQUENCY_SET) */
1818:Generated_Source\PSoC4/CapSense.c **** }
 1588              		.loc 1 1818 0
 1589              		@ sp needed
 1590 0004 7047     		bx	lr
 1591              	.L100:
 1592 0006 C046     		.align	2
 1593              	.L99:
 1594 0008 00000000 		.word	CapSense_senseClkDividerVal
 1595              		.cfi_endproc
 1596              	.LFE59:
 1597              		.size	CapSense_GetSenseClkDivider, .-CapSense_GetSenseClkDivider
 1598              		.section	.text.CapSense_SetSenseClkDivider,"ax",%progbits
 1599              		.align	2
 1600              		.global	CapSense_SetSenseClkDivider
 1601              		.code	16
 1602              		.thumb_func
 1603              		.type	CapSense_SetSenseClkDivider, %function
 1604              	CapSense_SetSenseClkDivider:
 1605              	.LFB60:
1819:Generated_Source\PSoC4/CapSense.c **** 
1820:Generated_Source\PSoC4/CapSense.c **** #if (CapSense_TUNING_METHOD != CapSense__TUNING_NONE)
1821:Generated_Source\PSoC4/CapSense.c ****     /*******************************************************************************
1822:Generated_Source\PSoC4/CapSense.c ****     * Function Name: CapSense_SetSenseClkDivider
1823:Generated_Source\PSoC4/CapSense.c ****     ********************************************************************************
1824:Generated_Source\PSoC4/CapSense.c ****     *
ARM GAS  C:\Users\Zeynep\AppData\Local\Temp\ccgAGQqu.s 			page 63


1825:Generated_Source\PSoC4/CapSense.c ****     * Summary:
1826:Generated_Source\PSoC4/CapSense.c ****     *  This API sets a value of the sense clock divider for the  sensor.
1827:Generated_Source\PSoC4/CapSense.c ****     *
1828:Generated_Source\PSoC4/CapSense.c ****     * Parameters:
1829:Generated_Source\PSoC4/CapSense.c ****     *  sensor:  Sensor index.
1830:Generated_Source\PSoC4/CapSense.c ****     *  senseClk: represents the sense clock value.
1831:Generated_Source\PSoC4/CapSense.c ****     *
1832:Generated_Source\PSoC4/CapSense.c ****     * Return:
1833:Generated_Source\PSoC4/CapSense.c ****     *  None.
1834:Generated_Source\PSoC4/CapSense.c ****     *
1835:Generated_Source\PSoC4/CapSense.c ****     * Global Variables:
1836:Generated_Source\PSoC4/CapSense.c ****     *  CapSense_senseClkDividerVal[] - stores the sense clock divider values.
1837:Generated_Source\PSoC4/CapSense.c ****     *
1838:Generated_Source\PSoC4/CapSense.c ****     * Side Effects:
1839:Generated_Source\PSoC4/CapSense.c ****     *  None
1840:Generated_Source\PSoC4/CapSense.c ****     *
1841:Generated_Source\PSoC4/CapSense.c ****     *******************************************************************************/
1842:Generated_Source\PSoC4/CapSense.c ****     void CapSense_SetSenseClkDivider(uint32 sensor, uint32 senseClk)
1843:Generated_Source\PSoC4/CapSense.c ****     {
 1606              		.loc 1 1843 0
 1607              		.cfi_startproc
 1608              		@ args = 0, pretend = 0, frame = 0
 1609              		@ frame_needed = 0, uses_anonymous_args = 0
 1610              		@ link register save eliminated.
 1611              	.LVL195:
1844:Generated_Source\PSoC4/CapSense.c ****         #if(0u != CapSense_MULTIPLE_FREQUENCY_SET)
1845:Generated_Source\PSoC4/CapSense.c ****             CapSense_senseClkDividerVal[sensor] = (uint8)senseClk;
 1612              		.loc 1 1845 0
 1613 0000 014B     		ldr	r3, .L102
 1614 0002 1954     		strb	r1, [r3, r0]
1846:Generated_Source\PSoC4/CapSense.c ****         #else
1847:Generated_Source\PSoC4/CapSense.c ****             CapSense_senseClkDividerVal = (uint8)senseClk;
1848:Generated_Source\PSoC4/CapSense.c ****         #endif /* (0u != CapSense_MULTIPLE_FREQUENCY_SET) */
1849:Generated_Source\PSoC4/CapSense.c ****     }
 1615              		.loc 1 1849 0
 1616              		@ sp needed
 1617 0004 7047     		bx	lr
 1618              	.L103:
 1619 0006 C046     		.align	2
 1620              	.L102:
 1621 0008 00000000 		.word	CapSense_senseClkDividerVal
 1622              		.cfi_endproc
 1623              	.LFE60:
 1624              		.size	CapSense_SetSenseClkDivider, .-CapSense_SetSenseClkDivider
 1625              		.section	.text.CapSense_GetModulatorClkDivider,"ax",%progbits
 1626              		.align	2
 1627              		.global	CapSense_GetModulatorClkDivider
 1628              		.code	16
 1629              		.thumb_func
 1630              		.type	CapSense_GetModulatorClkDivider, %function
 1631              	CapSense_GetModulatorClkDivider:
 1632              	.LFB61:
1850:Generated_Source\PSoC4/CapSense.c **** #endif /* (CapSense_TUNING_METHOD != CapSense__TUNING_NONE) */
1851:Generated_Source\PSoC4/CapSense.c **** 
1852:Generated_Source\PSoC4/CapSense.c **** 
1853:Generated_Source\PSoC4/CapSense.c **** /*******************************************************************************
1854:Generated_Source\PSoC4/CapSense.c **** * Function Name: CapSense_GetModulatorClkDivider
ARM GAS  C:\Users\Zeynep\AppData\Local\Temp\ccgAGQqu.s 			page 64


1855:Generated_Source\PSoC4/CapSense.c **** ********************************************************************************
1856:Generated_Source\PSoC4/CapSense.c **** *
1857:Generated_Source\PSoC4/CapSense.c **** * Summary:
1858:Generated_Source\PSoC4/CapSense.c **** *  This API returns a value of the modulator sample clock divider for the  sensor.
1859:Generated_Source\PSoC4/CapSense.c **** *
1860:Generated_Source\PSoC4/CapSense.c **** * Parameters:
1861:Generated_Source\PSoC4/CapSense.c **** *  sensor: sensor index. The value of index can be
1862:Generated_Source\PSoC4/CapSense.c **** *  from 0 to (CapSense_TOTAL_SENSOR_COUNT-1).
1863:Generated_Source\PSoC4/CapSense.c **** *
1864:Generated_Source\PSoC4/CapSense.c **** * Return:
1865:Generated_Source\PSoC4/CapSense.c **** *  This API returns the modulator sample clock divider for the  sensor.
1866:Generated_Source\PSoC4/CapSense.c **** *
1867:Generated_Source\PSoC4/CapSense.c **** * Global Variables:
1868:Generated_Source\PSoC4/CapSense.c **** *  CapSense_sampleClkDividerVal[] - stores the modulator sample divider values.
1869:Generated_Source\PSoC4/CapSense.c **** *
1870:Generated_Source\PSoC4/CapSense.c **** * Side Effects:
1871:Generated_Source\PSoC4/CapSense.c **** *  None
1872:Generated_Source\PSoC4/CapSense.c **** *
1873:Generated_Source\PSoC4/CapSense.c **** *******************************************************************************/
1874:Generated_Source\PSoC4/CapSense.c **** uint32 CapSense_GetModulatorClkDivider(uint32 sensor)
1875:Generated_Source\PSoC4/CapSense.c **** {
 1633              		.loc 1 1875 0
 1634              		.cfi_startproc
 1635              		@ args = 0, pretend = 0, frame = 0
 1636              		@ frame_needed = 0, uses_anonymous_args = 0
 1637              		@ link register save eliminated.
 1638              	.LVL196:
1876:Generated_Source\PSoC4/CapSense.c ****     #if(0u != CapSense_MULTIPLE_FREQUENCY_SET)
1877:Generated_Source\PSoC4/CapSense.c ****         return((uint32)CapSense_sampleClkDividerVal[sensor]);
 1639              		.loc 1 1877 0
 1640 0000 014B     		ldr	r3, .L105
 1641 0002 185C     		ldrb	r0, [r3, r0]
 1642              	.LVL197:
1878:Generated_Source\PSoC4/CapSense.c ****     #else
1879:Generated_Source\PSoC4/CapSense.c ****         return((uint32)CapSense_sampleClkDividerVal);
1880:Generated_Source\PSoC4/CapSense.c ****     #endif /* (0u != CapSense_MULTIPLE_FREQUENCY_SET) */
1881:Generated_Source\PSoC4/CapSense.c **** }
 1643              		.loc 1 1881 0
 1644              		@ sp needed
 1645 0004 7047     		bx	lr
 1646              	.L106:
 1647 0006 C046     		.align	2
 1648              	.L105:
 1649 0008 00000000 		.word	CapSense_sampleClkDividerVal
 1650              		.cfi_endproc
 1651              	.LFE61:
 1652              		.size	CapSense_GetModulatorClkDivider, .-CapSense_GetModulatorClkDivider
 1653              		.section	.text.CapSense_SetModulatorClkDivider,"ax",%progbits
 1654              		.align	2
 1655              		.global	CapSense_SetModulatorClkDivider
 1656              		.code	16
 1657              		.thumb_func
 1658              		.type	CapSense_SetModulatorClkDivider, %function
 1659              	CapSense_SetModulatorClkDivider:
 1660              	.LFB62:
1882:Generated_Source\PSoC4/CapSense.c **** 
1883:Generated_Source\PSoC4/CapSense.c **** #if (CapSense_TUNING_METHOD != CapSense__TUNING_NONE)
ARM GAS  C:\Users\Zeynep\AppData\Local\Temp\ccgAGQqu.s 			page 65


1884:Generated_Source\PSoC4/CapSense.c ****     /*******************************************************************************
1885:Generated_Source\PSoC4/CapSense.c ****     * Function Name: CapSense_SetModulatorClkDivider
1886:Generated_Source\PSoC4/CapSense.c ****     ********************************************************************************
1887:Generated_Source\PSoC4/CapSense.c ****     *
1888:Generated_Source\PSoC4/CapSense.c ****     * Summary:
1889:Generated_Source\PSoC4/CapSense.c ****     *  This API sets a value of the modulator sample clock divider for the  sensor.
1890:Generated_Source\PSoC4/CapSense.c ****     *
1891:Generated_Source\PSoC4/CapSense.c ****     * Parameters:
1892:Generated_Source\PSoC4/CapSense.c ****     *  sensor:  Sensor index.
1893:Generated_Source\PSoC4/CapSense.c ****     *  modulatorClk: represents the modulator sample clock value.
1894:Generated_Source\PSoC4/CapSense.c ****     *
1895:Generated_Source\PSoC4/CapSense.c ****     * Return:
1896:Generated_Source\PSoC4/CapSense.c ****     *  None.
1897:Generated_Source\PSoC4/CapSense.c ****     *
1898:Generated_Source\PSoC4/CapSense.c ****     * Global Variables:
1899:Generated_Source\PSoC4/CapSense.c ****     *  CapSense_sampleClkDividerVal[] - stores the modulator sample divider values.
1900:Generated_Source\PSoC4/CapSense.c ****     *
1901:Generated_Source\PSoC4/CapSense.c ****     * Side Effects:
1902:Generated_Source\PSoC4/CapSense.c ****     *  None
1903:Generated_Source\PSoC4/CapSense.c ****     *
1904:Generated_Source\PSoC4/CapSense.c ****     *******************************************************************************/
1905:Generated_Source\PSoC4/CapSense.c ****     void CapSense_SetModulatorClkDivider(uint32 sensor, uint32 modulatorClk)
1906:Generated_Source\PSoC4/CapSense.c ****     {
 1661              		.loc 1 1906 0
 1662              		.cfi_startproc
 1663              		@ args = 0, pretend = 0, frame = 0
 1664              		@ frame_needed = 0, uses_anonymous_args = 0
 1665              		@ link register save eliminated.
 1666              	.LVL198:
1907:Generated_Source\PSoC4/CapSense.c ****         #if(0u != CapSense_MULTIPLE_FREQUENCY_SET)
1908:Generated_Source\PSoC4/CapSense.c ****             CapSense_sampleClkDividerVal[sensor] = (uint8)modulatorClk;
 1667              		.loc 1 1908 0
 1668 0000 014B     		ldr	r3, .L108
 1669 0002 1954     		strb	r1, [r3, r0]
1909:Generated_Source\PSoC4/CapSense.c ****         #else
1910:Generated_Source\PSoC4/CapSense.c ****             CapSense_sampleClkDividerVal = (uint8)modulatorClk;
1911:Generated_Source\PSoC4/CapSense.c ****         #endif /* (0u != CapSense_MULTIPLE_FREQUENCY_SET) */
1912:Generated_Source\PSoC4/CapSense.c ****     }
 1670              		.loc 1 1912 0
 1671              		@ sp needed
 1672 0004 7047     		bx	lr
 1673              	.L109:
 1674 0006 C046     		.align	2
 1675              	.L108:
 1676 0008 00000000 		.word	CapSense_sampleClkDividerVal
 1677              		.cfi_endproc
 1678              	.LFE62:
 1679              		.size	CapSense_SetModulatorClkDivider, .-CapSense_SetModulatorClkDivider
 1680              		.section	.text.CapSense_GetModulationIDAC,"ax",%progbits
 1681              		.align	2
 1682              		.global	CapSense_GetModulationIDAC
 1683              		.code	16
 1684              		.thumb_func
 1685              		.type	CapSense_GetModulationIDAC, %function
 1686              	CapSense_GetModulationIDAC:
 1687              	.LFB63:
1913:Generated_Source\PSoC4/CapSense.c **** #endif /* (CapSense_TUNING_METHOD != CapSense__TUNING_NONE) */
ARM GAS  C:\Users\Zeynep\AppData\Local\Temp\ccgAGQqu.s 			page 66


1914:Generated_Source\PSoC4/CapSense.c **** 
1915:Generated_Source\PSoC4/CapSense.c **** /*******************************************************************************
1916:Generated_Source\PSoC4/CapSense.c **** * Function Name: CapSense_GetModulationIDAC
1917:Generated_Source\PSoC4/CapSense.c **** ********************************************************************************
1918:Generated_Source\PSoC4/CapSense.c **** *
1919:Generated_Source\PSoC4/CapSense.c **** * Summary:
1920:Generated_Source\PSoC4/CapSense.c **** *  This API returns a value of the modulation IDAC for the  sensor.
1921:Generated_Source\PSoC4/CapSense.c **** *
1922:Generated_Source\PSoC4/CapSense.c **** * Parameters:
1923:Generated_Source\PSoC4/CapSense.c **** *  sensor: sensor index. The index value can be
1924:Generated_Source\PSoC4/CapSense.c **** *  from 0 to (CapSense_TOTAL_SENSOR_COUNT-1).
1925:Generated_Source\PSoC4/CapSense.c **** *
1926:Generated_Source\PSoC4/CapSense.c **** * Return:
1927:Generated_Source\PSoC4/CapSense.c **** *  This API returns the modulation IDAC of the sensor.
1928:Generated_Source\PSoC4/CapSense.c **** *
1929:Generated_Source\PSoC4/CapSense.c **** * Global Variables:
1930:Generated_Source\PSoC4/CapSense.c **** *  CapSense_modulationIDAC[] - stores modulation IDAC values.
1931:Generated_Source\PSoC4/CapSense.c **** *
1932:Generated_Source\PSoC4/CapSense.c **** * Side Effects:
1933:Generated_Source\PSoC4/CapSense.c **** *  None
1934:Generated_Source\PSoC4/CapSense.c **** *
1935:Generated_Source\PSoC4/CapSense.c **** *******************************************************************************/
1936:Generated_Source\PSoC4/CapSense.c **** uint32 CapSense_GetModulationIDAC(uint32 sensor)
1937:Generated_Source\PSoC4/CapSense.c **** {
 1688              		.loc 1 1937 0
 1689              		.cfi_startproc
 1690              		@ args = 0, pretend = 0, frame = 0
 1691              		@ frame_needed = 0, uses_anonymous_args = 0
 1692              		@ link register save eliminated.
 1693              	.LVL199:
1938:Generated_Source\PSoC4/CapSense.c ****         return((uint32)CapSense_modulationIDAC[sensor]);
 1694              		.loc 1 1938 0
 1695 0000 014B     		ldr	r3, .L111
 1696 0002 185C     		ldrb	r0, [r3, r0]
 1697              	.LVL200:
1939:Generated_Source\PSoC4/CapSense.c **** }
 1698              		.loc 1 1939 0
 1699              		@ sp needed
 1700 0004 7047     		bx	lr
 1701              	.L112:
 1702 0006 C046     		.align	2
 1703              	.L111:
 1704 0008 00000000 		.word	CapSense_modulationIDAC
 1705              		.cfi_endproc
 1706              	.LFE63:
 1707              		.size	CapSense_GetModulationIDAC, .-CapSense_GetModulationIDAC
 1708              		.section	.text.CapSense_SetModulationIDAC,"ax",%progbits
 1709              		.align	2
 1710              		.global	CapSense_SetModulationIDAC
 1711              		.code	16
 1712              		.thumb_func
 1713              		.type	CapSense_SetModulationIDAC, %function
 1714              	CapSense_SetModulationIDAC:
 1715              	.LFB64:
1940:Generated_Source\PSoC4/CapSense.c **** 
1941:Generated_Source\PSoC4/CapSense.c **** #if (CapSense_TUNING_METHOD != CapSense__TUNING_NONE)
1942:Generated_Source\PSoC4/CapSense.c ****     /*******************************************************************************
ARM GAS  C:\Users\Zeynep\AppData\Local\Temp\ccgAGQqu.s 			page 67


1943:Generated_Source\PSoC4/CapSense.c ****     * Function Name: CapSense_SetModulationIDAC
1944:Generated_Source\PSoC4/CapSense.c ****     ********************************************************************************
1945:Generated_Source\PSoC4/CapSense.c ****     *
1946:Generated_Source\PSoC4/CapSense.c ****     * Summary:
1947:Generated_Source\PSoC4/CapSense.c ****     *  This API sets a value of the modulation IDAC for the  sensor.
1948:Generated_Source\PSoC4/CapSense.c ****     *
1949:Generated_Source\PSoC4/CapSense.c ****     * Parameters:
1950:Generated_Source\PSoC4/CapSense.c ****     *  sensor:  Sensor index.
1951:Generated_Source\PSoC4/CapSense.c ****     *  compIdacValue: represents the modulation IDAC data register value.
1952:Generated_Source\PSoC4/CapSense.c ****     *
1953:Generated_Source\PSoC4/CapSense.c ****     * Return:
1954:Generated_Source\PSoC4/CapSense.c ****     *  None.
1955:Generated_Source\PSoC4/CapSense.c ****     *
1956:Generated_Source\PSoC4/CapSense.c ****     * Global Variables:
1957:Generated_Source\PSoC4/CapSense.c ****     *  CapSense_modulationIDAC[] - array with modulation IDAC values
1958:Generated_Source\PSoC4/CapSense.c ****     *
1959:Generated_Source\PSoC4/CapSense.c ****     * Side Effects:
1960:Generated_Source\PSoC4/CapSense.c ****     *  None
1961:Generated_Source\PSoC4/CapSense.c ****     *
1962:Generated_Source\PSoC4/CapSense.c ****     *******************************************************************************/
1963:Generated_Source\PSoC4/CapSense.c ****     void CapSense_SetModulationIDAC(uint32 sensor, uint32 modIdacValue)
1964:Generated_Source\PSoC4/CapSense.c ****     {
 1716              		.loc 1 1964 0
 1717              		.cfi_startproc
 1718              		@ args = 0, pretend = 0, frame = 0
 1719              		@ frame_needed = 0, uses_anonymous_args = 0
 1720              		@ link register save eliminated.
 1721              	.LVL201:
1965:Generated_Source\PSoC4/CapSense.c ****         CapSense_modulationIDAC[sensor] = (uint8)modIdacValue;
 1722              		.loc 1 1965 0
 1723 0000 014B     		ldr	r3, .L114
 1724 0002 1954     		strb	r1, [r3, r0]
1966:Generated_Source\PSoC4/CapSense.c ****     }
 1725              		.loc 1 1966 0
 1726              		@ sp needed
 1727 0004 7047     		bx	lr
 1728              	.L115:
 1729 0006 C046     		.align	2
 1730              	.L114:
 1731 0008 00000000 		.word	CapSense_modulationIDAC
 1732              		.cfi_endproc
 1733              	.LFE64:
 1734              		.size	CapSense_SetModulationIDAC, .-CapSense_SetModulationIDAC
 1735              		.section	.text.CapSense_GetCompensationIDAC,"ax",%progbits
 1736              		.align	2
 1737              		.global	CapSense_GetCompensationIDAC
 1738              		.code	16
 1739              		.thumb_func
 1740              		.type	CapSense_GetCompensationIDAC, %function
 1741              	CapSense_GetCompensationIDAC:
 1742              	.LFB65:
1967:Generated_Source\PSoC4/CapSense.c **** #endif /* (CapSense_TUNING_METHOD != CapSense__TUNING_NONE) */
1968:Generated_Source\PSoC4/CapSense.c **** 
1969:Generated_Source\PSoC4/CapSense.c **** 
1970:Generated_Source\PSoC4/CapSense.c **** #if(CapSense_IDAC_CNT > 1u)
1971:Generated_Source\PSoC4/CapSense.c ****     /*******************************************************************************
1972:Generated_Source\PSoC4/CapSense.c ****     * Function Name: CapSense_GetCompensationIDAC
ARM GAS  C:\Users\Zeynep\AppData\Local\Temp\ccgAGQqu.s 			page 68


1973:Generated_Source\PSoC4/CapSense.c ****     ********************************************************************************
1974:Generated_Source\PSoC4/CapSense.c ****     *
1975:Generated_Source\PSoC4/CapSense.c ****     * Summary:
1976:Generated_Source\PSoC4/CapSense.c ****     *  This API returns a value of the compensation IDAC for the  sensor.
1977:Generated_Source\PSoC4/CapSense.c ****     *
1978:Generated_Source\PSoC4/CapSense.c ****     * Parameters:
1979:Generated_Source\PSoC4/CapSense.c ****     *  sensor: sensor index. The index value can be
1980:Generated_Source\PSoC4/CapSense.c ****     *  from 0 to (CapSense_TOTAL_SENSOR_COUNT-1).
1981:Generated_Source\PSoC4/CapSense.c ****     *
1982:Generated_Source\PSoC4/CapSense.c ****     * Return:
1983:Generated_Source\PSoC4/CapSense.c ****     *  This API returns the compensation IDAC of the sensor.
1984:Generated_Source\PSoC4/CapSense.c ****     *
1985:Generated_Source\PSoC4/CapSense.c ****     * Global Variables:
1986:Generated_Source\PSoC4/CapSense.c ****     *  CapSense_compensationIDAC[] - stores the compensation IDAC values.
1987:Generated_Source\PSoC4/CapSense.c ****     *
1988:Generated_Source\PSoC4/CapSense.c ****     * Side Effects:
1989:Generated_Source\PSoC4/CapSense.c ****     *  None
1990:Generated_Source\PSoC4/CapSense.c ****     *
1991:Generated_Source\PSoC4/CapSense.c ****     *******************************************************************************/
1992:Generated_Source\PSoC4/CapSense.c ****     uint32 CapSense_GetCompensationIDAC(uint32 sensor)
1993:Generated_Source\PSoC4/CapSense.c ****     {
 1743              		.loc 1 1993 0
 1744              		.cfi_startproc
 1745              		@ args = 0, pretend = 0, frame = 0
 1746              		@ frame_needed = 0, uses_anonymous_args = 0
 1747              		@ link register save eliminated.
 1748              	.LVL202:
1994:Generated_Source\PSoC4/CapSense.c ****         return((uint32)CapSense_compensationIDAC[sensor]);
 1749              		.loc 1 1994 0
 1750 0000 014B     		ldr	r3, .L117
 1751 0002 185C     		ldrb	r0, [r3, r0]
 1752              	.LVL203:
1995:Generated_Source\PSoC4/CapSense.c ****     }
 1753              		.loc 1 1995 0
 1754              		@ sp needed
 1755 0004 7047     		bx	lr
 1756              	.L118:
 1757 0006 C046     		.align	2
 1758              	.L117:
 1759 0008 00000000 		.word	CapSense_compensationIDAC
 1760              		.cfi_endproc
 1761              	.LFE65:
 1762              		.size	CapSense_GetCompensationIDAC, .-CapSense_GetCompensationIDAC
 1763              		.section	.text.CapSense_SetCompensationIDAC,"ax",%progbits
 1764              		.align	2
 1765              		.global	CapSense_SetCompensationIDAC
 1766              		.code	16
 1767              		.thumb_func
 1768              		.type	CapSense_SetCompensationIDAC, %function
 1769              	CapSense_SetCompensationIDAC:
 1770              	.LFB66:
1996:Generated_Source\PSoC4/CapSense.c **** #endif /* (CapSense_IDAC_CNT > 1u) */
1997:Generated_Source\PSoC4/CapSense.c **** 
1998:Generated_Source\PSoC4/CapSense.c **** 
1999:Generated_Source\PSoC4/CapSense.c **** #if((CapSense_TUNING_METHOD != CapSense__TUNING_NONE) && (CapSense_IDAC_CNT > 1u))
2000:Generated_Source\PSoC4/CapSense.c ****     /*******************************************************************************
2001:Generated_Source\PSoC4/CapSense.c ****     * Function Name: CapSense_SetCompensationIDAC
ARM GAS  C:\Users\Zeynep\AppData\Local\Temp\ccgAGQqu.s 			page 69


2002:Generated_Source\PSoC4/CapSense.c ****     ********************************************************************************
2003:Generated_Source\PSoC4/CapSense.c ****     *
2004:Generated_Source\PSoC4/CapSense.c ****     * Summary:
2005:Generated_Source\PSoC4/CapSense.c ****     *  This API sets a value of compensation IDAC for the  sensor.
2006:Generated_Source\PSoC4/CapSense.c ****     *
2007:Generated_Source\PSoC4/CapSense.c ****     * Parameters:
2008:Generated_Source\PSoC4/CapSense.c ****     *  sensor:  Sensor index.
2009:Generated_Source\PSoC4/CapSense.c ****     *  compIdacValue: represents the compensation IDAC data register value.
2010:Generated_Source\PSoC4/CapSense.c ****     *
2011:Generated_Source\PSoC4/CapSense.c ****     * Return:
2012:Generated_Source\PSoC4/CapSense.c ****     *  None.
2013:Generated_Source\PSoC4/CapSense.c ****     *
2014:Generated_Source\PSoC4/CapSense.c ****     * Global Variables:
2015:Generated_Source\PSoC4/CapSense.c ****     *  CapSense_compensationIDAC[] - an array with compensation IDAC values
2016:Generated_Source\PSoC4/CapSense.c ****     *
2017:Generated_Source\PSoC4/CapSense.c ****     * Side Effects:
2018:Generated_Source\PSoC4/CapSense.c ****     *  None
2019:Generated_Source\PSoC4/CapSense.c ****     *
2020:Generated_Source\PSoC4/CapSense.c ****     *******************************************************************************/
2021:Generated_Source\PSoC4/CapSense.c ****     void CapSense_SetCompensationIDAC(uint32 sensor, uint32 compIdacValue)
2022:Generated_Source\PSoC4/CapSense.c ****     {
 1771              		.loc 1 2022 0
 1772              		.cfi_startproc
 1773              		@ args = 0, pretend = 0, frame = 0
 1774              		@ frame_needed = 0, uses_anonymous_args = 0
 1775              		@ link register save eliminated.
 1776              	.LVL204:
2023:Generated_Source\PSoC4/CapSense.c ****         CapSense_compensationIDAC[sensor] = (uint8)compIdacValue;
 1777              		.loc 1 2023 0
 1778 0000 014B     		ldr	r3, .L120
 1779 0002 1954     		strb	r1, [r3, r0]
2024:Generated_Source\PSoC4/CapSense.c ****     }
 1780              		.loc 1 2024 0
 1781              		@ sp needed
 1782 0004 7047     		bx	lr
 1783              	.L121:
 1784 0006 C046     		.align	2
 1785              	.L120:
 1786 0008 00000000 		.word	CapSense_compensationIDAC
 1787              		.cfi_endproc
 1788              	.LFE66:
 1789              		.size	CapSense_SetCompensationIDAC, .-CapSense_SetCompensationIDAC
 1790              		.section	.text.CapSense_GetIDACRange,"ax",%progbits
 1791              		.align	2
 1792              		.global	CapSense_GetIDACRange
 1793              		.code	16
 1794              		.thumb_func
 1795              		.type	CapSense_GetIDACRange, %function
 1796              	CapSense_GetIDACRange:
 1797              	.LFB67:
2025:Generated_Source\PSoC4/CapSense.c **** #endif /* ((CapSense_TUNING_METHOD != CapSense__TUNING_NONE) && (CapSense_IDAC_CNT > 1u)) */
2026:Generated_Source\PSoC4/CapSense.c **** 
2027:Generated_Source\PSoC4/CapSense.c **** /*******************************************************************************
2028:Generated_Source\PSoC4/CapSense.c **** * Function Name: CapSense_GetIDACRange
2029:Generated_Source\PSoC4/CapSense.c **** ********************************************************************************
2030:Generated_Source\PSoC4/CapSense.c **** *
2031:Generated_Source\PSoC4/CapSense.c **** * Summary:
ARM GAS  C:\Users\Zeynep\AppData\Local\Temp\ccgAGQqu.s 			page 70


2032:Generated_Source\PSoC4/CapSense.c **** *  This API returns a value that indicates the IDAC range used by the
2033:Generated_Source\PSoC4/CapSense.c **** *  component to scan sensors. The IDAC range is common for all the sensors.
2034:Generated_Source\PSoC4/CapSense.c **** *
2035:Generated_Source\PSoC4/CapSense.c **** * Parameters:
2036:Generated_Source\PSoC4/CapSense.c **** *  None
2037:Generated_Source\PSoC4/CapSense.c **** *
2038:Generated_Source\PSoC4/CapSense.c **** * Return:
2039:Generated_Source\PSoC4/CapSense.c **** *  This API Returns a value that indicates the IDAC range:
2040:Generated_Source\PSoC4/CapSense.c **** *      0 - IDAC range set to 4x
2041:Generated_Source\PSoC4/CapSense.c **** *      1 - IDAC range set to 8x
2042:Generated_Source\PSoC4/CapSense.c **** *
2043:Generated_Source\PSoC4/CapSense.c **** * Global Variables:
2044:Generated_Source\PSoC4/CapSense.c **** *  None
2045:Generated_Source\PSoC4/CapSense.c **** *
2046:Generated_Source\PSoC4/CapSense.c **** * Side Effects:
2047:Generated_Source\PSoC4/CapSense.c **** *  None
2048:Generated_Source\PSoC4/CapSense.c **** *
2049:Generated_Source\PSoC4/CapSense.c **** *******************************************************************************/
2050:Generated_Source\PSoC4/CapSense.c **** uint32 CapSense_GetIDACRange(void)
2051:Generated_Source\PSoC4/CapSense.c **** {
 1798              		.loc 1 2051 0
 1799              		.cfi_startproc
 1800              		@ args = 0, pretend = 0, frame = 0
 1801              		@ frame_needed = 0, uses_anonymous_args = 0
 1802              		@ link register save eliminated.
2052:Generated_Source\PSoC4/CapSense.c ****     return((0u != (CapSense_CSD_IDAC_REG & CapSense_CSD_IDAC1_RANGE_8X)) ? 1uL : 0uL);
 1803              		.loc 1 2052 0
 1804 0000 034B     		ldr	r3, .L124
 1805 0002 1868     		ldr	r0, [r3]
 1806 0004 8023     		movs	r3, #128
 1807 0006 DB00     		lsls	r3, r3, #3
 1808 0008 1840     		ands	r0, r3
 1809 000a 00D0     		beq	.L123
 1810 000c 0120     		movs	r0, #1
 1811              	.L123:
2053:Generated_Source\PSoC4/CapSense.c **** }
 1812              		.loc 1 2053 0 discriminator 4
 1813              		@ sp needed
 1814 000e 7047     		bx	lr
 1815              	.L125:
 1816              		.align	2
 1817              	.L124:
 1818 0010 08000840 		.word	1074266120
 1819              		.cfi_endproc
 1820              	.LFE67:
 1821              		.size	CapSense_GetIDACRange, .-CapSense_GetIDACRange
 1822              		.section	.text.CapSense_SetIDACRange,"ax",%progbits
 1823              		.align	2
 1824              		.global	CapSense_SetIDACRange
 1825              		.code	16
 1826              		.thumb_func
 1827              		.type	CapSense_SetIDACRange, %function
 1828              	CapSense_SetIDACRange:
 1829              	.LFB68:
2054:Generated_Source\PSoC4/CapSense.c **** 
2055:Generated_Source\PSoC4/CapSense.c **** #if (CapSense_TUNING_METHOD != CapSense__TUNING_NONE)
2056:Generated_Source\PSoC4/CapSense.c ****     /*******************************************************************************
ARM GAS  C:\Users\Zeynep\AppData\Local\Temp\ccgAGQqu.s 			page 71


2057:Generated_Source\PSoC4/CapSense.c ****     * Function Name: CapSense_SetIDACRange
2058:Generated_Source\PSoC4/CapSense.c ****     ********************************************************************************
2059:Generated_Source\PSoC4/CapSense.c ****     *
2060:Generated_Source\PSoC4/CapSense.c ****     * Summary:
2061:Generated_Source\PSoC4/CapSense.c ****     *  This API sets the IDAC range to the 4x (1.2uA/bit) or 8x (2.4uA/bit) mode.
2062:Generated_Source\PSoC4/CapSense.c ****     *  The IDAC range is common for all the sensors and common for the modulation and
2063:Generated_Source\PSoC4/CapSense.c ****     *  compensation IDACs.
2064:Generated_Source\PSoC4/CapSense.c ****     *
2065:Generated_Source\PSoC4/CapSense.c ****     * Parameters:
2066:Generated_Source\PSoC4/CapSense.c ****     *  iDacRange:  represents value for IDAC range
2067:Generated_Source\PSoC4/CapSense.c ****     *  0 -  IDAC range set to 4x (1.2uA/bit)
2068:Generated_Source\PSoC4/CapSense.c ****     *  1 or >1 - IDAC range set to 8x (2.4uA/bit)
2069:Generated_Source\PSoC4/CapSense.c ****     *
2070:Generated_Source\PSoC4/CapSense.c ****     * Return:
2071:Generated_Source\PSoC4/CapSense.c ****     *  None.
2072:Generated_Source\PSoC4/CapSense.c ****     *
2073:Generated_Source\PSoC4/CapSense.c ****     * Global Variables:
2074:Generated_Source\PSoC4/CapSense.c ****     *  None
2075:Generated_Source\PSoC4/CapSense.c ****     *
2076:Generated_Source\PSoC4/CapSense.c ****     * Side Effects:
2077:Generated_Source\PSoC4/CapSense.c ****     *  None
2078:Generated_Source\PSoC4/CapSense.c ****     *
2079:Generated_Source\PSoC4/CapSense.c ****     *******************************************************************************/
2080:Generated_Source\PSoC4/CapSense.c ****     void CapSense_SetIDACRange(uint32 iDacRange)
2081:Generated_Source\PSoC4/CapSense.c ****     {
 1830              		.loc 1 2081 0
 1831              		.cfi_startproc
 1832              		@ args = 0, pretend = 0, frame = 0
 1833              		@ frame_needed = 0, uses_anonymous_args = 0
 1834              		@ link register save eliminated.
 1835              	.LVL205:
2082:Generated_Source\PSoC4/CapSense.c ****         if(iDacRange != 0u)
 1836              		.loc 1 2082 0
 1837 0000 0028     		cmp	r0, #0
 1838 0002 05D0     		beq	.L127
2083:Generated_Source\PSoC4/CapSense.c ****         {
2084:Generated_Source\PSoC4/CapSense.c ****             /*  IDAC range = 8x (2.4uA/bit) */
2085:Generated_Source\PSoC4/CapSense.c ****             CapSense_CSD_IDAC_REG |= (CapSense_CSD_IDAC1_RANGE_8X |\
 1839              		.loc 1 2085 0
 1840 0004 054A     		ldr	r2, .L129
 1841 0006 1368     		ldr	r3, [r2]
 1842 0008 0549     		ldr	r1, .L129+4
 1843 000a 0B43     		orrs	r3, r1
 1844 000c 1360     		str	r3, [r2]
 1845 000e 04E0     		b	.L126
 1846              	.L127:
2086:Generated_Source\PSoC4/CapSense.c ****                                               CapSense_CSD_IDAC2_RANGE_8X);
2087:Generated_Source\PSoC4/CapSense.c ****         }
2088:Generated_Source\PSoC4/CapSense.c ****         else
2089:Generated_Source\PSoC4/CapSense.c ****         {
2090:Generated_Source\PSoC4/CapSense.c ****             /*  IDAC range = 4x (1.2uA/bit) */
2091:Generated_Source\PSoC4/CapSense.c ****             /*  IDAC range = 8x (2.4uA/bit) */
2092:Generated_Source\PSoC4/CapSense.c ****             CapSense_CSD_IDAC_REG &= ~(CapSense_CSD_IDAC1_RANGE_8X |\
 1847              		.loc 1 2092 0
 1848 0010 024A     		ldr	r2, .L129
 1849 0012 1168     		ldr	r1, [r2]
 1850 0014 034B     		ldr	r3, .L129+8
ARM GAS  C:\Users\Zeynep\AppData\Local\Temp\ccgAGQqu.s 			page 72


 1851 0016 0B40     		ands	r3, r1
 1852 0018 1360     		str	r3, [r2]
 1853              	.L126:
2093:Generated_Source\PSoC4/CapSense.c ****                                                CapSense_CSD_IDAC2_RANGE_8X);
2094:Generated_Source\PSoC4/CapSense.c ****         }
2095:Generated_Source\PSoC4/CapSense.c ****     }
 1854              		.loc 1 2095 0
 1855              		@ sp needed
 1856 001a 7047     		bx	lr
 1857              	.L130:
 1858              		.align	2
 1859              	.L129:
 1860 001c 08000840 		.word	1074266120
 1861 0020 00040004 		.word	67109888
 1862 0024 FFFBFFFB 		.word	-67109889
 1863              		.cfi_endproc
 1864              	.LFE68:
 1865              		.size	CapSense_SetIDACRange, .-CapSense_SetIDACRange
 1866              		.section	.text.CapSense_GetSensorRaw,"ax",%progbits
 1867              		.align	2
 1868              		.global	CapSense_GetSensorRaw
 1869              		.code	16
 1870              		.thumb_func
 1871              		.type	CapSense_GetSensorRaw, %function
 1872              	CapSense_GetSensorRaw:
 1873              	.LFB69:
2096:Generated_Source\PSoC4/CapSense.c **** #endif /* (CapSense_TUNING_METHOD != CapSense__TUNING_NONE) */
2097:Generated_Source\PSoC4/CapSense.c **** 
2098:Generated_Source\PSoC4/CapSense.c **** 
2099:Generated_Source\PSoC4/CapSense.c **** #if((0u != CapSense_AUTOCALIBRATION_ENABLE) || (CapSense_TUNING_METHOD == CapSense__TUNING_AUTO))
2100:Generated_Source\PSoC4/CapSense.c ****     /*******************************************************************************
2101:Generated_Source\PSoC4/CapSense.c ****     * Function Name: CapSense_GetSensorRaw
2102:Generated_Source\PSoC4/CapSense.c ****     ********************************************************************************
2103:Generated_Source\PSoC4/CapSense.c ****     *
2104:Generated_Source\PSoC4/CapSense.c ****     * Summary:
2105:Generated_Source\PSoC4/CapSense.c ****     *  The API updates and gets uprated raw data from the sensor.
2106:Generated_Source\PSoC4/CapSense.c ****     *
2107:Generated_Source\PSoC4/CapSense.c ****     * Parameters:
2108:Generated_Source\PSoC4/CapSense.c ****     *  sensor - Sensor number.
2109:Generated_Source\PSoC4/CapSense.c ****     *
2110:Generated_Source\PSoC4/CapSense.c ****     * Return:
2111:Generated_Source\PSoC4/CapSense.c ****     *  Returns the current raw data value for a defined sensor number.
2112:Generated_Source\PSoC4/CapSense.c ****     *
2113:Generated_Source\PSoC4/CapSense.c ****     * Global Variables:
2114:Generated_Source\PSoC4/CapSense.c ****     *  None
2115:Generated_Source\PSoC4/CapSense.c ****     *
2116:Generated_Source\PSoC4/CapSense.c ****     * Side Effects:
2117:Generated_Source\PSoC4/CapSense.c ****     *  None
2118:Generated_Source\PSoC4/CapSense.c ****     *
2119:Generated_Source\PSoC4/CapSense.c ****     *******************************************************************************/
2120:Generated_Source\PSoC4/CapSense.c ****     uint16  CapSense_GetSensorRaw(uint32 sensor)
2121:Generated_Source\PSoC4/CapSense.c ****     {
 1874              		.loc 1 2121 0
 1875              		.cfi_startproc
 1876              		@ args = 0, pretend = 0, frame = 0
 1877              		@ frame_needed = 0, uses_anonymous_args = 0
 1878              	.LVL206:
ARM GAS  C:\Users\Zeynep\AppData\Local\Temp\ccgAGQqu.s 			page 73


 1879 0000 70B5     		push	{r4, r5, r6, lr}
 1880              		.cfi_def_cfa_offset 16
 1881              		.cfi_offset 4, -16
 1882              		.cfi_offset 5, -12
 1883              		.cfi_offset 6, -8
 1884              		.cfi_offset 14, -4
 1885 0002 0600     		movs	r6, r0
 1886              	.LVL207:
2122:Generated_Source\PSoC4/CapSense.c ****         uint32 curSample;
2123:Generated_Source\PSoC4/CapSense.c ****         uint32 avgVal = 0u;
 1887              		.loc 1 2123 0
 1888 0004 0024     		movs	r4, #0
2124:Generated_Source\PSoC4/CapSense.c **** 
2125:Generated_Source\PSoC4/CapSense.c ****         for(curSample = 0u; curSample < CapSense_AVG_SAMPLES_NUM; curSample++)
 1889              		.loc 1 2125 0
 1890 0006 0025     		movs	r5, #0
 1891 0008 0BE0     		b	.L132
 1892              	.LVL208:
 1893              	.L134:
2126:Generated_Source\PSoC4/CapSense.c ****         {
2127:Generated_Source\PSoC4/CapSense.c **** 
2128:Generated_Source\PSoC4/CapSense.c ****             CapSense_ScanSensor((uint32)sensor);
 1894              		.loc 1 2128 0
 1895 000a 3000     		movs	r0, r6
 1896 000c FFF7FEFF 		bl	CapSense_ScanSensor
 1897              	.LVL209:
 1898              	.L133:
2129:Generated_Source\PSoC4/CapSense.c ****             while(CapSense_IsBusy() == 1u)
 1899              		.loc 1 2129 0 discriminator 1
 1900 0010 FFF7FEFF 		bl	CapSense_IsBusy
 1901              	.LVL210:
 1902 0014 0128     		cmp	r0, #1
 1903 0016 FBD0     		beq	.L133
2130:Generated_Source\PSoC4/CapSense.c ****             {
2131:Generated_Source\PSoC4/CapSense.c ****                 /* Wait while sensor is busy */
2132:Generated_Source\PSoC4/CapSense.c ****             }
2133:Generated_Source\PSoC4/CapSense.c ****             avgVal += CapSense_ReadSensorRaw((uint32)sensor);
 1904              		.loc 1 2133 0 discriminator 2
 1905 0018 3000     		movs	r0, r6
 1906 001a FFF7FEFF 		bl	CapSense_ReadSensorRaw
 1907              	.LVL211:
 1908 001e 2418     		adds	r4, r4, r0
 1909              	.LVL212:
2125:Generated_Source\PSoC4/CapSense.c ****         {
 1910              		.loc 1 2125 0 discriminator 2
 1911 0020 0135     		adds	r5, r5, #1
 1912              	.LVL213:
 1913              	.L132:
2125:Generated_Source\PSoC4/CapSense.c ****         {
 1914              		.loc 1 2125 0 is_stmt 0 discriminator 1
 1915 0022 002D     		cmp	r5, #0
 1916 0024 F1D0     		beq	.L134
2134:Generated_Source\PSoC4/CapSense.c ****         }
2135:Generated_Source\PSoC4/CapSense.c **** 
2136:Generated_Source\PSoC4/CapSense.c ****         return((uint16)(avgVal / CapSense_AVG_SAMPLES_NUM));
 1917              		.loc 1 2136 0 is_stmt 1
 1918 0026 A0B2     		uxth	r0, r4
ARM GAS  C:\Users\Zeynep\AppData\Local\Temp\ccgAGQqu.s 			page 74


2137:Generated_Source\PSoC4/CapSense.c ****     }
 1919              		.loc 1 2137 0
 1920              		@ sp needed
 1921              	.LVL214:
 1922              	.LVL215:
 1923              	.LVL216:
 1924 0028 70BD     		pop	{r4, r5, r6, pc}
 1925              		.cfi_endproc
 1926              	.LFE69:
 1927              		.size	CapSense_GetSensorRaw, .-CapSense_GetSensorRaw
 1928 002a C046     		.section	.text.CapSense_SetUnscannedSensorState,"ax",%progbits
 1929              		.align	2
 1930              		.global	CapSense_SetUnscannedSensorState
 1931              		.code	16
 1932              		.thumb_func
 1933              		.type	CapSense_SetUnscannedSensorState, %function
 1934              	CapSense_SetUnscannedSensorState:
 1935              	.LFB70:
2138:Generated_Source\PSoC4/CapSense.c **** #endif /* ((0u != CapSense_AUTOCALIBRATION_ENABLE) && (CapSense_TUNING_METHOD == CapSense__TUNING_A
2139:Generated_Source\PSoC4/CapSense.c **** 
2140:Generated_Source\PSoC4/CapSense.c **** 
2141:Generated_Source\PSoC4/CapSense.c **** #if((0u != CapSense_AUTOCALIBRATION_ENABLE) && (CapSense_TUNING_METHOD != CapSense__TUNING_AUTO))
2142:Generated_Source\PSoC4/CapSense.c ****     /*******************************************************************************
2143:Generated_Source\PSoC4/CapSense.c ****     * Function Name: CapSense_CalibrateSensor
2144:Generated_Source\PSoC4/CapSense.c ****     ********************************************************************************
2145:Generated_Source\PSoC4/CapSense.c ****     *
2146:Generated_Source\PSoC4/CapSense.c ****     * Summary:
2147:Generated_Source\PSoC4/CapSense.c ****     *  Computes the one sensor IDAC value, which provides the raw signal on
2148:Generated_Source\PSoC4/CapSense.c ****     *  a specified level, with a specified prescaler, speed, and resolution.
2149:Generated_Source\PSoC4/CapSense.c ****     *
2150:Generated_Source\PSoC4/CapSense.c ****     * Parameters:
2151:Generated_Source\PSoC4/CapSense.c ****     *  sensor - Sensor Number.
2152:Generated_Source\PSoC4/CapSense.c ****     *
2153:Generated_Source\PSoC4/CapSense.c ****     *  rawLevel -  Raw data level which should be reached during the calibration
2154:Generated_Source\PSoC4/CapSense.c ****     *              procedure.
2155:Generated_Source\PSoC4/CapSense.c ****     *
2156:Generated_Source\PSoC4/CapSense.c ****     *  idacLevelsTbl - Pointer to the modulatorIdac data register configuration table.
2157:Generated_Source\PSoC4/CapSense.c ****     *
2158:Generated_Source\PSoC4/CapSense.c ****     * Return:
2159:Generated_Source\PSoC4/CapSense.c ****     *  None
2160:Generated_Source\PSoC4/CapSense.c ****     *
2161:Generated_Source\PSoC4/CapSense.c ****     *******************************************************************************/
2162:Generated_Source\PSoC4/CapSense.c ****     void CapSense_CalibrateSensor(uint32 sensor, uint32 rawLevel, uint8 idacLevelsTbl[])
2163:Generated_Source\PSoC4/CapSense.c ****     {
2164:Generated_Source\PSoC4/CapSense.c ****         uint8 mask;
2165:Generated_Source\PSoC4/CapSense.c ****         uint16 rawData;
2166:Generated_Source\PSoC4/CapSense.c **** 
2167:Generated_Source\PSoC4/CapSense.c ****         rawData = 0u;
2168:Generated_Source\PSoC4/CapSense.c **** 
2169:Generated_Source\PSoC4/CapSense.c ****         mask = 0x80u;
2170:Generated_Source\PSoC4/CapSense.c ****         /* Init IDAC for null Channel */
2171:Generated_Source\PSoC4/CapSense.c ****         idacLevelsTbl[sensor] = 0x00u;
2172:Generated_Source\PSoC4/CapSense.c **** 
2173:Generated_Source\PSoC4/CapSense.c ****         do
2174:Generated_Source\PSoC4/CapSense.c ****         {
2175:Generated_Source\PSoC4/CapSense.c ****             /* Set bit for null Channel */
2176:Generated_Source\PSoC4/CapSense.c ****             idacLevelsTbl[sensor] |= mask;
ARM GAS  C:\Users\Zeynep\AppData\Local\Temp\ccgAGQqu.s 			page 75


2177:Generated_Source\PSoC4/CapSense.c **** 
2178:Generated_Source\PSoC4/CapSense.c ****             /* Scan null Channel and get Rawdata */
2179:Generated_Source\PSoC4/CapSense.c ****             rawData = CapSense_GetSensorRaw(sensor);
2180:Generated_Source\PSoC4/CapSense.c **** 
2181:Generated_Source\PSoC4/CapSense.c ****             /* Decrease IDAC until Rawdata reaches rawLevel */
2182:Generated_Source\PSoC4/CapSense.c ****             if(rawData < rawLevel)
2183:Generated_Source\PSoC4/CapSense.c ****             {
2184:Generated_Source\PSoC4/CapSense.c ****                 /* Reset bit for null Channel  */
2185:Generated_Source\PSoC4/CapSense.c ****                 idacLevelsTbl[sensor] &= (uint8)~mask;
2186:Generated_Source\PSoC4/CapSense.c ****             }
2187:Generated_Source\PSoC4/CapSense.c **** 
2188:Generated_Source\PSoC4/CapSense.c ****             mask >>= 1u;
2189:Generated_Source\PSoC4/CapSense.c ****         }
2190:Generated_Source\PSoC4/CapSense.c ****         while(mask > 0u);
2191:Generated_Source\PSoC4/CapSense.c **** 
2192:Generated_Source\PSoC4/CapSense.c ****     }
2193:Generated_Source\PSoC4/CapSense.c **** #endif /* ((0u != CapSense_AUTOCALIBRATION_ENABLE) && (CapSense_TUNING_METHOD != CapSense__TUNING_A
2194:Generated_Source\PSoC4/CapSense.c **** 
2195:Generated_Source\PSoC4/CapSense.c **** 
2196:Generated_Source\PSoC4/CapSense.c **** /*******************************************************************************
2197:Generated_Source\PSoC4/CapSense.c **** * Function Name: CapSense_SetUnscannedSensorState
2198:Generated_Source\PSoC4/CapSense.c **** ********************************************************************************
2199:Generated_Source\PSoC4/CapSense.c **** *
2200:Generated_Source\PSoC4/CapSense.c **** * Summary:
2201:Generated_Source\PSoC4/CapSense.c **** *  This API sets a state for un-scanned sensors.
2202:Generated_Source\PSoC4/CapSense.c **** *  It is possible to set the state to Ground, High-Z, or the shield electrode.
2203:Generated_Source\PSoC4/CapSense.c **** *  The un-scanned sensor can be connected to a shield electrode only if the shield is
2204:Generated_Source\PSoC4/CapSense.c **** *  enabled. If the shield is disabled and this API is called with the parameter which
2205:Generated_Source\PSoC4/CapSense.c **** *  indicates the shield state, the un-scanned sensor will be connected to Ground.
2206:Generated_Source\PSoC4/CapSense.c **** *
2207:Generated_Source\PSoC4/CapSense.c **** * Parameters:
2208:Generated_Source\PSoC4/CapSense.c **** *  sensor - Sensor Number.
2209:Generated_Source\PSoC4/CapSense.c **** *  sensorState: This parameter indicates un-scanned sensor state:
2210:Generated_Source\PSoC4/CapSense.c **** *
2211:Generated_Source\PSoC4/CapSense.c **** *     CapSense__GROUND 0
2212:Generated_Source\PSoC4/CapSense.c **** *     CapSense__HIZ_ANALOG 1
2213:Generated_Source\PSoC4/CapSense.c **** *     CapSense__SHIELD 2
2214:Generated_Source\PSoC4/CapSense.c **** *
2215:Generated_Source\PSoC4/CapSense.c **** * Return:
2216:Generated_Source\PSoC4/CapSense.c **** *  None.
2217:Generated_Source\PSoC4/CapSense.c **** *
2218:Generated_Source\PSoC4/CapSense.c **** * Global Variables:
2219:Generated_Source\PSoC4/CapSense.c **** *  CapSense_unscannedSnsDriveMode[] - used to store the state for
2220:Generated_Source\PSoC4/CapSense.c **** *  un-scanned sensors.
2221:Generated_Source\PSoC4/CapSense.c **** *
2222:Generated_Source\PSoC4/CapSense.c **** * Side Effects:
2223:Generated_Source\PSoC4/CapSense.c **** *  None
2224:Generated_Source\PSoC4/CapSense.c **** *
2225:Generated_Source\PSoC4/CapSense.c **** *******************************************************************************/
2226:Generated_Source\PSoC4/CapSense.c **** void CapSense_SetUnscannedSensorState(uint32 sensor, uint32 sensorState)
2227:Generated_Source\PSoC4/CapSense.c **** {
 1936              		.loc 1 2227 0
 1937              		.cfi_startproc
 1938              		@ args = 0, pretend = 0, frame = 0
 1939              		@ frame_needed = 0, uses_anonymous_args = 0
 1940              		@ link register save eliminated.
 1941              	.LVL217:
ARM GAS  C:\Users\Zeynep\AppData\Local\Temp\ccgAGQqu.s 			page 76


2228:Generated_Source\PSoC4/CapSense.c ****     #if(CapSense_IS_COMPLEX_SCANSLOTS)
2229:Generated_Source\PSoC4/CapSense.c ****         uint8 snsType;
2230:Generated_Source\PSoC4/CapSense.c ****         uint8 curSensor;
2231:Generated_Source\PSoC4/CapSense.c ****         uint16 snsNumber;
2232:Generated_Source\PSoC4/CapSense.c **** 
2233:Generated_Source\PSoC4/CapSense.c ****         /* Read sensor type: single or complex */
2234:Generated_Source\PSoC4/CapSense.c ****         snsType = CapSense_portTable[sensor];
2235:Generated_Source\PSoC4/CapSense.c **** 
2236:Generated_Source\PSoC4/CapSense.c ****         /* Check if sensor is complex */
2237:Generated_Source\PSoC4/CapSense.c ****         if(0u != (snsType & CapSense_COMPLEX_SS_FLAG))
2238:Generated_Source\PSoC4/CapSense.c ****         {
2239:Generated_Source\PSoC4/CapSense.c ****             snsType &= (uint8)~CapSense_COMPLEX_SS_FLAG;
2240:Generated_Source\PSoC4/CapSense.c ****             snsNumber = (uint16)CapSense_maskTable[sensor];
2241:Generated_Source\PSoC4/CapSense.c **** 
2242:Generated_Source\PSoC4/CapSense.c ****             for (curSensor=0u; curSensor < snsNumber; curSensor++)
2243:Generated_Source\PSoC4/CapSense.c ****             {
2244:Generated_Source\PSoC4/CapSense.c ****                 sensor = CapSense_indexTable[snsType + curSensor];
2245:Generated_Source\PSoC4/CapSense.c ****                 CapSense_unscannedSnsDriveMode[sensor] = (uint8)sensorState;
2246:Generated_Source\PSoC4/CapSense.c ****             }
2247:Generated_Source\PSoC4/CapSense.c ****         }
2248:Generated_Source\PSoC4/CapSense.c ****         else
2249:Generated_Source\PSoC4/CapSense.c ****         {
2250:Generated_Source\PSoC4/CapSense.c ****             CapSense_unscannedSnsDriveMode[sensor] = (uint8)sensorState;
2251:Generated_Source\PSoC4/CapSense.c ****         }
2252:Generated_Source\PSoC4/CapSense.c ****     #else
2253:Generated_Source\PSoC4/CapSense.c ****         CapSense_unscannedSnsDriveMode[sensor] = (uint8)sensorState;
 1942              		.loc 1 2253 0
 1943 0000 014B     		ldr	r3, .L136
 1944 0002 1954     		strb	r1, [r3, r0]
2254:Generated_Source\PSoC4/CapSense.c ****     #endif /* (CapSense_IS_COMPLEX_SCANSLOTS) */
2255:Generated_Source\PSoC4/CapSense.c **** }
 1945              		.loc 1 2255 0
 1946              		@ sp needed
 1947 0004 7047     		bx	lr
 1948              	.L137:
 1949 0006 C046     		.align	2
 1950              	.L136:
 1951 0008 00000000 		.word	CapSense_unscannedSnsDriveMode
 1952              		.cfi_endproc
 1953              	.LFE70:
 1954              		.size	CapSense_SetUnscannedSensorState, .-CapSense_SetUnscannedSensorState
 1955              		.section	.text.CapSense_Init,"ax",%progbits
 1956              		.align	2
 1957              		.global	CapSense_Init
 1958              		.code	16
 1959              		.thumb_func
 1960              		.type	CapSense_Init, %function
 1961              	CapSense_Init:
 1962              	.LFB32:
 162:Generated_Source\PSoC4/CapSense.c ****     uint32 curSensor;
 1963              		.loc 1 162 0
 1964              		.cfi_startproc
 1965              		@ args = 0, pretend = 0, frame = 0
 1966              		@ frame_needed = 0, uses_anonymous_args = 0
 1967 0000 10B5     		push	{r4, lr}
 1968              		.cfi_def_cfa_offset 8
 1969              		.cfi_offset 4, -8
ARM GAS  C:\Users\Zeynep\AppData\Local\Temp\ccgAGQqu.s 			page 77


 1970              		.cfi_offset 14, -4
 1971              	.LVL218:
 193:Generated_Source\PSoC4/CapSense.c ****     {
 1972              		.loc 1 193 0
 1973 0002 0024     		movs	r4, #0
 1974 0004 04E0     		b	.L139
 1975              	.LVL219:
 1976              	.L140:
 195:Generated_Source\PSoC4/CapSense.c ****     }
 1977              		.loc 1 195 0 discriminator 3
 1978 0006 0021     		movs	r1, #0
 1979 0008 2000     		movs	r0, r4
 1980 000a FFF7FEFF 		bl	CapSense_SetUnscannedSensorState
 1981              	.LVL220:
 193:Generated_Source\PSoC4/CapSense.c ****     {
 1982              		.loc 1 193 0 discriminator 3
 1983 000e 0134     		adds	r4, r4, #1
 1984              	.LVL221:
 1985              	.L139:
 193:Generated_Source\PSoC4/CapSense.c ****     {
 1986              		.loc 1 193 0 is_stmt 0 discriminator 1
 1987 0010 042C     		cmp	r4, #4
 1988 0012 F8D9     		bls	.L140
 198:Generated_Source\PSoC4/CapSense.c ****     CapSense_SetShieldDelay(CapSense_SHIELD_DELAY );
 1989              		.loc 1 198 0 is_stmt 1
 1990 0014 FFF7FEFF 		bl	CapSense_CsdHwBlockInit
 1991              	.LVL222:
 199:Generated_Source\PSoC4/CapSense.c **** 
 1992              		.loc 1 199 0
 1993 0018 0020     		movs	r0, #0
 1994 001a FFF7FEFF 		bl	CapSense_SetShieldDelay
 1995              	.LVL223:
 202:Generated_Source\PSoC4/CapSense.c **** }
 1996              		.loc 1 202 0
 1997 001e FFF7FEFF 		bl	CapSense_ClearSensors
 1998              	.LVL224:
 203:Generated_Source\PSoC4/CapSense.c **** 
 1999              		.loc 1 203 0
 2000              		@ sp needed
 2001              	.LVL225:
 2002 0022 10BD     		pop	{r4, pc}
 2003              		.cfi_endproc
 2004              	.LFE32:
 2005              		.size	CapSense_Init, .-CapSense_Init
 2006              		.section	.text.CapSense_Start,"ax",%progbits
 2007              		.align	2
 2008              		.global	CapSense_Start
 2009              		.code	16
 2010              		.thumb_func
 2011              		.type	CapSense_Start, %function
 2012              	CapSense_Start:
 2013              	.LFB35:
 371:Generated_Source\PSoC4/CapSense.c **** 
 2014              		.loc 1 371 0
 2015              		.cfi_startproc
 2016              		@ args = 0, pretend = 0, frame = 0
 2017              		@ frame_needed = 0, uses_anonymous_args = 0
ARM GAS  C:\Users\Zeynep\AppData\Local\Temp\ccgAGQqu.s 			page 78


 2018 0000 10B5     		push	{r4, lr}
 2019              		.cfi_def_cfa_offset 8
 2020              		.cfi_offset 4, -8
 2021              		.cfi_offset 14, -4
 381:Generated_Source\PSoC4/CapSense.c ****     {
 2022              		.loc 1 381 0
 2023 0002 0B4B     		ldr	r3, .L143
 2024 0004 DB7B     		ldrb	r3, [r3, #15]
 2025 0006 002B     		cmp	r3, #0
 2026 0008 04D1     		bne	.L142
 383:Generated_Source\PSoC4/CapSense.c ****         CapSense_initVar = 1u;
 2027              		.loc 1 383 0
 2028 000a FFF7FEFF 		bl	CapSense_Init
 2029              	.LVL226:
 384:Generated_Source\PSoC4/CapSense.c ****     }
 2030              		.loc 1 384 0
 2031 000e 0122     		movs	r2, #1
 2032 0010 074B     		ldr	r3, .L143
 2033 0012 DA73     		strb	r2, [r3, #15]
 2034              	.L142:
 386:Generated_Source\PSoC4/CapSense.c **** 
 2035              		.loc 1 386 0
 2036 0014 FFF7FEFF 		bl	CapSense_Enable
 2037              	.LVL227:
 391:Generated_Source\PSoC4/CapSense.c ****             CapSense_lowLevelTuningDone = 1u;
 2038              		.loc 1 391 0
 2039 0018 FFF7FEFF 		bl	CapSense_AutoTune
 2040              	.LVL228:
 392:Generated_Source\PSoC4/CapSense.c ****         #endif /* (0u != CapSense_CSHL_API_GENERATE) */
 2041              		.loc 1 392 0
 2042 001c 0122     		movs	r2, #1
 2043 001e 044B     		ldr	r3, .L143
 2044 0020 1A74     		strb	r2, [r3, #16]
 435:Generated_Source\PSoC4/CapSense.c **** }
 2045              		.loc 1 435 0
 2046 0022 044A     		ldr	r2, .L143+4
 2047 0024 1368     		ldr	r3, [r2]
 2048 0026 8021     		movs	r1, #128
 2049 0028 C903     		lsls	r1, r1, #15
 2050 002a 0B43     		orrs	r3, r1
 2051 002c 1360     		str	r3, [r2]
 436:Generated_Source\PSoC4/CapSense.c **** 
 2052              		.loc 1 436 0
 2053              		@ sp needed
 2054 002e 10BD     		pop	{r4, pc}
 2055              	.L144:
 2056              		.align	2
 2057              	.L143:
 2058 0030 00000000 		.word	.LANCHOR0
 2059 0034 04000840 		.word	1074266116
 2060              		.cfi_endproc
 2061              	.LFE35:
 2062              		.size	CapSense_Start, .-CapSense_Start
 2063              		.section	.text.CapSense_NormalizeWidgets,"ax",%progbits
 2064              		.align	2
 2065              		.global	CapSense_NormalizeWidgets
 2066              		.code	16
ARM GAS  C:\Users\Zeynep\AppData\Local\Temp\ccgAGQqu.s 			page 79


 2067              		.thumb_func
 2068              		.type	CapSense_NormalizeWidgets, %function
 2069              	CapSense_NormalizeWidgets:
 2070              	.LFB71:
2256:Generated_Source\PSoC4/CapSense.c **** 
2257:Generated_Source\PSoC4/CapSense.c **** #if(0u != CapSense_TOTAL_CENTROIDS_COUNT)
2258:Generated_Source\PSoC4/CapSense.c **** /*******************************************************************************
2259:Generated_Source\PSoC4/CapSense.c **** * Function Name: CapSense_NormalizeWidgets
2260:Generated_Source\PSoC4/CapSense.c **** ********************************************************************************
2261:Generated_Source\PSoC4/CapSense.c **** *
2262:Generated_Source\PSoC4/CapSense.c **** * Summary:
2263:Generated_Source\PSoC4/CapSense.c **** *  This API aligns all the parameters of the widget to the maximum parameter.
2264:Generated_Source\PSoC4/CapSense.c **** *
2265:Generated_Source\PSoC4/CapSense.c **** * Parameters:
2266:Generated_Source\PSoC4/CapSense.c **** *  uint32 widgetsNum: Number of widgets.
2267:Generated_Source\PSoC4/CapSense.c **** *  uint8 *dataPrt: pointer to array with widget parameters.
2268:Generated_Source\PSoC4/CapSense.c **** *
2269:Generated_Source\PSoC4/CapSense.c **** * Return:
2270:Generated_Source\PSoC4/CapSense.c **** *  None
2271:Generated_Source\PSoC4/CapSense.c **** *
2272:Generated_Source\PSoC4/CapSense.c **** * Global Variables:
2273:Generated_Source\PSoC4/CapSense.c **** *  CapSense_numberOfSensors[] - Number of sensors in the widget.
2274:Generated_Source\PSoC4/CapSense.c **** *  CapSense_rawDataIndex[currentWidget] - Contains the  1st sensor
2275:Generated_Source\PSoC4/CapSense.c **** *  position in the widget.
2276:Generated_Source\PSoC4/CapSense.c **** *
2277:Generated_Source\PSoC4/CapSense.c **** * Side Effects:
2278:Generated_Source\PSoC4/CapSense.c **** *  None
2279:Generated_Source\PSoC4/CapSense.c **** *
2280:Generated_Source\PSoC4/CapSense.c **** *******************************************************************************/
2281:Generated_Source\PSoC4/CapSense.c **** void CapSense_NormalizeWidgets(uint32 widgetsNum, uint8 dataPtr[])
2282:Generated_Source\PSoC4/CapSense.c **** {
 2071              		.loc 1 2282 0
 2072              		.cfi_startproc
 2073              		@ args = 0, pretend = 0, frame = 0
 2074              		@ frame_needed = 0, uses_anonymous_args = 0
 2075              	.LVL229:
 2076 0000 F0B5     		push	{r4, r5, r6, r7, lr}
 2077              		.cfi_def_cfa_offset 20
 2078              		.cfi_offset 4, -20
 2079              		.cfi_offset 5, -16
 2080              		.cfi_offset 6, -12
 2081              		.cfi_offset 7, -8
 2082              		.cfi_offset 14, -4
 2083              	.LVL230:
2283:Generated_Source\PSoC4/CapSense.c ****     uint32 currentWidget;
2284:Generated_Source\PSoC4/CapSense.c ****     uint32 currentSensor;
2285:Generated_Source\PSoC4/CapSense.c ****     uint32 lastSensor;
2286:Generated_Source\PSoC4/CapSense.c ****     uint32 sensorsPerWidget;
2287:Generated_Source\PSoC4/CapSense.c ****     uint32 maxPerWidget;
2288:Generated_Source\PSoC4/CapSense.c **** 
2289:Generated_Source\PSoC4/CapSense.c ****     for(currentWidget = 0u; currentWidget < widgetsNum; currentWidget++)
 2084              		.loc 1 2289 0
 2085 0002 0027     		movs	r7, #0
 2086 0004 14E0     		b	.L146
 2087              	.LVL231:
 2088              	.L152:
2290:Generated_Source\PSoC4/CapSense.c ****     {
ARM GAS  C:\Users\Zeynep\AppData\Local\Temp\ccgAGQqu.s 			page 80


2291:Generated_Source\PSoC4/CapSense.c ****         maxPerWidget = 0u;
2292:Generated_Source\PSoC4/CapSense.c **** 
2293:Generated_Source\PSoC4/CapSense.c ****         sensorsPerWidget = CapSense_numberOfSensors[currentWidget];
 2089              		.loc 1 2293 0
 2090 0006 0C4B     		ldr	r3, .L154
 2091 0008 DE5D     		ldrb	r6, [r3, r7]
 2092              	.LVL232:
2294:Generated_Source\PSoC4/CapSense.c ****         currentSensor = CapSense_rawDataIndex[currentWidget];
 2093              		.loc 1 2294 0
 2094 000a 0C4B     		ldr	r3, .L154+4
 2095 000c DB5D     		ldrb	r3, [r3, r7]
 2096              	.LVL233:
2295:Generated_Source\PSoC4/CapSense.c ****         lastSensor = currentSensor + sensorsPerWidget;
 2097              		.loc 1 2295 0
 2098 000e F618     		adds	r6, r6, r3
 2099              	.LVL234:
2294:Generated_Source\PSoC4/CapSense.c ****         currentSensor = CapSense_rawDataIndex[currentWidget];
 2100              		.loc 1 2294 0
 2101 0010 1A00     		movs	r2, r3
2291:Generated_Source\PSoC4/CapSense.c **** 
 2102              		.loc 1 2291 0
 2103 0012 0024     		movs	r4, #0
2296:Generated_Source\PSoC4/CapSense.c **** 
2297:Generated_Source\PSoC4/CapSense.c ****         while(currentSensor < lastSensor)
 2104              		.loc 1 2297 0
 2105 0014 04E0     		b	.L147
 2106              	.LVL235:
 2107              	.L149:
2298:Generated_Source\PSoC4/CapSense.c ****         {
2299:Generated_Source\PSoC4/CapSense.c ****             if(maxPerWidget < dataPtr[currentSensor])
 2108              		.loc 1 2299 0
 2109 0016 8D5C     		ldrb	r5, [r1, r2]
 2110 0018 AC42     		cmp	r4, r5
 2111 001a 00D2     		bcs	.L148
2300:Generated_Source\PSoC4/CapSense.c ****             {
2301:Generated_Source\PSoC4/CapSense.c ****                 maxPerWidget = dataPtr[currentSensor];
 2112              		.loc 1 2301 0
 2113 001c 2C00     		movs	r4, r5
 2114              	.LVL236:
 2115              	.L148:
2302:Generated_Source\PSoC4/CapSense.c ****             }
2303:Generated_Source\PSoC4/CapSense.c ****             currentSensor++;
 2116              		.loc 1 2303 0
 2117 001e 0132     		adds	r2, r2, #1
 2118              	.LVL237:
 2119              	.L147:
2297:Generated_Source\PSoC4/CapSense.c ****         {
 2120              		.loc 1 2297 0
 2121 0020 B242     		cmp	r2, r6
 2122 0022 F8D3     		bcc	.L149
 2123 0024 01E0     		b	.L150
 2124              	.LVL238:
 2125              	.L151:
2304:Generated_Source\PSoC4/CapSense.c ****         }
2305:Generated_Source\PSoC4/CapSense.c **** 
2306:Generated_Source\PSoC4/CapSense.c ****         currentSensor = CapSense_rawDataIndex[currentWidget];
2307:Generated_Source\PSoC4/CapSense.c **** 
ARM GAS  C:\Users\Zeynep\AppData\Local\Temp\ccgAGQqu.s 			page 81


2308:Generated_Source\PSoC4/CapSense.c ****         while(currentSensor < lastSensor)
2309:Generated_Source\PSoC4/CapSense.c ****         {
2310:Generated_Source\PSoC4/CapSense.c ****             dataPtr[currentSensor] = (uint8)maxPerWidget;
 2126              		.loc 1 2310 0
 2127 0026 CC54     		strb	r4, [r1, r3]
2311:Generated_Source\PSoC4/CapSense.c ****             currentSensor++;
 2128              		.loc 1 2311 0
 2129 0028 0133     		adds	r3, r3, #1
 2130              	.LVL239:
 2131              	.L150:
2308:Generated_Source\PSoC4/CapSense.c ****         {
 2132              		.loc 1 2308 0
 2133 002a B342     		cmp	r3, r6
 2134 002c FBD3     		bcc	.L151
2289:Generated_Source\PSoC4/CapSense.c ****     {
 2135              		.loc 1 2289 0 discriminator 2
 2136 002e 0137     		adds	r7, r7, #1
 2137              	.LVL240:
 2138              	.L146:
2289:Generated_Source\PSoC4/CapSense.c ****     {
 2139              		.loc 1 2289 0 is_stmt 0 discriminator 1
 2140 0030 8742     		cmp	r7, r0
 2141 0032 E8D3     		bcc	.L152
2312:Generated_Source\PSoC4/CapSense.c ****         }
2313:Generated_Source\PSoC4/CapSense.c ****     }
2314:Generated_Source\PSoC4/CapSense.c **** }
 2142              		.loc 1 2314 0 is_stmt 1
 2143              		@ sp needed
 2144              	.LVL241:
 2145 0034 F0BD     		pop	{r4, r5, r6, r7, pc}
 2146              	.L155:
 2147 0036 C046     		.align	2
 2148              	.L154:
 2149 0038 00000000 		.word	CapSense_numberOfSensors
 2150 003c 00000000 		.word	CapSense_rawDataIndex
 2151              		.cfi_endproc
 2152              	.LFE71:
 2153              		.size	CapSense_NormalizeWidgets, .-CapSense_NormalizeWidgets
 2154              		.global	CapSense_prtDRTbl
 2155              		.global	CapSense_prtCfgTbl
 2156              		.global	CapSense_prtSelTbl
 2157              		.global	CapSense_widgetNumber
 2158              		.comm	CapSense_sampleClkDividerVal,5,4
 2159              		.comm	CapSense_senseClkDividerVal,5,4
 2160              		.global	CapSense_widgetResolution
 2161              		.comm	CapSense_compensationIDAC,5,4
 2162              		.comm	CapSense_modulationIDAC,5,4
 2163              		.global	CapSense_pinShiftTbl
 2164              		.global	CapSense_maskTable
 2165              		.global	CapSense_portTable
 2166              		.global	CapSense_pcTable
 2167              		.global	CapSense_sensorEnableMask
 2168              		.comm	CapSense_sensorEnableMaskBackup,1,4
 2169              		.comm	CapSense_unscannedSnsDriveMode,5,4
 2170              		.comm	CapSense_csdTrim1,1,1
 2171              		.global	CapSense_sensorRaw
 2172              		.global	CapSense_sensorIndex
ARM GAS  C:\Users\Zeynep\AppData\Local\Temp\ccgAGQqu.s 			page 82


 2173              		.global	CapSense_csdStatusVar
 2174              		.comm	CapSense_scanSpeedTbl,1,4
 2175              		.global	CapSense_lowLevelTuningDone
 2176              		.section	.rodata
 2177              		.align	2
 2178              		.set	.LANCHOR2,. + 0
 2179              		.type	CapSense_portTable, %object
 2180              		.size	CapSense_portTable, 5
 2181              	CapSense_portTable:
 2182 0000 01       		.byte	1
 2183 0001 01       		.byte	1
 2184 0002 01       		.byte	1
 2185 0003 01       		.byte	1
 2186 0004 01       		.byte	1
 2187 0005 000000   		.space	3
 2188              		.type	CapSense_pinShiftTbl, %object
 2189              		.size	CapSense_pinShiftTbl, 5
 2190              	CapSense_pinShiftTbl:
 2191 0008 01       		.byte	1
 2192 0009 02       		.byte	2
 2193 000a 03       		.byte	3
 2194 000b 04       		.byte	4
 2195 000c 05       		.byte	5
 2196 000d 000000   		.space	3
 2197              		.type	CapSense_prtSelTbl, %object
 2198              		.size	CapSense_prtSelTbl, 20
 2199              	CapSense_prtSelTbl:
 2200 0010 00000140 		.word	1073807360
 2201 0014 04000140 		.word	1073807364
 2202 0018 08000140 		.word	1073807368
 2203 001c 0C000140 		.word	1073807372
 2204 0020 10000140 		.word	1073807376
 2205              		.type	CapSense_prtCfgTbl, %object
 2206              		.size	CapSense_prtCfgTbl, 20
 2207              	CapSense_prtCfgTbl:
 2208 0024 08000440 		.word	1074003976
 2209 0028 08010440 		.word	1074004232
 2210 002c 08020440 		.word	1074004488
 2211 0030 08030440 		.word	1074004744
 2212 0034 08040440 		.word	1074005000
 2213              		.type	CapSense_prtDRTbl, %object
 2214              		.size	CapSense_prtDRTbl, 20
 2215              	CapSense_prtDRTbl:
 2216 0038 00000440 		.word	1074003968
 2217 003c 00010440 		.word	1074004224
 2218 0040 00020440 		.word	1074004480
 2219 0044 00030440 		.word	1074004736
 2220 0048 00040440 		.word	1074004992
 2221              		.type	CapSense_widgetNumber, %object
 2222              		.size	CapSense_widgetNumber, 5
 2223              	CapSense_widgetNumber:
 2224 004c 00000000 		.space	5
 2224      00
 2225 0051 000000   		.space	3
 2226              		.type	CapSense_maskTable, %object
 2227              		.size	CapSense_maskTable, 20
 2228              	CapSense_maskTable:
ARM GAS  C:\Users\Zeynep\AppData\Local\Temp\ccgAGQqu.s 			page 83


 2229 0054 02000000 		.word	2
 2230 0058 04000000 		.word	4
 2231 005c 08000000 		.word	8
 2232 0060 10000000 		.word	16
 2233 0064 20000000 		.word	32
 2234              		.data
 2235              		.align	2
 2236              		.set	.LANCHOR1,. + 0
 2237              		.type	CapSense_widgetResolution, %object
 2238              		.size	CapSense_widgetResolution, 4
 2239              	CapSense_widgetResolution:
 2240 0000 0000FF0F 		.word	268369920
 2241              		.type	CapSense_sensorEnableMask, %object
 2242              		.size	CapSense_sensorEnableMask, 1
 2243              	CapSense_sensorEnableMask:
 2244 0004 1F       		.byte	31
 2245 0005 000000   		.space	3
 2246              		.type	CapSense_pcTable, %object
 2247              		.size	CapSense_pcTable, 20
 2248              	CapSense_pcTable:
 2249 0008 08010440 		.word	1074004232
 2250 000c 08010440 		.word	1074004232
 2251 0010 08010440 		.word	1074004232
 2252 0014 08010440 		.word	1074004232
 2253 0018 08010440 		.word	1074004232
 2254              		.bss
 2255              		.align	2
 2256              		.set	.LANCHOR0,. + 0
 2257              		.type	CapSense_csdStatusVar, %object
 2258              		.size	CapSense_csdStatusVar, 1
 2259              	CapSense_csdStatusVar:
 2260 0000 00       		.space	1
 2261 0001 000000   		.space	3
 2262              		.type	CapSense_sensorRaw, %object
 2263              		.size	CapSense_sensorRaw, 10
 2264              	CapSense_sensorRaw:
 2265 0004 00000000 		.space	10
 2265      00000000 
 2265      0000
 2266              		.type	CapSense_sensorIndex, %object
 2267              		.size	CapSense_sensorIndex, 1
 2268              	CapSense_sensorIndex:
 2269 000e 00       		.space	1
 2270              		.type	CapSense_initVar.5388, %object
 2271              		.size	CapSense_initVar.5388, 1
 2272              	CapSense_initVar.5388:
 2273 000f 00       		.space	1
 2274              		.type	CapSense_lowLevelTuningDone, %object
 2275              		.size	CapSense_lowLevelTuningDone, 1
 2276              	CapSense_lowLevelTuningDone:
 2277 0010 00       		.space	1
 2278              		.text
 2279              	.Letext0:
 2280              		.file 2 "Generated_Source\\PSoC4\\cytypes.h"
 2281              		.file 3 "Generated_Source\\PSoC4\\CapSense_CSHL.h"
 2282              		.file 4 "Generated_Source\\PSoC4\\CyLib.h"
 2283              		.file 5 "Generated_Source\\PSoC4\\CapSense_SenseClk.h"
ARM GAS  C:\Users\Zeynep\AppData\Local\Temp\ccgAGQqu.s 			page 84


 2284              		.file 6 "Generated_Source\\PSoC4\\CapSense_SampleClk.h"
 2285              		.file 7 "Generated_Source\\PSoC4\\CapSense.h"
 2286              		.section	.debug_info,"",%progbits
 2287              	.Ldebug_info0:
 2288 0000 7E100000 		.4byte	0x107e
 2289 0004 0400     		.2byte	0x4
 2290 0006 00000000 		.4byte	.Ldebug_abbrev0
 2291 000a 04       		.byte	0x4
 2292 000b 01       		.uleb128 0x1
 2293 000c 2B030000 		.4byte	.LASF139
 2294 0010 0C       		.byte	0xc
 2295 0011 DC020000 		.4byte	.LASF140
 2296 0015 6B060000 		.4byte	.LASF141
 2297 0019 00000000 		.4byte	.Ldebug_ranges0+0
 2298 001d 00000000 		.4byte	0
 2299 0021 00000000 		.4byte	.Ldebug_line0
 2300 0025 02       		.uleb128 0x2
 2301 0026 01       		.byte	0x1
 2302 0027 06       		.byte	0x6
 2303 0028 520A0000 		.4byte	.LASF0
 2304 002c 02       		.uleb128 0x2
 2305 002d 01       		.byte	0x1
 2306 002e 08       		.byte	0x8
 2307 002f 30090000 		.4byte	.LASF1
 2308 0033 02       		.uleb128 0x2
 2309 0034 02       		.byte	0x2
 2310 0035 05       		.byte	0x5
 2311 0036 7C070000 		.4byte	.LASF2
 2312 003a 02       		.uleb128 0x2
 2313 003b 02       		.byte	0x2
 2314 003c 07       		.byte	0x7
 2315 003d 660A0000 		.4byte	.LASF3
 2316 0041 02       		.uleb128 0x2
 2317 0042 04       		.byte	0x4
 2318 0043 05       		.byte	0x5
 2319 0044 86070000 		.4byte	.LASF4
 2320 0048 02       		.uleb128 0x2
 2321 0049 04       		.byte	0x4
 2322 004a 07       		.byte	0x7
 2323 004b E7080000 		.4byte	.LASF5
 2324 004f 02       		.uleb128 0x2
 2325 0050 08       		.byte	0x8
 2326 0051 05       		.byte	0x5
 2327 0052 B7050000 		.4byte	.LASF6
 2328 0056 02       		.uleb128 0x2
 2329 0057 08       		.byte	0x8
 2330 0058 07       		.byte	0x7
 2331 0059 4D020000 		.4byte	.LASF7
 2332 005d 03       		.uleb128 0x3
 2333 005e 04       		.byte	0x4
 2334 005f 05       		.byte	0x5
 2335 0060 696E7400 		.ascii	"int\000"
 2336 0064 02       		.uleb128 0x2
 2337 0065 04       		.byte	0x4
 2338 0066 07       		.byte	0x7
 2339 0067 94000000 		.4byte	.LASF8
 2340 006b 04       		.uleb128 0x4
ARM GAS  C:\Users\Zeynep\AppData\Local\Temp\ccgAGQqu.s 			page 85


 2341 006c 850A0000 		.4byte	.LASF9
 2342 0070 02       		.byte	0x2
 2343 0071 FB01     		.2byte	0x1fb
 2344 0073 2C000000 		.4byte	0x2c
 2345 0077 04       		.uleb128 0x4
 2346 0078 25050000 		.4byte	.LASF10
 2347 007c 02       		.byte	0x2
 2348 007d FC01     		.2byte	0x1fc
 2349 007f 3A000000 		.4byte	0x3a
 2350 0083 04       		.uleb128 0x4
 2351 0084 64060000 		.4byte	.LASF11
 2352 0088 02       		.byte	0x2
 2353 0089 FD01     		.2byte	0x1fd
 2354 008b 48000000 		.4byte	0x48
 2355 008f 02       		.uleb128 0x2
 2356 0090 04       		.byte	0x4
 2357 0091 04       		.byte	0x4
 2358 0092 47020000 		.4byte	.LASF12
 2359 0096 02       		.uleb128 0x2
 2360 0097 08       		.byte	0x8
 2361 0098 04       		.byte	0x4
 2362 0099 8B0A0000 		.4byte	.LASF13
 2363 009d 02       		.uleb128 0x2
 2364 009e 01       		.byte	0x1
 2365 009f 08       		.byte	0x8
 2366 00a0 CD040000 		.4byte	.LASF14
 2367 00a4 04       		.uleb128 0x4
 2368 00a5 CD000000 		.4byte	.LASF15
 2369 00a9 02       		.byte	0x2
 2370 00aa A502     		.2byte	0x2a5
 2371 00ac B0000000 		.4byte	0xb0
 2372 00b0 05       		.uleb128 0x5
 2373 00b1 6B000000 		.4byte	0x6b
 2374 00b5 04       		.uleb128 0x4
 2375 00b6 CA060000 		.4byte	.LASF16
 2376 00ba 02       		.byte	0x2
 2377 00bb A702     		.2byte	0x2a7
 2378 00bd C1000000 		.4byte	0xc1
 2379 00c1 05       		.uleb128 0x5
 2380 00c2 83000000 		.4byte	0x83
 2381 00c6 02       		.uleb128 0x2
 2382 00c7 04       		.byte	0x4
 2383 00c8 07       		.byte	0x7
 2384 00c9 DE080000 		.4byte	.LASF17
 2385 00cd 02       		.uleb128 0x2
 2386 00ce 08       		.byte	0x8
 2387 00cf 04       		.byte	0x4
 2388 00d0 B3060000 		.4byte	.LASF18
 2389 00d4 06       		.uleb128 0x6
 2390 00d5 04       		.byte	0x4
 2391 00d6 6B000000 		.4byte	0x6b
 2392 00da 06       		.uleb128 0x6
 2393 00db 04       		.byte	0x4
 2394 00dc E0000000 		.4byte	0xe0
 2395 00e0 07       		.uleb128 0x7
 2396 00e1 6B000000 		.4byte	0x6b
 2397 00e5 08       		.uleb128 0x8
ARM GAS  C:\Users\Zeynep\AppData\Local\Temp\ccgAGQqu.s 			page 86


 2398 00e6 A5010000 		.4byte	.LASF19
 2399 00ea 01       		.byte	0x1
 2400 00eb E2       		.byte	0xe2
 2401 00ec 00000000 		.4byte	.LFB33
 2402 00f0 84000000 		.4byte	.LFE33-.LFB33
 2403 00f4 01       		.uleb128 0x1
 2404 00f5 9C       		.byte	0x9c
 2405 00f6 47010000 		.4byte	0x147
 2406 00fa 09       		.uleb128 0x9
 2407 00fb 790A0000 		.4byte	.LASF21
 2408 00ff 01       		.byte	0x1
 2409 0100 E4       		.byte	0xe4
 2410 0101 83000000 		.4byte	0x83
 2411 0105 00000000 		.4byte	.LLST0
 2412 0109 0A       		.uleb128 0xa
 2413 010a 4A000000 		.4byte	.LVL11
 2414 010e E60F0000 		.4byte	0xfe6
 2415 0112 1D010000 		.4byte	0x11d
 2416 0116 0B       		.uleb128 0xb
 2417 0117 01       		.uleb128 0x1
 2418 0118 50       		.byte	0x50
 2419 0119 02       		.uleb128 0x2
 2420 011a 74       		.byte	0x74
 2421 011b 00       		.sleb128 0
 2422 011c 00       		.byte	0
 2423 011d 0A       		.uleb128 0xa
 2424 011e 52000000 		.4byte	.LVL12
 2425 0122 F10F0000 		.4byte	0xff1
 2426 0126 31010000 		.4byte	0x131
 2427 012a 0B       		.uleb128 0xb
 2428 012b 01       		.uleb128 0x1
 2429 012c 50       		.byte	0x50
 2430 012d 02       		.uleb128 0x2
 2431 012e 74       		.byte	0x74
 2432 012f 00       		.sleb128 0
 2433 0130 00       		.byte	0
 2434 0131 0C       		.uleb128 0xc
 2435 0132 5A000000 		.4byte	.LVL13
 2436 0136 FC0F0000 		.4byte	0xffc
 2437 013a 0B       		.uleb128 0xb
 2438 013b 01       		.uleb128 0x1
 2439 013c 50       		.byte	0x50
 2440 013d 02       		.uleb128 0x2
 2441 013e 74       		.byte	0x74
 2442 013f 00       		.sleb128 0
 2443 0140 0B       		.uleb128 0xb
 2444 0141 01       		.uleb128 0x1
 2445 0142 51       		.byte	0x51
 2446 0143 01       		.uleb128 0x1
 2447 0144 33       		.byte	0x33
 2448 0145 00       		.byte	0
 2449 0146 00       		.byte	0
 2450 0147 0D       		.uleb128 0xd
 2451 0148 FE030000 		.4byte	.LASF20
 2452 014c 01       		.byte	0x1
 2453 014d 3701     		.2byte	0x137
 2454 014f 00000000 		.4byte	.LFB34
ARM GAS  C:\Users\Zeynep\AppData\Local\Temp\ccgAGQqu.s 			page 87


 2455 0153 3C000000 		.4byte	.LFE34-.LFB34
 2456 0157 01       		.uleb128 0x1
 2457 0158 9C       		.byte	0x9c
 2458 0159 D1010000 		.4byte	0x1d1
 2459 015d 0E       		.uleb128 0xe
 2460 015e 790A0000 		.4byte	.LASF21
 2461 0162 01       		.byte	0x1
 2462 0163 3901     		.2byte	0x139
 2463 0165 83000000 		.4byte	0x83
 2464 0169 4B000000 		.4byte	.LLST1
 2465 016d 0F       		.uleb128 0xf
 2466 016e 06000000 		.4byte	.LVL14
 2467 0172 07100000 		.4byte	0x1007
 2468 0176 0F       		.uleb128 0xf
 2469 0177 0A000000 		.4byte	.LVL15
 2470 017b 12100000 		.4byte	0x1012
 2471 017f 0A       		.uleb128 0xa
 2472 0180 12000000 		.4byte	.LVL16
 2473 0184 1D100000 		.4byte	0x101d
 2474 0188 97010000 		.4byte	0x197
 2475 018c 0B       		.uleb128 0xb
 2476 018d 01       		.uleb128 0x1
 2477 018e 50       		.byte	0x50
 2478 018f 01       		.uleb128 0x1
 2479 0190 30       		.byte	0x30
 2480 0191 0B       		.uleb128 0xb
 2481 0192 01       		.uleb128 0x1
 2482 0193 51       		.byte	0x51
 2483 0194 01       		.uleb128 0x1
 2484 0195 30       		.byte	0x30
 2485 0196 00       		.byte	0
 2486 0197 0A       		.uleb128 0xa
 2487 0198 1A000000 		.4byte	.LVL17
 2488 019c 28100000 		.4byte	0x1028
 2489 01a0 AF010000 		.4byte	0x1af
 2490 01a4 0B       		.uleb128 0xb
 2491 01a5 01       		.uleb128 0x1
 2492 01a6 50       		.byte	0x50
 2493 01a7 01       		.uleb128 0x1
 2494 01a8 30       		.byte	0x30
 2495 01a9 0B       		.uleb128 0xb
 2496 01aa 01       		.uleb128 0x1
 2497 01ab 51       		.byte	0x51
 2498 01ac 01       		.uleb128 0x1
 2499 01ad 30       		.byte	0x30
 2500 01ae 00       		.byte	0
 2501 01af 0F       		.uleb128 0xf
 2502 01b0 1E000000 		.4byte	.LVL18
 2503 01b4 33100000 		.4byte	0x1033
 2504 01b8 0F       		.uleb128 0xf
 2505 01b9 22000000 		.4byte	.LVL19
 2506 01bd 3E100000 		.4byte	0x103e
 2507 01c1 0C       		.uleb128 0xc
 2508 01c2 32000000 		.4byte	.LVL22
 2509 01c6 49100000 		.4byte	0x1049
 2510 01ca 0B       		.uleb128 0xb
 2511 01cb 01       		.uleb128 0x1
ARM GAS  C:\Users\Zeynep\AppData\Local\Temp\ccgAGQqu.s 			page 88


 2512 01cc 50       		.byte	0x50
 2513 01cd 01       		.uleb128 0x1
 2514 01ce 3F       		.byte	0x3f
 2515 01cf 00       		.byte	0
 2516 01d0 00       		.byte	0
 2517 01d1 0D       		.uleb128 0xd
 2518 01d2 DF010000 		.4byte	.LASF22
 2519 01d6 01       		.byte	0x1
 2520 01d7 CE01     		.2byte	0x1ce
 2521 01d9 00000000 		.4byte	.LFB36
 2522 01dd 2C000000 		.4byte	.LFE36-.LFB36
 2523 01e1 01       		.uleb128 0x1
 2524 01e2 9C       		.byte	0x9c
 2525 01e3 0D020000 		.4byte	0x20d
 2526 01e7 0A       		.uleb128 0xa
 2527 01e8 08000000 		.4byte	.LVL23
 2528 01ec E60F0000 		.4byte	0xfe6
 2529 01f0 FA010000 		.4byte	0x1fa
 2530 01f4 0B       		.uleb128 0xb
 2531 01f5 01       		.uleb128 0x1
 2532 01f6 50       		.byte	0x50
 2533 01f7 01       		.uleb128 0x1
 2534 01f8 3F       		.byte	0x3f
 2535 01f9 00       		.byte	0
 2536 01fa 0F       		.uleb128 0xf
 2537 01fb 1E000000 		.4byte	.LVL24
 2538 01ff 07100000 		.4byte	0x1007
 2539 0203 0F       		.uleb128 0xf
 2540 0204 22000000 		.4byte	.LVL25
 2541 0208 12100000 		.4byte	0x1012
 2542 020c 00       		.byte	0
 2543 020d 10       		.uleb128 0x10
 2544 020e 3E010000 		.4byte	.LASF54
 2545 0212 01       		.byte	0x1
 2546 0213 C902     		.2byte	0x2c9
 2547 0215 83000000 		.4byte	0x83
 2548 0219 00000000 		.4byte	.LFB41
 2549 021d 10000000 		.4byte	.LFE41-.LFB41
 2550 0221 01       		.uleb128 0x1
 2551 0222 9C       		.byte	0x9c
 2552 0223 11       		.uleb128 0x11
 2553 0224 50090000 		.4byte	.LASF29
 2554 0228 01       		.byte	0x1
 2555 0229 E702     		.2byte	0x2e7
 2556 022b 77000000 		.4byte	0x77
 2557 022f 00000000 		.4byte	.LFB42
 2558 0233 10000000 		.4byte	.LFE42-.LFB42
 2559 0237 01       		.uleb128 0x1
 2560 0238 9C       		.byte	0x9c
 2561 0239 4E020000 		.4byte	0x24e
 2562 023d 12       		.uleb128 0x12
 2563 023e B3040000 		.4byte	.LASF24
 2564 0242 01       		.byte	0x1
 2565 0243 E702     		.2byte	0x2e7
 2566 0245 83000000 		.4byte	0x83
 2567 0249 5E000000 		.4byte	.LLST2
 2568 024d 00       		.byte	0
ARM GAS  C:\Users\Zeynep\AppData\Local\Temp\ccgAGQqu.s 			page 89


 2569 024e 0D       		.uleb128 0xd
 2570 024f CA030000 		.4byte	.LASF23
 2571 0253 01       		.byte	0x1
 2572 0254 0203     		.2byte	0x302
 2573 0256 00000000 		.4byte	.LFB43
 2574 025a 10000000 		.4byte	.LFE43-.LFB43
 2575 025e 01       		.uleb128 0x1
 2576 025f 9C       		.byte	0x9c
 2577 0260 83020000 		.4byte	0x283
 2578 0264 12       		.uleb128 0x12
 2579 0265 B3040000 		.4byte	.LASF24
 2580 0269 01       		.byte	0x1
 2581 026a 0203     		.2byte	0x302
 2582 026c 83000000 		.4byte	0x83
 2583 0270 7F000000 		.4byte	.LLST3
 2584 0274 13       		.uleb128 0x13
 2585 0275 25030000 		.4byte	.LASF25
 2586 0279 01       		.byte	0x1
 2587 027a 0203     		.2byte	0x302
 2588 027c 77000000 		.4byte	0x77
 2589 0280 01       		.uleb128 0x1
 2590 0281 51       		.byte	0x51
 2591 0282 00       		.byte	0
 2592 0283 0D       		.uleb128 0xd
 2593 0284 32040000 		.4byte	.LASF26
 2594 0288 01       		.byte	0x1
 2595 0289 2C03     		.2byte	0x32c
 2596 028b 00000000 		.4byte	.LFB44
 2597 028f 0C000000 		.4byte	.LFE44-.LFB44
 2598 0293 01       		.uleb128 0x1
 2599 0294 9C       		.byte	0x9c
 2600 0295 B8020000 		.4byte	0x2b8
 2601 0299 12       		.uleb128 0x12
 2602 029a 79020000 		.4byte	.LASF27
 2603 029e 01       		.byte	0x1
 2604 029f 2C03     		.2byte	0x32c
 2605 02a1 83000000 		.4byte	0x83
 2606 02a5 A0000000 		.4byte	.LLST4
 2607 02a9 13       		.uleb128 0x13
 2608 02aa 3B050000 		.4byte	.LASF28
 2609 02ae 01       		.byte	0x1
 2610 02af 2C03     		.2byte	0x32c
 2611 02b1 83000000 		.4byte	0x83
 2612 02b5 01       		.uleb128 0x1
 2613 02b6 51       		.byte	0x51
 2614 02b7 00       		.byte	0
 2615 02b8 11       		.uleb128 0x11
 2616 02b9 C1020000 		.4byte	.LASF30
 2617 02bd 01       		.byte	0x1
 2618 02be 5503     		.2byte	0x355
 2619 02c0 83000000 		.4byte	0x83
 2620 02c4 00000000 		.4byte	.LFB45
 2621 02c8 0C000000 		.4byte	.LFE45-.LFB45
 2622 02cc 01       		.uleb128 0x1
 2623 02cd 9C       		.byte	0x9c
 2624 02ce E3020000 		.4byte	0x2e3
 2625 02d2 12       		.uleb128 0x12
ARM GAS  C:\Users\Zeynep\AppData\Local\Temp\ccgAGQqu.s 			page 90


 2626 02d3 79020000 		.4byte	.LASF27
 2627 02d7 01       		.byte	0x1
 2628 02d8 5503     		.2byte	0x355
 2629 02da 83000000 		.4byte	0x83
 2630 02de C1000000 		.4byte	.LLST5
 2631 02e2 00       		.byte	0
 2632 02e3 0D       		.uleb128 0xd
 2633 02e4 F3050000 		.4byte	.LASF31
 2634 02e8 01       		.byte	0x1
 2635 02e9 0E04     		.2byte	0x40e
 2636 02eb 00000000 		.4byte	.LFB47
 2637 02ef 48000000 		.4byte	.LFE47-.LFB47
 2638 02f3 01       		.uleb128 0x1
 2639 02f4 9C       		.byte	0x9c
 2640 02f5 6C030000 		.4byte	0x36c
 2641 02f9 12       		.uleb128 0x12
 2642 02fa B3040000 		.4byte	.LASF24
 2643 02fe 01       		.byte	0x1
 2644 02ff 0E04     		.2byte	0x40e
 2645 0301 83000000 		.4byte	0x83
 2646 0305 E2000000 		.4byte	.LLST6
 2647 0309 0E       		.uleb128 0xe
 2648 030a 4E010000 		.4byte	.LASF32
 2649 030e 01       		.byte	0x1
 2650 030f 1004     		.2byte	0x410
 2651 0311 6B000000 		.4byte	0x6b
 2652 0315 03010000 		.4byte	.LLST7
 2653 0319 0E       		.uleb128 0xe
 2654 031a 00010000 		.4byte	.LASF33
 2655 031e 01       		.byte	0x1
 2656 031f 1104     		.2byte	0x411
 2657 0321 6B000000 		.4byte	0x6b
 2658 0325 68010000 		.4byte	.LLST8
 2659 0329 0E       		.uleb128 0xe
 2660 032a BE000000 		.4byte	.LASF34
 2661 032e 01       		.byte	0x1
 2662 032f 1204     		.2byte	0x412
 2663 0331 6B000000 		.4byte	0x6b
 2664 0335 AA010000 		.4byte	.LLST9
 2665 0339 0E       		.uleb128 0xe
 2666 033a B9030000 		.4byte	.LASF35
 2667 033e 01       		.byte	0x1
 2668 033f 1304     		.2byte	0x413
 2669 0341 83000000 		.4byte	0x83
 2670 0345 BD010000 		.4byte	.LLST10
 2671 0349 0E       		.uleb128 0xe
 2672 034a F9080000 		.4byte	.LASF36
 2673 034e 01       		.byte	0x1
 2674 034f 1404     		.2byte	0x414
 2675 0351 83000000 		.4byte	0x83
 2676 0355 E6010000 		.4byte	.LLST11
 2677 0359 0F       		.uleb128 0xf
 2678 035a 18000000 		.4byte	.LVL39
 2679 035e 54100000 		.4byte	0x1054
 2680 0362 0F       		.uleb128 0xf
 2681 0363 40000000 		.4byte	.LVL46
 2682 0367 5F100000 		.4byte	0x105f
ARM GAS  C:\Users\Zeynep\AppData\Local\Temp\ccgAGQqu.s 			page 91


 2683 036b 00       		.byte	0
 2684 036c 0D       		.uleb128 0xd
 2685 036d 8E010000 		.4byte	.LASF37
 2686 0371 01       		.byte	0x1
 2687 0372 4304     		.2byte	0x443
 2688 0374 00000000 		.4byte	.LFB48
 2689 0378 70000000 		.4byte	.LFE48-.LFB48
 2690 037c 01       		.uleb128 0x1
 2691 037d 9C       		.byte	0x9c
 2692 037e 15040000 		.4byte	0x415
 2693 0382 12       		.uleb128 0x12
 2694 0383 B3040000 		.4byte	.LASF24
 2695 0387 01       		.byte	0x1
 2696 0388 4304     		.2byte	0x443
 2697 038a 83000000 		.4byte	0x83
 2698 038e 28020000 		.4byte	.LLST12
 2699 0392 0E       		.uleb128 0xe
 2700 0393 BE000000 		.4byte	.LASF34
 2701 0397 01       		.byte	0x1
 2702 0398 4504     		.2byte	0x445
 2703 039a 6B000000 		.4byte	0x6b
 2704 039e 49020000 		.4byte	.LLST13
 2705 03a2 0E       		.uleb128 0xe
 2706 03a3 B9030000 		.4byte	.LASF35
 2707 03a7 01       		.byte	0x1
 2708 03a8 4604     		.2byte	0x446
 2709 03aa 83000000 		.4byte	0x83
 2710 03ae 5C020000 		.4byte	.LLST14
 2711 03b2 0E       		.uleb128 0xe
 2712 03b3 F9080000 		.4byte	.LASF36
 2713 03b7 01       		.byte	0x1
 2714 03b8 4804     		.2byte	0x448
 2715 03ba 83000000 		.4byte	0x83
 2716 03be 85020000 		.4byte	.LLST15
 2717 03c2 0E       		.uleb128 0xe
 2718 03c3 00010000 		.4byte	.LASF33
 2719 03c7 01       		.byte	0x1
 2720 03c8 4904     		.2byte	0x449
 2721 03ca 6B000000 		.4byte	0x6b
 2722 03ce E0020000 		.4byte	.LLST16
 2723 03d2 0E       		.uleb128 0xe
 2724 03d3 4E010000 		.4byte	.LASF32
 2725 03d7 01       		.byte	0x1
 2726 03d8 4A04     		.2byte	0x44a
 2727 03da 6B000000 		.4byte	0x6b
 2728 03de 1A030000 		.4byte	.LLST17
 2729 03e2 0E       		.uleb128 0xe
 2730 03e3 BD010000 		.4byte	.LASF38
 2731 03e7 01       		.byte	0x1
 2732 03e8 4C04     		.2byte	0x44c
 2733 03ea 83000000 		.4byte	0x83
 2734 03ee 69030000 		.4byte	.LLST18
 2735 03f2 0E       		.uleb128 0xe
 2736 03f3 0E040000 		.4byte	.LASF39
 2737 03f7 01       		.byte	0x1
 2738 03f8 4D04     		.2byte	0x44d
 2739 03fa 83000000 		.4byte	0x83
ARM GAS  C:\Users\Zeynep\AppData\Local\Temp\ccgAGQqu.s 			page 92


 2740 03fe 88030000 		.4byte	.LLST19
 2741 0402 0F       		.uleb128 0xf
 2742 0403 3C000000 		.4byte	.LVL56
 2743 0407 54100000 		.4byte	0x1054
 2744 040b 0F       		.uleb128 0xf
 2745 040c 5A000000 		.4byte	.LVL63
 2746 0410 5F100000 		.4byte	0x105f
 2747 0414 00       		.byte	0
 2748 0415 0D       		.uleb128 0xd
 2749 0416 00020000 		.4byte	.LASF40
 2750 041a 01       		.byte	0x1
 2751 041b 7003     		.2byte	0x370
 2752 041d 00000000 		.4byte	.LFB46
 2753 0421 14000000 		.4byte	.LFE46-.LFB46
 2754 0425 01       		.uleb128 0x1
 2755 0426 9C       		.byte	0x9c
 2756 0427 4C040000 		.4byte	0x44c
 2757 042b 0E       		.uleb128 0xe
 2758 042c AA060000 		.4byte	.LASF41
 2759 0430 01       		.byte	0x1
 2760 0431 7203     		.2byte	0x372
 2761 0433 83000000 		.4byte	0x83
 2762 0437 9B030000 		.4byte	.LLST20
 2763 043b 0C       		.uleb128 0xc
 2764 043c 0C000000 		.4byte	.LVL69
 2765 0440 6C030000 		.4byte	0x36c
 2766 0444 0B       		.uleb128 0xb
 2767 0445 01       		.uleb128 0x1
 2768 0446 50       		.byte	0x50
 2769 0447 02       		.uleb128 0x2
 2770 0448 74       		.byte	0x74
 2771 0449 00       		.sleb128 0
 2772 044a 00       		.byte	0
 2773 044b 00       		.byte	0
 2774 044c 0D       		.uleb128 0xd
 2775 044d 63070000 		.4byte	.LASF42
 2776 0451 01       		.byte	0x1
 2777 0452 0D05     		.2byte	0x50d
 2778 0454 00000000 		.4byte	.LFB51
 2779 0458 24000000 		.4byte	.LFE51-.LFB51
 2780 045c 01       		.uleb128 0x1
 2781 045d 9C       		.byte	0x9c
 2782 045e B1040000 		.4byte	0x4b1
 2783 0462 12       		.uleb128 0x12
 2784 0463 AF0A0000 		.4byte	.LASF43
 2785 0467 01       		.byte	0x1
 2786 0468 0D05     		.2byte	0x50d
 2787 046a 83000000 		.4byte	0x83
 2788 046e BA030000 		.4byte	.LLST21
 2789 0472 12       		.uleb128 0x12
 2790 0473 A0060000 		.4byte	.LASF44
 2791 0477 01       		.byte	0x1
 2792 0478 0D05     		.2byte	0x50d
 2793 047a 83000000 		.4byte	0x83
 2794 047e DB030000 		.4byte	.LLST22
 2795 0482 12       		.uleb128 0x12
 2796 0483 1E070000 		.4byte	.LASF45
ARM GAS  C:\Users\Zeynep\AppData\Local\Temp\ccgAGQqu.s 			page 93


 2797 0487 01       		.byte	0x1
 2798 0488 0D05     		.2byte	0x50d
 2799 048a 83000000 		.4byte	0x83
 2800 048e FC030000 		.4byte	.LLST23
 2801 0492 14       		.uleb128 0x14
 2802 0493 4E010000 		.4byte	.LASF32
 2803 0497 01       		.byte	0x1
 2804 0498 0F05     		.2byte	0x50f
 2805 049a 83000000 		.4byte	0x83
 2806 049e 01       		.uleb128 0x1
 2807 049f 51       		.byte	0x51
 2808 04a0 0E       		.uleb128 0xe
 2809 04a1 B9030000 		.4byte	.LASF35
 2810 04a5 01       		.byte	0x1
 2811 04a6 1005     		.2byte	0x510
 2812 04a8 83000000 		.4byte	0x83
 2813 04ac 1D040000 		.4byte	.LLST24
 2814 04b0 00       		.byte	0
 2815 04b1 0D       		.uleb128 0xd
 2816 04b2 B8070000 		.4byte	.LASF46
 2817 04b6 01       		.byte	0x1
 2818 04b7 9004     		.2byte	0x490
 2819 04b9 00000000 		.4byte	.LFB49
 2820 04bd 30000000 		.4byte	.LFE49-.LFB49
 2821 04c1 01       		.uleb128 0x1
 2822 04c2 9C       		.byte	0x9c
 2823 04c3 58050000 		.4byte	0x558
 2824 04c7 12       		.uleb128 0x12
 2825 04c8 AF0A0000 		.4byte	.LASF43
 2826 04cc 01       		.byte	0x1
 2827 04cd 9004     		.2byte	0x490
 2828 04cf 83000000 		.4byte	0x83
 2829 04d3 3B040000 		.4byte	.LLST25
 2830 04d7 0E       		.uleb128 0xe
 2831 04d8 920A0000 		.4byte	.LASF47
 2832 04dc 01       		.byte	0x1
 2833 04dd 9204     		.2byte	0x492
 2834 04df 6B000000 		.4byte	0x6b
 2835 04e3 67040000 		.4byte	.LLST26
 2836 04e7 0E       		.uleb128 0xe
 2837 04e8 61040000 		.4byte	.LASF48
 2838 04ec 01       		.byte	0x1
 2839 04ed 9704     		.2byte	0x497
 2840 04ef 83000000 		.4byte	0x83
 2841 04f3 91040000 		.4byte	.LLST27
 2842 04f7 0E       		.uleb128 0xe
 2843 04f8 60050000 		.4byte	.LASF49
 2844 04fc 01       		.byte	0x1
 2845 04fd 9804     		.2byte	0x498
 2846 04ff 83000000 		.4byte	0x83
 2847 0503 D4040000 		.4byte	.LLST28
 2848 0507 0A       		.uleb128 0xa
 2849 0508 16000000 		.4byte	.LVL84
 2850 050c 4C040000 		.4byte	0x44c
 2851 0510 3D050000 		.4byte	0x53d
 2852 0514 0B       		.uleb128 0xb
 2853 0515 01       		.uleb128 0x1
ARM GAS  C:\Users\Zeynep\AppData\Local\Temp\ccgAGQqu.s 			page 94


 2854 0516 50       		.byte	0x50
 2855 0517 02       		.uleb128 0x2
 2856 0518 75       		.byte	0x75
 2857 0519 00       		.sleb128 0
 2858 051a 0B       		.uleb128 0xb
 2859 051b 01       		.uleb128 0x1
 2860 051c 51       		.byte	0x51
 2861 051d 0D       		.uleb128 0xd
 2862 051e 74       		.byte	0x74
 2863 051f 00       		.sleb128 0
 2864 0520 03       		.byte	0x3
 2865 0521 08000000 		.4byte	.LANCHOR2+8
 2866 0525 22       		.byte	0x22
 2867 0526 94       		.byte	0x94
 2868 0527 01       		.byte	0x1
 2869 0528 08       		.byte	0x8
 2870 0529 FF       		.byte	0xff
 2871 052a 1A       		.byte	0x1a
 2872 052b 0B       		.uleb128 0xb
 2873 052c 01       		.uleb128 0x1
 2874 052d 52       		.byte	0x52
 2875 052e 0D       		.uleb128 0xd
 2876 052f 74       		.byte	0x74
 2877 0530 00       		.sleb128 0
 2878 0531 03       		.byte	0x3
 2879 0532 00000000 		.4byte	.LANCHOR2
 2880 0536 22       		.byte	0x22
 2881 0537 94       		.byte	0x94
 2882 0538 01       		.byte	0x1
 2883 0539 08       		.byte	0x8
 2884 053a FF       		.byte	0xff
 2885 053b 1A       		.byte	0x1a
 2886 053c 00       		.byte	0
 2887 053d 0C       		.uleb128 0xc
 2888 053e 28000000 		.4byte	.LVL87
 2889 0542 4C040000 		.4byte	0x44c
 2890 0546 0B       		.uleb128 0xb
 2891 0547 01       		.uleb128 0x1
 2892 0548 50       		.byte	0x50
 2893 0549 02       		.uleb128 0x2
 2894 054a 75       		.byte	0x75
 2895 054b 00       		.sleb128 0
 2896 054c 0B       		.uleb128 0xb
 2897 054d 01       		.uleb128 0x1
 2898 054e 51       		.byte	0x51
 2899 054f 01       		.uleb128 0x1
 2900 0550 32       		.byte	0x32
 2901 0551 0B       		.uleb128 0xb
 2902 0552 01       		.uleb128 0x1
 2903 0553 52       		.byte	0x52
 2904 0554 01       		.uleb128 0x1
 2905 0555 34       		.byte	0x34
 2906 0556 00       		.byte	0
 2907 0557 00       		.byte	0
 2908 0558 0D       		.uleb128 0xd
 2909 0559 D0060000 		.4byte	.LASF50
 2910 055d 01       		.byte	0x1
ARM GAS  C:\Users\Zeynep\AppData\Local\Temp\ccgAGQqu.s 			page 95


 2911 055e D904     		.2byte	0x4d9
 2912 0560 00000000 		.4byte	.LFB50
 2913 0564 24000000 		.4byte	.LFE50-.LFB50
 2914 0568 01       		.uleb128 0x1
 2915 0569 9C       		.byte	0x9c
 2916 056a 8E050000 		.4byte	0x58e
 2917 056e 0E       		.uleb128 0xe
 2918 056f B9030000 		.4byte	.LASF35
 2919 0573 01       		.byte	0x1
 2920 0574 DB04     		.2byte	0x4db
 2921 0576 83000000 		.4byte	0x83
 2922 057a 17050000 		.4byte	.LLST29
 2923 057e 0C       		.uleb128 0xc
 2924 057f 08000000 		.4byte	.LVL90
 2925 0583 B1040000 		.4byte	0x4b1
 2926 0587 0B       		.uleb128 0xb
 2927 0588 01       		.uleb128 0x1
 2928 0589 50       		.byte	0x50
 2929 058a 01       		.uleb128 0x1
 2930 058b 30       		.byte	0x30
 2931 058c 00       		.byte	0
 2932 058d 00       		.byte	0
 2933 058e 0D       		.uleb128 0xd
 2934 058f 28020000 		.4byte	.LASF51
 2935 0593 01       		.byte	0x1
 2936 0594 5306     		.2byte	0x653
 2937 0596 00000000 		.4byte	.LFB54
 2938 059a 34000000 		.4byte	.LFE54-.LFB54
 2939 059e 01       		.uleb128 0x1
 2940 059f 9C       		.byte	0x9c
 2941 05a0 D5050000 		.4byte	0x5d5
 2942 05a4 12       		.uleb128 0x12
 2943 05a5 A0060000 		.4byte	.LASF44
 2944 05a9 01       		.byte	0x1
 2945 05aa 5306     		.2byte	0x653
 2946 05ac 83000000 		.4byte	0x83
 2947 05b0 35050000 		.4byte	.LLST30
 2948 05b4 12       		.uleb128 0x12
 2949 05b5 1E070000 		.4byte	.LASF45
 2950 05b9 01       		.byte	0x1
 2951 05ba 5306     		.2byte	0x653
 2952 05bc 83000000 		.4byte	0x83
 2953 05c0 56050000 		.4byte	.LLST31
 2954 05c4 0E       		.uleb128 0xe
 2955 05c5 790A0000 		.4byte	.LASF21
 2956 05c9 01       		.byte	0x1
 2957 05ca 5506     		.2byte	0x655
 2958 05cc 83000000 		.4byte	0x83
 2959 05d0 77050000 		.4byte	.LLST32
 2960 05d4 00       		.byte	0
 2961 05d5 0D       		.uleb128 0xd
 2962 05d6 80020000 		.4byte	.LASF52
 2963 05da 01       		.byte	0x1
 2964 05db 7606     		.2byte	0x676
 2965 05dd 00000000 		.4byte	.LFB55
 2966 05e1 18000000 		.4byte	.LFE55-.LFB55
 2967 05e5 01       		.uleb128 0x1
ARM GAS  C:\Users\Zeynep\AppData\Local\Temp\ccgAGQqu.s 			page 96


 2968 05e6 9C       		.byte	0x9c
 2969 05e7 0C060000 		.4byte	0x60c
 2970 05eb 12       		.uleb128 0x12
 2971 05ec 8F070000 		.4byte	.LASF53
 2972 05f0 01       		.byte	0x1
 2973 05f1 7606     		.2byte	0x676
 2974 05f3 83000000 		.4byte	0x83
 2975 05f7 A0050000 		.4byte	.LLST33
 2976 05fb 0E       		.uleb128 0xe
 2977 05fc 790A0000 		.4byte	.LASF21
 2978 0600 01       		.byte	0x1
 2979 0601 7806     		.2byte	0x678
 2980 0603 83000000 		.4byte	0x83
 2981 0607 D2050000 		.4byte	.LLST34
 2982 060b 00       		.byte	0
 2983 060c 10       		.uleb128 0x10
 2984 060d 95070000 		.4byte	.LASF55
 2985 0611 01       		.byte	0x1
 2986 0612 9A06     		.2byte	0x69a
 2987 0614 83000000 		.4byte	0x83
 2988 0618 00000000 		.4byte	.LFB56
 2989 061c 1C000000 		.4byte	.LFE56-.LFB56
 2990 0620 01       		.uleb128 0x1
 2991 0621 9C       		.byte	0x9c
 2992 0622 11       		.uleb128 0x11
 2993 0623 97090000 		.4byte	.LASF56
 2994 0627 01       		.byte	0x1
 2995 0628 B606     		.2byte	0x6b6
 2996 062a 83000000 		.4byte	0x83
 2997 062e 00000000 		.4byte	.LFB57
 2998 0632 18000000 		.4byte	.LFE57-.LFB57
 2999 0636 01       		.uleb128 0x1
 3000 0637 9C       		.byte	0x9c
 3001 0638 7B060000 		.4byte	0x67b
 3002 063c 12       		.uleb128 0x12
 3003 063d F6040000 		.4byte	.LASF57
 3004 0641 01       		.byte	0x1
 3005 0642 B606     		.2byte	0x6b6
 3006 0644 DA000000 		.4byte	0xda
 3007 0648 F0050000 		.4byte	.LLST35
 3008 064c 12       		.uleb128 0x12
 3009 064d B90A0000 		.4byte	.LASF58
 3010 0651 01       		.byte	0x1
 3011 0652 B606     		.2byte	0x6b6
 3012 0654 83000000 		.4byte	0x83
 3013 0658 2A060000 		.4byte	.LLST36
 3014 065c 0E       		.uleb128 0xe
 3015 065d 2B040000 		.4byte	.LASF59
 3016 0661 01       		.byte	0x1
 3017 0662 B806     		.2byte	0x6b8
 3018 0664 83000000 		.4byte	0x83
 3019 0668 4B060000 		.4byte	.LLST37
 3020 066c 14       		.uleb128 0x14
 3021 066d 17090000 		.4byte	.LASF60
 3022 0671 01       		.byte	0x1
 3023 0672 B906     		.2byte	0x6b9
 3024 0674 6B000000 		.4byte	0x6b
ARM GAS  C:\Users\Zeynep\AppData\Local\Temp\ccgAGQqu.s 			page 97


 3025 0678 01       		.uleb128 0x1
 3026 0679 53       		.byte	0x53
 3027 067a 00       		.byte	0
 3028 067b 11       		.uleb128 0x11
 3029 067c FC040000 		.4byte	.LASF61
 3030 0680 01       		.byte	0x1
 3031 0681 F401     		.2byte	0x1f4
 3032 0683 6B000000 		.4byte	0x6b
 3033 0687 00000000 		.4byte	.LFB37
 3034 068b 24000000 		.4byte	.LFE37-.LFB37
 3035 068f 01       		.uleb128 0x1
 3036 0690 9C       		.byte	0x9c
 3037 0691 CF060000 		.4byte	0x6cf
 3038 0695 12       		.uleb128 0x12
 3039 0696 AA060000 		.4byte	.LASF41
 3040 069a 01       		.byte	0x1
 3041 069b F401     		.2byte	0x1f4
 3042 069d 6B000000 		.4byte	0x6b
 3043 06a1 6E060000 		.4byte	.LLST38
 3044 06a5 0E       		.uleb128 0xe
 3045 06a6 C5050000 		.4byte	.LASF62
 3046 06aa 01       		.byte	0x1
 3047 06ab F601     		.2byte	0x1f6
 3048 06ad 83000000 		.4byte	0x83
 3049 06b1 A2060000 		.4byte	.LLST39
 3050 06b5 0C       		.uleb128 0xc
 3051 06b6 16000000 		.4byte	.LVL117
 3052 06ba 22060000 		.4byte	0x622
 3053 06be 0B       		.uleb128 0xb
 3054 06bf 01       		.uleb128 0x1
 3055 06c0 50       		.byte	0x50
 3056 06c1 05       		.uleb128 0x5
 3057 06c2 03       		.byte	0x3
 3058 06c3 04000000 		.4byte	.LANCHOR1+4
 3059 06c7 0B       		.uleb128 0xb
 3060 06c8 01       		.uleb128 0x1
 3061 06c9 51       		.byte	0x51
 3062 06ca 02       		.uleb128 0x2
 3063 06cb 74       		.byte	0x74
 3064 06cc 00       		.sleb128 0
 3065 06cd 00       		.byte	0
 3066 06ce 00       		.byte	0
 3067 06cf 0D       		.uleb128 0xd
 3068 06d0 1A040000 		.4byte	.LASF63
 3069 06d4 01       		.byte	0x1
 3070 06d5 3105     		.2byte	0x531
 3071 06d7 00000000 		.4byte	.LFB52
 3072 06db CC000000 		.4byte	.LFE52-.LFB52
 3073 06df 01       		.uleb128 0x1
 3074 06e0 9C       		.byte	0x9c
 3075 06e1 EF070000 		.4byte	0x7ef
 3076 06e5 12       		.uleb128 0x12
 3077 06e6 B3040000 		.4byte	.LASF24
 3078 06ea 01       		.byte	0x1
 3079 06eb 3105     		.2byte	0x531
 3080 06ed 83000000 		.4byte	0x83
 3081 06f1 B5060000 		.4byte	.LLST40
ARM GAS  C:\Users\Zeynep\AppData\Local\Temp\ccgAGQqu.s 			page 98


 3082 06f5 0E       		.uleb128 0xe
 3083 06f6 79020000 		.4byte	.LASF27
 3084 06fa 01       		.byte	0x1
 3085 06fb 3305     		.2byte	0x533
 3086 06fd 6B000000 		.4byte	0x6b
 3087 0701 EC060000 		.4byte	.LLST41
 3088 0705 0E       		.uleb128 0xe
 3089 0706 BE000000 		.4byte	.LASF34
 3090 070a 01       		.byte	0x1
 3091 070b 3405     		.2byte	0x534
 3092 070d 6B000000 		.4byte	0x6b
 3093 0711 5D070000 		.4byte	.LLST42
 3094 0715 0E       		.uleb128 0xe
 3095 0716 790A0000 		.4byte	.LASF21
 3096 071a 01       		.byte	0x1
 3097 071b 3505     		.2byte	0x535
 3098 071d 83000000 		.4byte	0x83
 3099 0721 70070000 		.4byte	.LLST43
 3100 0725 0E       		.uleb128 0xe
 3101 0726 3E090000 		.4byte	.LASF64
 3102 072a 01       		.byte	0x1
 3103 072b 3605     		.2byte	0x536
 3104 072d 83000000 		.4byte	0x83
 3105 0731 99070000 		.4byte	.LLST44
 3106 0735 0E       		.uleb128 0xe
 3107 0736 9C0A0000 		.4byte	.LASF65
 3108 073a 01       		.byte	0x1
 3109 073b 3F05     		.2byte	0x53f
 3110 073d 83000000 		.4byte	0x83
 3111 0741 AC070000 		.4byte	.LLST45
 3112 0745 0A       		.uleb128 0xa
 3113 0746 1A000000 		.4byte	.LVL126
 3114 074a 22060000 		.4byte	0x622
 3115 074e 62070000 		.4byte	0x762
 3116 0752 0B       		.uleb128 0xb
 3117 0753 01       		.uleb128 0x1
 3118 0754 50       		.byte	0x50
 3119 0755 05       		.uleb128 0x5
 3120 0756 03       		.byte	0x3
 3121 0757 00000000 		.4byte	CapSense_scanSpeedTbl
 3122 075b 0B       		.uleb128 0xb
 3123 075c 01       		.uleb128 0x1
 3124 075d 51       		.byte	0x51
 3125 075e 02       		.uleb128 0x2
 3126 075f 74       		.byte	0x74
 3127 0760 00       		.sleb128 0
 3128 0761 00       		.byte	0
 3129 0762 0A       		.uleb128 0xa
 3130 0763 36000000 		.4byte	.LVL130
 3131 0767 1D100000 		.4byte	0x101d
 3132 076b 75070000 		.4byte	0x775
 3133 076f 0B       		.uleb128 0xb
 3134 0770 01       		.uleb128 0x1
 3135 0771 51       		.byte	0x51
 3136 0772 01       		.uleb128 0x1
 3137 0773 30       		.byte	0x30
 3138 0774 00       		.byte	0
ARM GAS  C:\Users\Zeynep\AppData\Local\Temp\ccgAGQqu.s 			page 99


 3139 0775 0A       		.uleb128 0xa
 3140 0776 44000000 		.4byte	.LVL131
 3141 077a 28100000 		.4byte	0x1028
 3142 077e 88070000 		.4byte	0x788
 3143 0782 0B       		.uleb128 0xb
 3144 0783 01       		.uleb128 0x1
 3145 0784 51       		.byte	0x51
 3146 0785 01       		.uleb128 0x1
 3147 0786 30       		.byte	0x30
 3148 0787 00       		.byte	0
 3149 0788 0A       		.uleb128 0xa
 3150 0789 4A000000 		.4byte	.LVL132
 3151 078d E60F0000 		.4byte	0xfe6
 3152 0791 9B070000 		.4byte	0x79b
 3153 0795 0B       		.uleb128 0xb
 3154 0796 01       		.uleb128 0x1
 3155 0797 50       		.byte	0x50
 3156 0798 01       		.uleb128 0x1
 3157 0799 3F       		.byte	0x3f
 3158 079a 00       		.byte	0
 3159 079b 0A       		.uleb128 0xa
 3160 079c 74000000 		.4byte	.LVL139
 3161 07a0 49100000 		.4byte	0x1049
 3162 07a4 AE070000 		.4byte	0x7ae
 3163 07a8 0B       		.uleb128 0xb
 3164 07a9 01       		.uleb128 0x1
 3165 07aa 50       		.byte	0x50
 3166 07ab 01       		.uleb128 0x1
 3167 07ac 3F       		.byte	0x3f
 3168 07ad 00       		.byte	0
 3169 07ae 0A       		.uleb128 0xa
 3170 07af 7A000000 		.4byte	.LVL140
 3171 07b3 E3020000 		.4byte	0x2e3
 3172 07b7 C2070000 		.4byte	0x7c2
 3173 07bb 0B       		.uleb128 0xb
 3174 07bc 01       		.uleb128 0x1
 3175 07bd 50       		.byte	0x50
 3176 07be 02       		.uleb128 0x2
 3177 07bf 74       		.byte	0x74
 3178 07c0 00       		.sleb128 0
 3179 07c1 00       		.byte	0
 3180 07c2 0F       		.uleb128 0xf
 3181 07c3 7E000000 		.4byte	.LVL141
 3182 07c7 54100000 		.4byte	0x1054
 3183 07cb 0A       		.uleb128 0xa
 3184 07cc 88000000 		.4byte	.LVL143
 3185 07d0 6A100000 		.4byte	0x106a
 3186 07d4 DE070000 		.4byte	0x7de
 3187 07d8 0B       		.uleb128 0xb
 3188 07d9 01       		.uleb128 0x1
 3189 07da 50       		.byte	0x50
 3190 07db 01       		.uleb128 0x1
 3191 07dc 30       		.byte	0x30
 3192 07dd 00       		.byte	0
 3193 07de 0C       		.uleb128 0xc
 3194 07df 92000000 		.4byte	.LVL144
 3195 07e3 5F100000 		.4byte	0x105f
ARM GAS  C:\Users\Zeynep\AppData\Local\Temp\ccgAGQqu.s 			page 100


 3196 07e7 0B       		.uleb128 0xb
 3197 07e8 01       		.uleb128 0x1
 3198 07e9 50       		.byte	0x50
 3199 07ea 02       		.uleb128 0x2
 3200 07eb 74       		.byte	0x74
 3201 07ec 00       		.sleb128 0
 3202 07ed 00       		.byte	0
 3203 07ee 00       		.byte	0
 3204 07ef 0D       		.uleb128 0xd
 3205 07f0 4D040000 		.4byte	.LASF66
 3206 07f4 01       		.byte	0x1
 3207 07f5 2402     		.2byte	0x224
 3208 07f7 00000000 		.4byte	.LFB38
 3209 07fb 1C000000 		.4byte	.LFE38-.LFB38
 3210 07ff 01       		.uleb128 0x1
 3211 0800 9C       		.byte	0x9c
 3212 0801 27080000 		.4byte	0x827
 3213 0805 12       		.uleb128 0x12
 3214 0806 B3040000 		.4byte	.LASF24
 3215 080a 01       		.byte	0x1
 3216 080b 2402     		.2byte	0x224
 3217 080d 83000000 		.4byte	0x83
 3218 0811 BF070000 		.4byte	.LLST46
 3219 0815 0C       		.uleb128 0xc
 3220 0816 14000000 		.4byte	.LVL149
 3221 081a CF060000 		.4byte	0x6cf
 3222 081e 0B       		.uleb128 0xb
 3223 081f 01       		.uleb128 0x1
 3224 0820 50       		.byte	0x50
 3225 0821 03       		.uleb128 0x3
 3226 0822 F3       		.byte	0xf3
 3227 0823 01       		.uleb128 0x1
 3228 0824 50       		.byte	0x50
 3229 0825 00       		.byte	0
 3230 0826 00       		.byte	0
 3231 0827 0D       		.uleb128 0xd
 3232 0828 83050000 		.4byte	.LASF67
 3233 082c 01       		.byte	0x1
 3234 082d A002     		.2byte	0x2a0
 3235 082f 00000000 		.4byte	.LFB40
 3236 0833 38000000 		.4byte	.LFE40-.LFB40
 3237 0837 01       		.uleb128 0x1
 3238 0838 9C       		.byte	0x9c
 3239 0839 50080000 		.4byte	0x850
 3240 083d 0F       		.uleb128 0xf
 3241 083e 14000000 		.4byte	.LVL150
 3242 0842 7B060000 		.4byte	0x67b
 3243 0846 0F       		.uleb128 0xf
 3244 0847 30000000 		.4byte	.LVL151
 3245 084b CF060000 		.4byte	0x6cf
 3246 084f 00       		.byte	0
 3247 0850 0D       		.uleb128 0xd
 3248 0851 27000000 		.4byte	.LASF68
 3249 0855 01       		.byte	0x1
 3250 0856 F605     		.2byte	0x5f6
 3251 0858 00000000 		.4byte	.LFB53
 3252 085c 90000000 		.4byte	.LFE53-.LFB53
ARM GAS  C:\Users\Zeynep\AppData\Local\Temp\ccgAGQqu.s 			page 101


 3253 0860 01       		.uleb128 0x1
 3254 0861 9C       		.byte	0x9c
 3255 0862 FA080000 		.4byte	0x8fa
 3256 0866 12       		.uleb128 0x12
 3257 0867 B3040000 		.4byte	.LASF24
 3258 086b 01       		.byte	0x1
 3259 086c F605     		.2byte	0x5f6
 3260 086e 83000000 		.4byte	0x83
 3261 0872 E0070000 		.4byte	.LLST47
 3262 0876 0E       		.uleb128 0xe
 3263 0877 790A0000 		.4byte	.LASF21
 3264 087b 01       		.byte	0x1
 3265 087c F805     		.2byte	0x5f8
 3266 087e 83000000 		.4byte	0x83
 3267 0882 17080000 		.4byte	.LLST48
 3268 0886 0E       		.uleb128 0xe
 3269 0887 9C0A0000 		.4byte	.LASF65
 3270 088b 01       		.byte	0x1
 3271 088c FB05     		.2byte	0x5fb
 3272 088e 83000000 		.4byte	0x83
 3273 0892 44080000 		.4byte	.LLST49
 3274 0896 0E       		.uleb128 0xe
 3275 0897 79020000 		.4byte	.LASF27
 3276 089b 01       		.byte	0x1
 3277 089c FC05     		.2byte	0x5fc
 3278 089e 83000000 		.4byte	0x83
 3279 08a2 57080000 		.4byte	.LLST50
 3280 08a6 0A       		.uleb128 0xa
 3281 08a7 2E000000 		.4byte	.LVL157
 3282 08ab 22060000 		.4byte	0x622
 3283 08af C3080000 		.4byte	0x8c3
 3284 08b3 0B       		.uleb128 0xb
 3285 08b4 01       		.uleb128 0x1
 3286 08b5 50       		.byte	0x50
 3287 08b6 05       		.uleb128 0x5
 3288 08b7 03       		.byte	0x3
 3289 08b8 00000000 		.4byte	CapSense_scanSpeedTbl
 3290 08bc 0B       		.uleb128 0xb
 3291 08bd 01       		.uleb128 0x1
 3292 08be 51       		.byte	0x51
 3293 08bf 02       		.uleb128 0x2
 3294 08c0 75       		.byte	0x75
 3295 08c1 00       		.sleb128 0
 3296 08c2 00       		.byte	0
 3297 08c3 0A       		.uleb128 0xa
 3298 08c4 3E000000 		.4byte	.LVL159
 3299 08c8 6C030000 		.4byte	0x36c
 3300 08cc D7080000 		.4byte	0x8d7
 3301 08d0 0B       		.uleb128 0xb
 3302 08d1 01       		.uleb128 0x1
 3303 08d2 50       		.byte	0x50
 3304 08d3 02       		.uleb128 0x2
 3305 08d4 75       		.byte	0x75
 3306 08d5 00       		.sleb128 0
 3307 08d6 00       		.byte	0
 3308 08d7 0A       		.uleb128 0xa
 3309 08d8 44000000 		.4byte	.LVL160
ARM GAS  C:\Users\Zeynep\AppData\Local\Temp\ccgAGQqu.s 			page 102


 3310 08dc E60F0000 		.4byte	0xfe6
 3311 08e0 EA080000 		.4byte	0x8ea
 3312 08e4 0B       		.uleb128 0xb
 3313 08e5 01       		.uleb128 0x1
 3314 08e6 50       		.byte	0x50
 3315 08e7 01       		.uleb128 0x1
 3316 08e8 3F       		.byte	0x3f
 3317 08e9 00       		.byte	0
 3318 08ea 0C       		.uleb128 0xc
 3319 08eb 64000000 		.4byte	.LVL166
 3320 08ef 49100000 		.4byte	0x1049
 3321 08f3 0B       		.uleb128 0xb
 3322 08f4 01       		.uleb128 0x1
 3323 08f5 50       		.byte	0x50
 3324 08f6 01       		.uleb128 0x1
 3325 08f7 3F       		.byte	0x3f
 3326 08f8 00       		.byte	0
 3327 08f9 00       		.byte	0
 3328 08fa 0D       		.uleb128 0xd
 3329 08fb 82090000 		.4byte	.LASF69
 3330 08ff 01       		.byte	0x1
 3331 0900 E106     		.2byte	0x6e1
 3332 0902 00000000 		.4byte	.LFB58
 3333 0906 26000000 		.4byte	.LFE58-.LFB58
 3334 090a 01       		.uleb128 0x1
 3335 090b 9C       		.byte	0x9c
 3336 090c 5F090000 		.4byte	0x95f
 3337 0910 13       		.uleb128 0x13
 3338 0911 F6040000 		.4byte	.LASF57
 3339 0915 01       		.byte	0x1
 3340 0916 E106     		.2byte	0x6e1
 3341 0918 D4000000 		.4byte	0xd4
 3342 091c 01       		.uleb128 0x1
 3343 091d 50       		.byte	0x50
 3344 091e 12       		.uleb128 0x12
 3345 091f B90A0000 		.4byte	.LASF58
 3346 0923 01       		.byte	0x1
 3347 0924 E106     		.2byte	0x6e1
 3348 0926 83000000 		.4byte	0x83
 3349 092a E6080000 		.4byte	.LLST51
 3350 092e 12       		.uleb128 0x12
 3351 092f 25030000 		.4byte	.LASF25
 3352 0933 01       		.byte	0x1
 3353 0934 E106     		.2byte	0x6e1
 3354 0936 83000000 		.4byte	0x83
 3355 093a 07090000 		.4byte	.LLST52
 3356 093e 0E       		.uleb128 0xe
 3357 093f 2B040000 		.4byte	.LASF59
 3358 0943 01       		.byte	0x1
 3359 0944 E306     		.2byte	0x6e3
 3360 0946 83000000 		.4byte	0x83
 3361 094a 41090000 		.4byte	.LLST53
 3362 094e 0E       		.uleb128 0xe
 3363 094f 17090000 		.4byte	.LASF60
 3364 0953 01       		.byte	0x1
 3365 0954 E406     		.2byte	0x6e4
 3366 0956 6B000000 		.4byte	0x6b
ARM GAS  C:\Users\Zeynep\AppData\Local\Temp\ccgAGQqu.s 			page 103


 3367 095a 7F090000 		.4byte	.LLST54
 3368 095e 00       		.byte	0
 3369 095f 0D       		.uleb128 0xd
 3370 0960 EC000000 		.4byte	.LASF70
 3371 0964 01       		.byte	0x1
 3372 0965 4B02     		.2byte	0x24b
 3373 0967 00000000 		.4byte	.LFB39
 3374 096b 8C000000 		.4byte	.LFE39-.LFB39
 3375 096f 01       		.uleb128 0x1
 3376 0970 9C       		.byte	0x9c
 3377 0971 030A0000 		.4byte	0xa03
 3378 0975 12       		.uleb128 0x12
 3379 0976 79020000 		.4byte	.LASF27
 3380 097a 01       		.byte	0x1
 3381 097b 4B02     		.2byte	0x24b
 3382 097d 83000000 		.4byte	0x83
 3383 0981 BB090000 		.4byte	.LLST55
 3384 0985 0E       		.uleb128 0xe
 3385 0986 6E040000 		.4byte	.LASF71
 3386 098a 01       		.byte	0x1
 3387 098b 4D02     		.2byte	0x24d
 3388 098d 83000000 		.4byte	0x83
 3389 0991 DC090000 		.4byte	.LLST56
 3390 0995 0E       		.uleb128 0xe
 3391 0996 BF060000 		.4byte	.LASF72
 3392 099a 01       		.byte	0x1
 3393 099b 4E02     		.2byte	0x24e
 3394 099d 83000000 		.4byte	0x83
 3395 09a1 EF090000 		.4byte	.LLST57
 3396 09a5 0E       		.uleb128 0xe
 3397 09a6 AA060000 		.4byte	.LASF41
 3398 09aa 01       		.byte	0x1
 3399 09ab 4F02     		.2byte	0x24f
 3400 09ad 83000000 		.4byte	0x83
 3401 09b1 020A0000 		.4byte	.LLST58
 3402 09b5 0A       		.uleb128 0xa
 3403 09b6 4A000000 		.4byte	.LVL187
 3404 09ba FA080000 		.4byte	0x8fa
 3405 09be D7090000 		.4byte	0x9d7
 3406 09c2 0B       		.uleb128 0xb
 3407 09c3 01       		.uleb128 0x1
 3408 09c4 50       		.byte	0x50
 3409 09c5 05       		.uleb128 0x5
 3410 09c6 03       		.byte	0x3
 3411 09c7 04000000 		.4byte	.LANCHOR1+4
 3412 09cb 0B       		.uleb128 0xb
 3413 09cc 01       		.uleb128 0x1
 3414 09cd 51       		.byte	0x51
 3415 09ce 02       		.uleb128 0x2
 3416 09cf 74       		.byte	0x74
 3417 09d0 00       		.sleb128 0
 3418 09d1 0B       		.uleb128 0xb
 3419 09d2 01       		.uleb128 0x1
 3420 09d3 52       		.byte	0x52
 3421 09d4 01       		.uleb128 0x1
 3422 09d5 31       		.byte	0x31
 3423 09d6 00       		.byte	0
ARM GAS  C:\Users\Zeynep\AppData\Local\Temp\ccgAGQqu.s 			page 104


 3424 09d7 0A       		.uleb128 0xa
 3425 09d8 58000000 		.4byte	.LVL188
 3426 09dc FA080000 		.4byte	0x8fa
 3427 09e0 F9090000 		.4byte	0x9f9
 3428 09e4 0B       		.uleb128 0xb
 3429 09e5 01       		.uleb128 0x1
 3430 09e6 50       		.byte	0x50
 3431 09e7 05       		.uleb128 0x5
 3432 09e8 03       		.byte	0x3
 3433 09e9 04000000 		.4byte	.LANCHOR1+4
 3434 09ed 0B       		.uleb128 0xb
 3435 09ee 01       		.uleb128 0x1
 3436 09ef 51       		.byte	0x51
 3437 09f0 02       		.uleb128 0x2
 3438 09f1 74       		.byte	0x74
 3439 09f2 00       		.sleb128 0
 3440 09f3 0B       		.uleb128 0xb
 3441 09f4 01       		.uleb128 0x1
 3442 09f5 52       		.byte	0x52
 3443 09f6 01       		.uleb128 0x1
 3444 09f7 30       		.byte	0x30
 3445 09f8 00       		.byte	0
 3446 09f9 0F       		.uleb128 0xf
 3447 09fa 76000000 		.4byte	.LVL190
 3448 09fe CF060000 		.4byte	0x6cf
 3449 0a02 00       		.byte	0
 3450 0a03 11       		.uleb128 0x11
 3451 0a04 48060000 		.4byte	.LASF73
 3452 0a08 01       		.byte	0x1
 3453 0a09 1307     		.2byte	0x713
 3454 0a0b 83000000 		.4byte	0x83
 3455 0a0f 00000000 		.4byte	.LFB59
 3456 0a13 0C000000 		.4byte	.LFE59-.LFB59
 3457 0a17 01       		.uleb128 0x1
 3458 0a18 9C       		.byte	0x9c
 3459 0a19 2E0A0000 		.4byte	0xa2e
 3460 0a1d 12       		.uleb128 0x12
 3461 0a1e B3040000 		.4byte	.LASF24
 3462 0a22 01       		.byte	0x1
 3463 0a23 1307     		.2byte	0x713
 3464 0a25 83000000 		.4byte	0x83
 3465 0a29 2C0A0000 		.4byte	.LLST59
 3466 0a2d 00       		.byte	0
 3467 0a2e 0D       		.uleb128 0xd
 3468 0a2f 0E010000 		.4byte	.LASF74
 3469 0a33 01       		.byte	0x1
 3470 0a34 3207     		.2byte	0x732
 3471 0a36 00000000 		.4byte	.LFB60
 3472 0a3a 0C000000 		.4byte	.LFE60-.LFB60
 3473 0a3e 01       		.uleb128 0x1
 3474 0a3f 9C       		.byte	0x9c
 3475 0a40 610A0000 		.4byte	0xa61
 3476 0a44 13       		.uleb128 0x13
 3477 0a45 B3040000 		.4byte	.LASF24
 3478 0a49 01       		.byte	0x1
 3479 0a4a 3207     		.2byte	0x732
 3480 0a4c 83000000 		.4byte	0x83
ARM GAS  C:\Users\Zeynep\AppData\Local\Temp\ccgAGQqu.s 			page 105


 3481 0a50 01       		.uleb128 0x1
 3482 0a51 50       		.byte	0x50
 3483 0a52 13       		.uleb128 0x13
 3484 0a53 5A070000 		.4byte	.LASF75
 3485 0a57 01       		.byte	0x1
 3486 0a58 3207     		.2byte	0x732
 3487 0a5a 83000000 		.4byte	0x83
 3488 0a5e 01       		.uleb128 0x1
 3489 0a5f 51       		.byte	0x51
 3490 0a60 00       		.byte	0
 3491 0a61 11       		.uleb128 0x11
 3492 0a62 46080000 		.4byte	.LASF76
 3493 0a66 01       		.byte	0x1
 3494 0a67 5207     		.2byte	0x752
 3495 0a69 83000000 		.4byte	0x83
 3496 0a6d 00000000 		.4byte	.LFB61
 3497 0a71 0C000000 		.4byte	.LFE61-.LFB61
 3498 0a75 01       		.uleb128 0x1
 3499 0a76 9C       		.byte	0x9c
 3500 0a77 8C0A0000 		.4byte	0xa8c
 3501 0a7b 12       		.uleb128 0x12
 3502 0a7c B3040000 		.4byte	.LASF24
 3503 0a80 01       		.byte	0x1
 3504 0a81 5207     		.2byte	0x752
 3505 0a83 83000000 		.4byte	0x83
 3506 0a87 4D0A0000 		.4byte	.LLST60
 3507 0a8b 00       		.byte	0
 3508 0a8c 0D       		.uleb128 0xd
 3509 0a8d 09060000 		.4byte	.LASF77
 3510 0a91 01       		.byte	0x1
 3511 0a92 7107     		.2byte	0x771
 3512 0a94 00000000 		.4byte	.LFB62
 3513 0a98 0C000000 		.4byte	.LFE62-.LFB62
 3514 0a9c 01       		.uleb128 0x1
 3515 0a9d 9C       		.byte	0x9c
 3516 0a9e BF0A0000 		.4byte	0xabf
 3517 0aa2 13       		.uleb128 0x13
 3518 0aa3 B3040000 		.4byte	.LASF24
 3519 0aa7 01       		.byte	0x1
 3520 0aa8 7107     		.2byte	0x771
 3521 0aaa 83000000 		.4byte	0x83
 3522 0aae 01       		.uleb128 0x1
 3523 0aaf 50       		.byte	0x50
 3524 0ab0 13       		.uleb128 0x13
 3525 0ab1 18030000 		.4byte	.LASF78
 3526 0ab5 01       		.byte	0x1
 3527 0ab6 7107     		.2byte	0x771
 3528 0ab8 83000000 		.4byte	0x83
 3529 0abc 01       		.uleb128 0x1
 3530 0abd 51       		.byte	0x51
 3531 0abe 00       		.byte	0
 3532 0abf 11       		.uleb128 0x11
 3533 0ac0 200A0000 		.4byte	.LASF79
 3534 0ac4 01       		.byte	0x1
 3535 0ac5 9007     		.2byte	0x790
 3536 0ac7 83000000 		.4byte	0x83
 3537 0acb 00000000 		.4byte	.LFB63
ARM GAS  C:\Users\Zeynep\AppData\Local\Temp\ccgAGQqu.s 			page 106


 3538 0acf 0C000000 		.4byte	.LFE63-.LFB63
 3539 0ad3 01       		.uleb128 0x1
 3540 0ad4 9C       		.byte	0x9c
 3541 0ad5 EA0A0000 		.4byte	0xaea
 3542 0ad9 12       		.uleb128 0x12
 3543 0ada B3040000 		.4byte	.LASF24
 3544 0ade 01       		.byte	0x1
 3545 0adf 9007     		.2byte	0x790
 3546 0ae1 83000000 		.4byte	0x83
 3547 0ae5 6E0A0000 		.4byte	.LLST61
 3548 0ae9 00       		.byte	0
 3549 0aea 0D       		.uleb128 0xd
 3550 0aeb 67090000 		.4byte	.LASF80
 3551 0aef 01       		.byte	0x1
 3552 0af0 AB07     		.2byte	0x7ab
 3553 0af2 00000000 		.4byte	.LFB64
 3554 0af6 0C000000 		.4byte	.LFE64-.LFB64
 3555 0afa 01       		.uleb128 0x1
 3556 0afb 9C       		.byte	0x9c
 3557 0afc 1D0B0000 		.4byte	0xb1d
 3558 0b00 13       		.uleb128 0x13
 3559 0b01 B3040000 		.4byte	.LASF24
 3560 0b05 01       		.byte	0x1
 3561 0b06 AB07     		.2byte	0x7ab
 3562 0b08 83000000 		.4byte	0x83
 3563 0b0c 01       		.uleb128 0x1
 3564 0b0d 50       		.byte	0x50
 3565 0b0e 13       		.uleb128 0x13
 3566 0b0f D1080000 		.4byte	.LASF81
 3567 0b13 01       		.byte	0x1
 3568 0b14 AB07     		.2byte	0x7ab
 3569 0b16 83000000 		.4byte	0x83
 3570 0b1a 01       		.uleb128 0x1
 3571 0b1b 51       		.byte	0x51
 3572 0b1c 00       		.byte	0
 3573 0b1d 11       		.uleb128 0x11
 3574 0b1e AC090000 		.4byte	.LASF82
 3575 0b22 01       		.byte	0x1
 3576 0b23 C807     		.2byte	0x7c8
 3577 0b25 83000000 		.4byte	0x83
 3578 0b29 00000000 		.4byte	.LFB65
 3579 0b2d 0C000000 		.4byte	.LFE65-.LFB65
 3580 0b31 01       		.uleb128 0x1
 3581 0b32 9C       		.byte	0x9c
 3582 0b33 480B0000 		.4byte	0xb48
 3583 0b37 12       		.uleb128 0x12
 3584 0b38 B3040000 		.4byte	.LASF24
 3585 0b3c 01       		.byte	0x1
 3586 0b3d C807     		.2byte	0x7c8
 3587 0b3f 83000000 		.4byte	0x83
 3588 0b43 8F0A0000 		.4byte	.LLST62
 3589 0b47 00       		.byte	0
 3590 0b48 0D       		.uleb128 0xd
 3591 0b49 5B010000 		.4byte	.LASF83
 3592 0b4d 01       		.byte	0x1
 3593 0b4e E507     		.2byte	0x7e5
 3594 0b50 00000000 		.4byte	.LFB66
ARM GAS  C:\Users\Zeynep\AppData\Local\Temp\ccgAGQqu.s 			page 107


 3595 0b54 0C000000 		.4byte	.LFE66-.LFB66
 3596 0b58 01       		.uleb128 0x1
 3597 0b59 9C       		.byte	0x9c
 3598 0b5a 7B0B0000 		.4byte	0xb7b
 3599 0b5e 13       		.uleb128 0x13
 3600 0b5f B3040000 		.4byte	.LASF24
 3601 0b63 01       		.byte	0x1
 3602 0b64 E507     		.2byte	0x7e5
 3603 0b66 83000000 		.4byte	0x83
 3604 0b6a 01       		.uleb128 0x1
 3605 0b6b 50       		.byte	0x50
 3606 0b6c 13       		.uleb128 0x13
 3607 0b6d AB080000 		.4byte	.LASF84
 3608 0b71 01       		.byte	0x1
 3609 0b72 E507     		.2byte	0x7e5
 3610 0b74 83000000 		.4byte	0x83
 3611 0b78 01       		.uleb128 0x1
 3612 0b79 51       		.byte	0x51
 3613 0b7a 00       		.byte	0
 3614 0b7b 10       		.uleb128 0x10
 3615 0b7c 6D050000 		.4byte	.LASF85
 3616 0b80 01       		.byte	0x1
 3617 0b81 0208     		.2byte	0x802
 3618 0b83 83000000 		.4byte	0x83
 3619 0b87 00000000 		.4byte	.LFB67
 3620 0b8b 14000000 		.4byte	.LFE67-.LFB67
 3621 0b8f 01       		.uleb128 0x1
 3622 0b90 9C       		.byte	0x9c
 3623 0b91 0D       		.uleb128 0xd
 3624 0b92 08070000 		.4byte	.LASF86
 3625 0b96 01       		.byte	0x1
 3626 0b97 2008     		.2byte	0x820
 3627 0b99 00000000 		.4byte	.LFB68
 3628 0b9d 28000000 		.4byte	.LFE68-.LFB68
 3629 0ba1 01       		.uleb128 0x1
 3630 0ba2 9C       		.byte	0x9c
 3631 0ba3 B60B0000 		.4byte	0xbb6
 3632 0ba7 13       		.uleb128 0x13
 3633 0ba8 80080000 		.4byte	.LASF87
 3634 0bac 01       		.byte	0x1
 3635 0bad 2008     		.2byte	0x820
 3636 0baf 83000000 		.4byte	0x83
 3637 0bb3 01       		.uleb128 0x1
 3638 0bb4 50       		.byte	0x50
 3639 0bb5 00       		.byte	0
 3640 0bb6 11       		.uleb128 0x11
 3641 0bb7 36070000 		.4byte	.LASF88
 3642 0bbb 01       		.byte	0x1
 3643 0bbc 4808     		.2byte	0x848
 3644 0bbe 77000000 		.4byte	0x77
 3645 0bc2 00000000 		.4byte	.LFB69
 3646 0bc6 2A000000 		.4byte	.LFE69-.LFB69
 3647 0bca 01       		.uleb128 0x1
 3648 0bcb 9C       		.byte	0x9c
 3649 0bcc 2E0C0000 		.4byte	0xc2e
 3650 0bd0 12       		.uleb128 0x12
 3651 0bd1 B3040000 		.4byte	.LASF24
ARM GAS  C:\Users\Zeynep\AppData\Local\Temp\ccgAGQqu.s 			page 108


 3652 0bd5 01       		.byte	0x1
 3653 0bd6 4808     		.2byte	0x848
 3654 0bd8 83000000 		.4byte	0x83
 3655 0bdc B00A0000 		.4byte	.LLST63
 3656 0be0 0E       		.uleb128 0xe
 3657 0be1 A9040000 		.4byte	.LASF89
 3658 0be5 01       		.byte	0x1
 3659 0be6 4A08     		.2byte	0x84a
 3660 0be8 83000000 		.4byte	0x83
 3661 0bec DC0A0000 		.4byte	.LLST64
 3662 0bf0 0E       		.uleb128 0xe
 3663 0bf1 37010000 		.4byte	.LASF90
 3664 0bf5 01       		.byte	0x1
 3665 0bf6 4B08     		.2byte	0x84b
 3666 0bf8 83000000 		.4byte	0x83
 3667 0bfc FB0A0000 		.4byte	.LLST65
 3668 0c00 0A       		.uleb128 0xa
 3669 0c01 10000000 		.4byte	.LVL209
 3670 0c05 EF070000 		.4byte	0x7ef
 3671 0c09 140C0000 		.4byte	0xc14
 3672 0c0d 0B       		.uleb128 0xb
 3673 0c0e 01       		.uleb128 0x1
 3674 0c0f 50       		.byte	0x50
 3675 0c10 02       		.uleb128 0x2
 3676 0c11 76       		.byte	0x76
 3677 0c12 00       		.sleb128 0
 3678 0c13 00       		.byte	0
 3679 0c14 0F       		.uleb128 0xf
 3680 0c15 14000000 		.4byte	.LVL210
 3681 0c19 0D020000 		.4byte	0x20d
 3682 0c1d 0C       		.uleb128 0xc
 3683 0c1e 1E000000 		.4byte	.LVL211
 3684 0c22 23020000 		.4byte	0x223
 3685 0c26 0B       		.uleb128 0xb
 3686 0c27 01       		.uleb128 0x1
 3687 0c28 50       		.byte	0x50
 3688 0c29 02       		.uleb128 0x2
 3689 0c2a 76       		.byte	0x76
 3690 0c2b 00       		.sleb128 0
 3691 0c2c 00       		.byte	0
 3692 0c2d 00       		.byte	0
 3693 0c2e 0D       		.uleb128 0xd
 3694 0c2f F5070000 		.4byte	.LASF91
 3695 0c33 01       		.byte	0x1
 3696 0c34 B208     		.2byte	0x8b2
 3697 0c36 00000000 		.4byte	.LFB70
 3698 0c3a 0C000000 		.4byte	.LFE70-.LFB70
 3699 0c3e 01       		.uleb128 0x1
 3700 0c3f 9C       		.byte	0x9c
 3701 0c40 610C0000 		.4byte	0xc61
 3702 0c44 13       		.uleb128 0x13
 3703 0c45 B3040000 		.4byte	.LASF24
 3704 0c49 01       		.byte	0x1
 3705 0c4a B208     		.2byte	0x8b2
 3706 0c4c 83000000 		.4byte	0x83
 3707 0c50 01       		.uleb128 0x1
 3708 0c51 50       		.byte	0x50
ARM GAS  C:\Users\Zeynep\AppData\Local\Temp\ccgAGQqu.s 			page 109


 3709 0c52 13       		.uleb128 0x13
 3710 0c53 0E040000 		.4byte	.LASF39
 3711 0c57 01       		.byte	0x1
 3712 0c58 B208     		.2byte	0x8b2
 3713 0c5a 83000000 		.4byte	0x83
 3714 0c5e 01       		.uleb128 0x1
 3715 0c5f 51       		.byte	0x51
 3716 0c60 00       		.byte	0
 3717 0c61 08       		.uleb128 0x8
 3718 0c62 4C070000 		.4byte	.LASF92
 3719 0c66 01       		.byte	0x1
 3720 0c67 A1       		.byte	0xa1
 3721 0c68 00000000 		.4byte	.LFB32
 3722 0c6c 24000000 		.4byte	.LFE32-.LFB32
 3723 0c70 01       		.uleb128 0x1
 3724 0c71 9C       		.byte	0x9c
 3725 0c72 C40C0000 		.4byte	0xcc4
 3726 0c76 09       		.uleb128 0x9
 3727 0c77 920A0000 		.4byte	.LASF47
 3728 0c7b 01       		.byte	0x1
 3729 0c7c A3       		.byte	0xa3
 3730 0c7d 83000000 		.4byte	0x83
 3731 0c81 1A0B0000 		.4byte	.LLST66
 3732 0c85 0A       		.uleb128 0xa
 3733 0c86 0E000000 		.4byte	.LVL220
 3734 0c8a 2E0C0000 		.4byte	0xc2e
 3735 0c8e 9E0C0000 		.4byte	0xc9e
 3736 0c92 0B       		.uleb128 0xb
 3737 0c93 01       		.uleb128 0x1
 3738 0c94 50       		.byte	0x50
 3739 0c95 02       		.uleb128 0x2
 3740 0c96 74       		.byte	0x74
 3741 0c97 00       		.sleb128 0
 3742 0c98 0B       		.uleb128 0xb
 3743 0c99 01       		.uleb128 0x1
 3744 0c9a 51       		.byte	0x51
 3745 0c9b 01       		.uleb128 0x1
 3746 0c9c 30       		.byte	0x30
 3747 0c9d 00       		.byte	0
 3748 0c9e 0F       		.uleb128 0xf
 3749 0c9f 18000000 		.4byte	.LVL222
 3750 0ca3 E5000000 		.4byte	0xe5
 3751 0ca7 0A       		.uleb128 0xa
 3752 0ca8 1E000000 		.4byte	.LVL223
 3753 0cac D5050000 		.4byte	0x5d5
 3754 0cb0 BA0C0000 		.4byte	0xcba
 3755 0cb4 0B       		.uleb128 0xb
 3756 0cb5 01       		.uleb128 0x1
 3757 0cb6 50       		.byte	0x50
 3758 0cb7 01       		.uleb128 0x1
 3759 0cb8 30       		.byte	0x30
 3760 0cb9 00       		.byte	0
 3761 0cba 0F       		.uleb128 0xf
 3762 0cbb 22000000 		.4byte	.LVL224
 3763 0cbf 15040000 		.4byte	0x415
 3764 0cc3 00       		.byte	0
 3765 0cc4 0D       		.uleb128 0xd
ARM GAS  C:\Users\Zeynep\AppData\Local\Temp\ccgAGQqu.s 			page 110


 3766 0cc5 DD000000 		.4byte	.LASF93
 3767 0cc9 01       		.byte	0x1
 3768 0cca 7201     		.2byte	0x172
 3769 0ccc 00000000 		.4byte	.LFB35
 3770 0cd0 38000000 		.4byte	.LFE35-.LFB35
 3771 0cd4 01       		.uleb128 0x1
 3772 0cd5 9C       		.byte	0x9c
 3773 0cd6 080D0000 		.4byte	0xd08
 3774 0cda 14       		.uleb128 0x14
 3775 0cdb 7F040000 		.4byte	.LASF94
 3776 0cdf 01       		.byte	0x1
 3777 0ce0 7501     		.2byte	0x175
 3778 0ce2 6B000000 		.4byte	0x6b
 3779 0ce6 05       		.uleb128 0x5
 3780 0ce7 03       		.byte	0x3
 3781 0ce8 0F000000 		.4byte	CapSense_initVar.5388
 3782 0cec 0F       		.uleb128 0xf
 3783 0ced 0E000000 		.4byte	.LVL226
 3784 0cf1 610C0000 		.4byte	0xc61
 3785 0cf5 0F       		.uleb128 0xf
 3786 0cf6 18000000 		.4byte	.LVL227
 3787 0cfa 47010000 		.4byte	0x147
 3788 0cfe 0F       		.uleb128 0xf
 3789 0cff 1C000000 		.4byte	.LVL228
 3790 0d03 75100000 		.4byte	0x1075
 3791 0d07 00       		.byte	0
 3792 0d08 0D       		.uleb128 0xd
 3793 0d09 FE020000 		.4byte	.LASF95
 3794 0d0d 01       		.byte	0x1
 3795 0d0e E908     		.2byte	0x8e9
 3796 0d10 00000000 		.4byte	.LFB71
 3797 0d14 40000000 		.4byte	.LFE71-.LFB71
 3798 0d18 01       		.uleb128 0x1
 3799 0d19 9C       		.byte	0x9c
 3800 0d1a 8B0D0000 		.4byte	0xd8b
 3801 0d1e 13       		.uleb128 0x13
 3802 0d1f D2000000 		.4byte	.LASF96
 3803 0d23 01       		.byte	0x1
 3804 0d24 E908     		.2byte	0x8e9
 3805 0d26 83000000 		.4byte	0x83
 3806 0d2a 01       		.uleb128 0x1
 3807 0d2b 50       		.byte	0x50
 3808 0d2c 13       		.uleb128 0x13
 3809 0d2d 5E0A0000 		.4byte	.LASF97
 3810 0d31 01       		.byte	0x1
 3811 0d32 E908     		.2byte	0x8e9
 3812 0d34 D4000000 		.4byte	0xd4
 3813 0d38 01       		.uleb128 0x1
 3814 0d39 51       		.byte	0x51
 3815 0d3a 0E       		.uleb128 0xe
 3816 0d3b E5050000 		.4byte	.LASF98
 3817 0d3f 01       		.byte	0x1
 3818 0d40 EB08     		.2byte	0x8eb
 3819 0d42 83000000 		.4byte	0x83
 3820 0d46 390B0000 		.4byte	.LLST67
 3821 0d4a 0E       		.uleb128 0xe
 3822 0d4b 9D080000 		.4byte	.LASF99
ARM GAS  C:\Users\Zeynep\AppData\Local\Temp\ccgAGQqu.s 			page 111


 3823 0d4f 01       		.byte	0x1
 3824 0d50 EC08     		.2byte	0x8ec
 3825 0d52 83000000 		.4byte	0x83
 3826 0d56 580B0000 		.4byte	.LLST68
 3827 0d5a 0E       		.uleb128 0xe
 3828 0d5b BF060000 		.4byte	.LASF72
 3829 0d5f 01       		.byte	0x1
 3830 0d60 ED08     		.2byte	0x8ed
 3831 0d62 83000000 		.4byte	0x83
 3832 0d66 810B0000 		.4byte	.LLST69
 3833 0d6a 0E       		.uleb128 0xe
 3834 0d6b 6E040000 		.4byte	.LASF71
 3835 0d6f 01       		.byte	0x1
 3836 0d70 EE08     		.2byte	0x8ee
 3837 0d72 83000000 		.4byte	0x83
 3838 0d76 940B0000 		.4byte	.LLST70
 3839 0d7a 0E       		.uleb128 0xe
 3840 0d7b 29070000 		.4byte	.LASF100
 3841 0d7f 01       		.byte	0x1
 3842 0d80 EF08     		.2byte	0x8ef
 3843 0d82 83000000 		.4byte	0x83
 3844 0d86 A70B0000 		.4byte	.LLST71
 3845 0d8a 00       		.byte	0
 3846 0d8b 15       		.uleb128 0x15
 3847 0d8c C9090000 		.4byte	.LASF101
 3848 0d90 01       		.byte	0x1
 3849 0d91 24       		.byte	0x24
 3850 0d92 6B000000 		.4byte	0x6b
 3851 0d96 05       		.uleb128 0x5
 3852 0d97 03       		.byte	0x3
 3853 0d98 00000000 		.4byte	CapSense_lowLevelTuningDone
 3854 0d9c 16       		.uleb128 0x16
 3855 0d9d 6B000000 		.4byte	0x6b
 3856 0da1 AC0D0000 		.4byte	0xdac
 3857 0da5 17       		.uleb128 0x17
 3858 0da6 C6000000 		.4byte	0xc6
 3859 0daa 00       		.byte	0
 3860 0dab 00       		.byte	0
 3861 0dac 15       		.uleb128 0x15
 3862 0dad 11000000 		.4byte	.LASF102
 3863 0db1 01       		.byte	0x1
 3864 0db2 25       		.byte	0x25
 3865 0db3 9C0D0000 		.4byte	0xd9c
 3866 0db7 05       		.uleb128 0x5
 3867 0db8 03       		.byte	0x3
 3868 0db9 00000000 		.4byte	CapSense_scanSpeedTbl
 3869 0dbd 15       		.uleb128 0x15
 3870 0dbe 39000000 		.4byte	.LASF103
 3871 0dc2 01       		.byte	0x1
 3872 0dc3 2D       		.byte	0x2d
 3873 0dc4 B0000000 		.4byte	0xb0
 3874 0dc8 05       		.uleb128 0x5
 3875 0dc9 03       		.byte	0x3
 3876 0dca 00000000 		.4byte	CapSense_csdStatusVar
 3877 0dce 15       		.uleb128 0x15
 3878 0dcf 64020000 		.4byte	.LASF104
 3879 0dd3 01       		.byte	0x1
ARM GAS  C:\Users\Zeynep\AppData\Local\Temp\ccgAGQqu.s 			page 112


 3880 0dd4 2E       		.byte	0x2e
 3881 0dd5 B0000000 		.4byte	0xb0
 3882 0dd9 05       		.uleb128 0x5
 3883 0dda 03       		.byte	0x3
 3884 0ddb 00000000 		.4byte	CapSense_sensorIndex
 3885 0ddf 16       		.uleb128 0x16
 3886 0de0 77000000 		.4byte	0x77
 3887 0de4 EF0D0000 		.4byte	0xdef
 3888 0de8 17       		.uleb128 0x17
 3889 0de9 C6000000 		.4byte	0xc6
 3890 0ded 04       		.byte	0x4
 3891 0dee 00       		.byte	0
 3892 0def 15       		.uleb128 0x15
 3893 0df0 BA040000 		.4byte	.LASF105
 3894 0df4 01       		.byte	0x1
 3895 0df5 31       		.byte	0x31
 3896 0df6 DF0D0000 		.4byte	0xddf
 3897 0dfa 05       		.uleb128 0x5
 3898 0dfb 03       		.byte	0x3
 3899 0dfc 00000000 		.4byte	CapSense_sensorRaw
 3900 0e00 16       		.uleb128 0x16
 3901 0e01 6B000000 		.4byte	0x6b
 3902 0e05 100E0000 		.4byte	0xe10
 3903 0e09 17       		.uleb128 0x17
 3904 0e0a C6000000 		.4byte	0xc6
 3905 0e0e 04       		.byte	0x4
 3906 0e0f 00       		.byte	0
 3907 0e10 15       		.uleb128 0x15
 3908 0e11 29060000 		.4byte	.LASF106
 3909 0e15 01       		.byte	0x1
 3910 0e16 3B       		.byte	0x3b
 3911 0e17 000E0000 		.4byte	0xe00
 3912 0e1b 05       		.uleb128 0x5
 3913 0e1c 03       		.byte	0x3
 3914 0e1d 00000000 		.4byte	CapSense_unscannedSnsDriveMode
 3915 0e21 15       		.uleb128 0x15
 3916 0e22 D5070000 		.4byte	.LASF107
 3917 0e26 01       		.byte	0x1
 3918 0e27 3E       		.byte	0x3e
 3919 0e28 9C0D0000 		.4byte	0xd9c
 3920 0e2c 05       		.uleb128 0x5
 3921 0e2d 03       		.byte	0x3
 3922 0e2e 00000000 		.4byte	CapSense_sensorEnableMaskBackup
 3923 0e32 15       		.uleb128 0x15
 3924 0e33 66080000 		.4byte	.LASF108
 3925 0e37 01       		.byte	0x1
 3926 0e38 41       		.byte	0x41
 3927 0e39 9C0D0000 		.4byte	0xd9c
 3928 0e3d 05       		.uleb128 0x5
 3929 0e3e 03       		.byte	0x3
 3930 0e3f 00000000 		.4byte	CapSense_sensorEnableMask
 3931 0e43 15       		.uleb128 0x15
 3932 0e44 9F050000 		.4byte	.LASF109
 3933 0e48 01       		.byte	0x1
 3934 0e49 64       		.byte	0x64
 3935 0e4a 000E0000 		.4byte	0xe00
 3936 0e4e 05       		.uleb128 0x5
ARM GAS  C:\Users\Zeynep\AppData\Local\Temp\ccgAGQqu.s 			page 113


 3937 0e4f 03       		.byte	0x3
 3938 0e50 00000000 		.4byte	CapSense_modulationIDAC
 3939 0e54 15       		.uleb128 0x15
 3940 0e55 4F000000 		.4byte	.LASF110
 3941 0e59 01       		.byte	0x1
 3942 0e5a 65       		.byte	0x65
 3943 0e5b 000E0000 		.4byte	0xe00
 3944 0e5f 05       		.uleb128 0x5
 3945 0e60 03       		.byte	0x3
 3946 0e61 00000000 		.4byte	CapSense_compensationIDAC
 3947 0e65 16       		.uleb128 0x16
 3948 0e66 83000000 		.4byte	0x83
 3949 0e6a 750E0000 		.4byte	0xe75
 3950 0e6e 17       		.uleb128 0x17
 3951 0e6f C6000000 		.4byte	0xc6
 3952 0e73 00       		.byte	0
 3953 0e74 00       		.byte	0
 3954 0e75 15       		.uleb128 0x15
 3955 0e76 46050000 		.4byte	.LASF111
 3956 0e7a 01       		.byte	0x1
 3957 0e7b 67       		.byte	0x67
 3958 0e7c 650E0000 		.4byte	0xe65
 3959 0e80 05       		.uleb128 0x5
 3960 0e81 03       		.byte	0x3
 3961 0e82 00000000 		.4byte	CapSense_widgetResolution
 3962 0e86 15       		.uleb128 0x15
 3963 0e87 E2030000 		.4byte	.LASF112
 3964 0e8b 01       		.byte	0x1
 3965 0e8c 6B       		.byte	0x6b
 3966 0e8d 000E0000 		.4byte	0xe00
 3967 0e91 05       		.uleb128 0x5
 3968 0e92 03       		.byte	0x3
 3969 0e93 00000000 		.4byte	CapSense_senseClkDividerVal
 3970 0e97 15       		.uleb128 0x15
 3971 0e98 A1000000 		.4byte	.LASF113
 3972 0e9c 01       		.byte	0x1
 3973 0e9d 6C       		.byte	0x6c
 3974 0e9e 000E0000 		.4byte	0xe00
 3975 0ea2 05       		.uleb128 0x5
 3976 0ea3 03       		.byte	0x3
 3977 0ea4 00000000 		.4byte	CapSense_sampleClkDividerVal
 3978 0ea8 16       		.uleb128 0x16
 3979 0ea9 E0000000 		.4byte	0xe0
 3980 0ead B80E0000 		.4byte	0xeb8
 3981 0eb1 17       		.uleb128 0x17
 3982 0eb2 C6000000 		.4byte	0xc6
 3983 0eb6 04       		.byte	0x4
 3984 0eb7 00       		.byte	0
 3985 0eb8 15       		.uleb128 0x15
 3986 0eb9 98020000 		.4byte	.LASF114
 3987 0ebd 01       		.byte	0x1
 3988 0ebe 6E       		.byte	0x6e
 3989 0ebf C90E0000 		.4byte	0xec9
 3990 0ec3 05       		.uleb128 0x5
 3991 0ec4 03       		.byte	0x3
 3992 0ec5 00000000 		.4byte	CapSense_widgetNumber
 3993 0ec9 07       		.uleb128 0x7
ARM GAS  C:\Users\Zeynep\AppData\Local\Temp\ccgAGQqu.s 			page 114


 3994 0eca A80E0000 		.4byte	0xea8
 3995 0ece 16       		.uleb128 0x16
 3996 0ecf E40E0000 		.4byte	0xee4
 3997 0ed3 DE0E0000 		.4byte	0xede
 3998 0ed7 17       		.uleb128 0x17
 3999 0ed8 C6000000 		.4byte	0xc6
 4000 0edc 04       		.byte	0x4
 4001 0edd 00       		.byte	0
 4002 0ede 06       		.uleb128 0x6
 4003 0edf 04       		.byte	0x4
 4004 0ee0 B5000000 		.4byte	0xb5
 4005 0ee4 07       		.uleb128 0x7
 4006 0ee5 DE0E0000 		.4byte	0xede
 4007 0ee9 15       		.uleb128 0x15
 4008 0eea ED010000 		.4byte	.LASF115
 4009 0eee 01       		.byte	0x1
 4010 0eef 72       		.byte	0x72
 4011 0ef0 FA0E0000 		.4byte	0xefa
 4012 0ef4 05       		.uleb128 0x5
 4013 0ef5 03       		.byte	0x3
 4014 0ef6 00000000 		.4byte	CapSense_prtSelTbl
 4015 0efa 07       		.uleb128 0x7
 4016 0efb CE0E0000 		.4byte	0xece
 4017 0eff 15       		.uleb128 0x15
 4018 0f00 AE020000 		.4byte	.LASF116
 4019 0f04 01       		.byte	0x1
 4020 0f05 7A       		.byte	0x7a
 4021 0f06 100F0000 		.4byte	0xf10
 4022 0f0a 05       		.uleb128 0x5
 4023 0f0b 03       		.byte	0x3
 4024 0f0c 00000000 		.4byte	CapSense_prtCfgTbl
 4025 0f10 07       		.uleb128 0x7
 4026 0f11 CE0E0000 		.4byte	0xece
 4027 0f15 15       		.uleb128 0x15
 4028 0f16 16020000 		.4byte	.LASF117
 4029 0f1a 01       		.byte	0x1
 4030 0f1b 82       		.byte	0x82
 4031 0f1c 260F0000 		.4byte	0xf26
 4032 0f20 05       		.uleb128 0x5
 4033 0f21 03       		.byte	0x3
 4034 0f22 00000000 		.4byte	CapSense_prtDRTbl
 4035 0f26 07       		.uleb128 0x7
 4036 0f27 CE0E0000 		.4byte	0xece
 4037 0f2b 16       		.uleb128 0x16
 4038 0f2c DE0E0000 		.4byte	0xede
 4039 0f30 3B0F0000 		.4byte	0xf3b
 4040 0f34 17       		.uleb128 0x17
 4041 0f35 C6000000 		.4byte	0xc6
 4042 0f39 04       		.byte	0x4
 4043 0f3a 00       		.byte	0
 4044 0f3b 15       		.uleb128 0x15
 4045 0f3c 14050000 		.4byte	.LASF118
 4046 0f40 01       		.byte	0x1
 4047 0f41 44       		.byte	0x44
 4048 0f42 2B0F0000 		.4byte	0xf2b
 4049 0f46 05       		.uleb128 0x5
 4050 0f47 03       		.byte	0x3
ARM GAS  C:\Users\Zeynep\AppData\Local\Temp\ccgAGQqu.s 			page 115


 4051 0f48 00000000 		.4byte	CapSense_pcTable
 4052 0f4c 15       		.uleb128 0x15
 4053 0f4d 8A080000 		.4byte	.LASF119
 4054 0f51 01       		.byte	0x1
 4055 0f52 4C       		.byte	0x4c
 4056 0f53 5D0F0000 		.4byte	0xf5d
 4057 0f57 05       		.uleb128 0x5
 4058 0f58 03       		.byte	0x3
 4059 0f59 00000000 		.4byte	CapSense_portTable
 4060 0f5d 07       		.uleb128 0x7
 4061 0f5e A80E0000 		.4byte	0xea8
 4062 0f62 16       		.uleb128 0x16
 4063 0f63 720F0000 		.4byte	0xf72
 4064 0f67 720F0000 		.4byte	0xf72
 4065 0f6b 17       		.uleb128 0x17
 4066 0f6c C6000000 		.4byte	0xc6
 4067 0f70 04       		.byte	0x4
 4068 0f71 00       		.byte	0
 4069 0f72 07       		.uleb128 0x7
 4070 0f73 83000000 		.4byte	0x83
 4071 0f77 15       		.uleb128 0x15
 4072 0f78 81000000 		.4byte	.LASF120
 4073 0f7c 01       		.byte	0x1
 4074 0f7d 54       		.byte	0x54
 4075 0f7e 880F0000 		.4byte	0xf88
 4076 0f82 05       		.uleb128 0x5
 4077 0f83 03       		.byte	0x3
 4078 0f84 00000000 		.4byte	CapSense_maskTable
 4079 0f88 07       		.uleb128 0x7
 4080 0f89 620F0000 		.4byte	0xf62
 4081 0f8d 15       		.uleb128 0x15
 4082 0f8e D0050000 		.4byte	.LASF121
 4083 0f92 01       		.byte	0x1
 4084 0f93 5C       		.byte	0x5c
 4085 0f94 9E0F0000 		.4byte	0xf9e
 4086 0f98 05       		.uleb128 0x5
 4087 0f99 03       		.byte	0x3
 4088 0f9a 00000000 		.4byte	CapSense_pinShiftTbl
 4089 0f9e 07       		.uleb128 0x7
 4090 0f9f A80E0000 		.4byte	0xea8
 4091 0fa3 16       		.uleb128 0x16
 4092 0fa4 E0000000 		.4byte	0xe0
 4093 0fa8 B30F0000 		.4byte	0xfb3
 4094 0fac 17       		.uleb128 0x17
 4095 0fad C6000000 		.4byte	0xc6
 4096 0fb1 00       		.byte	0
 4097 0fb2 00       		.byte	0
 4098 0fb3 18       		.uleb128 0x18
 4099 0fb4 78010000 		.4byte	.LASF122
 4100 0fb8 03       		.byte	0x3
 4101 0fb9 3A01     		.2byte	0x13a
 4102 0fbb BF0F0000 		.4byte	0xfbf
 4103 0fbf 07       		.uleb128 0x7
 4104 0fc0 A30F0000 		.4byte	0xfa3
 4105 0fc4 18       		.uleb128 0x18
 4106 0fc5 90040000 		.4byte	.LASF123
 4107 0fc9 03       		.byte	0x3
ARM GAS  C:\Users\Zeynep\AppData\Local\Temp\ccgAGQqu.s 			page 116


 4108 0fca 3B01     		.2byte	0x13b
 4109 0fcc D00F0000 		.4byte	0xfd0
 4110 0fd0 07       		.uleb128 0x7
 4111 0fd1 A30F0000 		.4byte	0xfa3
 4112 0fd5 15       		.uleb128 0x15
 4113 0fd6 CD010000 		.4byte	.LASF124
 4114 0fda 01       		.byte	0x1
 4115 0fdb 37       		.byte	0x37
 4116 0fdc 6B000000 		.4byte	0x6b
 4117 0fe0 05       		.uleb128 0x5
 4118 0fe1 03       		.byte	0x3
 4119 0fe2 00000000 		.4byte	CapSense_csdTrim1
 4120 0fe6 19       		.uleb128 0x19
 4121 0fe7 2A010000 		.4byte	.LASF125
 4122 0feb 2A010000 		.4byte	.LASF125
 4123 0fef 04       		.byte	0x4
 4124 0ff0 D8       		.byte	0xd8
 4125 0ff1 19       		.uleb128 0x19
 4126 0ff2 2C050000 		.4byte	.LASF126
 4127 0ff6 2C050000 		.4byte	.LASF126
 4128 0ffa 04       		.byte	0x4
 4129 0ffb D0       		.byte	0xd0
 4130 0ffc 19       		.uleb128 0x19
 4131 0ffd 00000000 		.4byte	.LASF127
 4132 1001 00000000 		.4byte	.LASF127
 4133 1005 04       		.byte	0x4
 4134 1006 D3       		.byte	0xd3
 4135 1007 19       		.uleb128 0x19
 4136 1008 F1060000 		.4byte	.LASF128
 4137 100c F1060000 		.4byte	.LASF128
 4138 1010 05       		.byte	0x5
 4139 1011 27       		.byte	0x27
 4140 1012 19       		.uleb128 0x19
 4141 1013 B9080000 		.4byte	.LASF129
 4142 1017 B9080000 		.4byte	.LASF129
 4143 101b 06       		.byte	0x6
 4144 101c 27       		.byte	0x27
 4145 101d 19       		.uleb128 0x19
 4146 101e 16080000 		.4byte	.LASF130
 4147 1022 16080000 		.4byte	.LASF130
 4148 1026 06       		.byte	0x6
 4149 1027 29       		.byte	0x29
 4150 1028 19       		.uleb128 0x19
 4151 1029 E5090000 		.4byte	.LASF131
 4152 102d E5090000 		.4byte	.LASF131
 4153 1031 05       		.byte	0x5
 4154 1032 29       		.byte	0x29
 4155 1033 19       		.uleb128 0x19
 4156 1034 69000000 		.4byte	.LASF132
 4157 1038 69000000 		.4byte	.LASF132
 4158 103c 05       		.byte	0x5
 4159 103d 23       		.byte	0x23
 4160 103e 19       		.uleb128 0x19
 4161 103f FE080000 		.4byte	.LASF133
 4162 1043 FE080000 		.4byte	.LASF133
 4163 1047 06       		.byte	0x6
 4164 1048 23       		.byte	0x23
ARM GAS  C:\Users\Zeynep\AppData\Local\Temp\ccgAGQqu.s 			page 117


 4165 1049 19       		.uleb128 0x19
 4166 104a 140A0000 		.4byte	.LASF134
 4167 104e 140A0000 		.4byte	.LASF134
 4168 1052 04       		.byte	0x4
 4169 1053 D6       		.byte	0xd6
 4170 1054 19       		.uleb128 0x19
 4171 1055 3B0A0000 		.4byte	.LASF135
 4172 1059 3B0A0000 		.4byte	.LASF135
 4173 105d 04       		.byte	0x4
 4174 105e F8       		.byte	0xf8
 4175 105f 19       		.uleb128 0x19
 4176 1060 D2040000 		.4byte	.LASF136
 4177 1064 D2040000 		.4byte	.LASF136
 4178 1068 04       		.byte	0x4
 4179 1069 F9       		.byte	0xf9
 4180 106a 19       		.uleb128 0x19
 4181 106b E8040000 		.4byte	.LASF137
 4182 106f E8040000 		.4byte	.LASF137
 4183 1073 04       		.byte	0x4
 4184 1074 EF       		.byte	0xef
 4185 1075 1A       		.uleb128 0x1a
 4186 1076 1E090000 		.4byte	.LASF138
 4187 107a 1E090000 		.4byte	.LASF138
 4188 107e 07       		.byte	0x7
 4189 107f BD02     		.2byte	0x2bd
 4190 1081 00       		.byte	0
 4191              		.section	.debug_abbrev,"",%progbits
 4192              	.Ldebug_abbrev0:
 4193 0000 01       		.uleb128 0x1
 4194 0001 11       		.uleb128 0x11
 4195 0002 01       		.byte	0x1
 4196 0003 25       		.uleb128 0x25
 4197 0004 0E       		.uleb128 0xe
 4198 0005 13       		.uleb128 0x13
 4199 0006 0B       		.uleb128 0xb
 4200 0007 03       		.uleb128 0x3
 4201 0008 0E       		.uleb128 0xe
 4202 0009 1B       		.uleb128 0x1b
 4203 000a 0E       		.uleb128 0xe
 4204 000b 55       		.uleb128 0x55
 4205 000c 17       		.uleb128 0x17
 4206 000d 11       		.uleb128 0x11
 4207 000e 01       		.uleb128 0x1
 4208 000f 10       		.uleb128 0x10
 4209 0010 17       		.uleb128 0x17
 4210 0011 00       		.byte	0
 4211 0012 00       		.byte	0
 4212 0013 02       		.uleb128 0x2
 4213 0014 24       		.uleb128 0x24
 4214 0015 00       		.byte	0
 4215 0016 0B       		.uleb128 0xb
 4216 0017 0B       		.uleb128 0xb
 4217 0018 3E       		.uleb128 0x3e
 4218 0019 0B       		.uleb128 0xb
 4219 001a 03       		.uleb128 0x3
 4220 001b 0E       		.uleb128 0xe
 4221 001c 00       		.byte	0
ARM GAS  C:\Users\Zeynep\AppData\Local\Temp\ccgAGQqu.s 			page 118


 4222 001d 00       		.byte	0
 4223 001e 03       		.uleb128 0x3
 4224 001f 24       		.uleb128 0x24
 4225 0020 00       		.byte	0
 4226 0021 0B       		.uleb128 0xb
 4227 0022 0B       		.uleb128 0xb
 4228 0023 3E       		.uleb128 0x3e
 4229 0024 0B       		.uleb128 0xb
 4230 0025 03       		.uleb128 0x3
 4231 0026 08       		.uleb128 0x8
 4232 0027 00       		.byte	0
 4233 0028 00       		.byte	0
 4234 0029 04       		.uleb128 0x4
 4235 002a 16       		.uleb128 0x16
 4236 002b 00       		.byte	0
 4237 002c 03       		.uleb128 0x3
 4238 002d 0E       		.uleb128 0xe
 4239 002e 3A       		.uleb128 0x3a
 4240 002f 0B       		.uleb128 0xb
 4241 0030 3B       		.uleb128 0x3b
 4242 0031 05       		.uleb128 0x5
 4243 0032 49       		.uleb128 0x49
 4244 0033 13       		.uleb128 0x13
 4245 0034 00       		.byte	0
 4246 0035 00       		.byte	0
 4247 0036 05       		.uleb128 0x5
 4248 0037 35       		.uleb128 0x35
 4249 0038 00       		.byte	0
 4250 0039 49       		.uleb128 0x49
 4251 003a 13       		.uleb128 0x13
 4252 003b 00       		.byte	0
 4253 003c 00       		.byte	0
 4254 003d 06       		.uleb128 0x6
 4255 003e 0F       		.uleb128 0xf
 4256 003f 00       		.byte	0
 4257 0040 0B       		.uleb128 0xb
 4258 0041 0B       		.uleb128 0xb
 4259 0042 49       		.uleb128 0x49
 4260 0043 13       		.uleb128 0x13
 4261 0044 00       		.byte	0
 4262 0045 00       		.byte	0
 4263 0046 07       		.uleb128 0x7
 4264 0047 26       		.uleb128 0x26
 4265 0048 00       		.byte	0
 4266 0049 49       		.uleb128 0x49
 4267 004a 13       		.uleb128 0x13
 4268 004b 00       		.byte	0
 4269 004c 00       		.byte	0
 4270 004d 08       		.uleb128 0x8
 4271 004e 2E       		.uleb128 0x2e
 4272 004f 01       		.byte	0x1
 4273 0050 3F       		.uleb128 0x3f
 4274 0051 19       		.uleb128 0x19
 4275 0052 03       		.uleb128 0x3
 4276 0053 0E       		.uleb128 0xe
 4277 0054 3A       		.uleb128 0x3a
 4278 0055 0B       		.uleb128 0xb
ARM GAS  C:\Users\Zeynep\AppData\Local\Temp\ccgAGQqu.s 			page 119


 4279 0056 3B       		.uleb128 0x3b
 4280 0057 0B       		.uleb128 0xb
 4281 0058 27       		.uleb128 0x27
 4282 0059 19       		.uleb128 0x19
 4283 005a 11       		.uleb128 0x11
 4284 005b 01       		.uleb128 0x1
 4285 005c 12       		.uleb128 0x12
 4286 005d 06       		.uleb128 0x6
 4287 005e 40       		.uleb128 0x40
 4288 005f 18       		.uleb128 0x18
 4289 0060 9742     		.uleb128 0x2117
 4290 0062 19       		.uleb128 0x19
 4291 0063 01       		.uleb128 0x1
 4292 0064 13       		.uleb128 0x13
 4293 0065 00       		.byte	0
 4294 0066 00       		.byte	0
 4295 0067 09       		.uleb128 0x9
 4296 0068 34       		.uleb128 0x34
 4297 0069 00       		.byte	0
 4298 006a 03       		.uleb128 0x3
 4299 006b 0E       		.uleb128 0xe
 4300 006c 3A       		.uleb128 0x3a
 4301 006d 0B       		.uleb128 0xb
 4302 006e 3B       		.uleb128 0x3b
 4303 006f 0B       		.uleb128 0xb
 4304 0070 49       		.uleb128 0x49
 4305 0071 13       		.uleb128 0x13
 4306 0072 02       		.uleb128 0x2
 4307 0073 17       		.uleb128 0x17
 4308 0074 00       		.byte	0
 4309 0075 00       		.byte	0
 4310 0076 0A       		.uleb128 0xa
 4311 0077 898201   		.uleb128 0x4109
 4312 007a 01       		.byte	0x1
 4313 007b 11       		.uleb128 0x11
 4314 007c 01       		.uleb128 0x1
 4315 007d 31       		.uleb128 0x31
 4316 007e 13       		.uleb128 0x13
 4317 007f 01       		.uleb128 0x1
 4318 0080 13       		.uleb128 0x13
 4319 0081 00       		.byte	0
 4320 0082 00       		.byte	0
 4321 0083 0B       		.uleb128 0xb
 4322 0084 8A8201   		.uleb128 0x410a
 4323 0087 00       		.byte	0
 4324 0088 02       		.uleb128 0x2
 4325 0089 18       		.uleb128 0x18
 4326 008a 9142     		.uleb128 0x2111
 4327 008c 18       		.uleb128 0x18
 4328 008d 00       		.byte	0
 4329 008e 00       		.byte	0
 4330 008f 0C       		.uleb128 0xc
 4331 0090 898201   		.uleb128 0x4109
 4332 0093 01       		.byte	0x1
 4333 0094 11       		.uleb128 0x11
 4334 0095 01       		.uleb128 0x1
 4335 0096 31       		.uleb128 0x31
ARM GAS  C:\Users\Zeynep\AppData\Local\Temp\ccgAGQqu.s 			page 120


 4336 0097 13       		.uleb128 0x13
 4337 0098 00       		.byte	0
 4338 0099 00       		.byte	0
 4339 009a 0D       		.uleb128 0xd
 4340 009b 2E       		.uleb128 0x2e
 4341 009c 01       		.byte	0x1
 4342 009d 3F       		.uleb128 0x3f
 4343 009e 19       		.uleb128 0x19
 4344 009f 03       		.uleb128 0x3
 4345 00a0 0E       		.uleb128 0xe
 4346 00a1 3A       		.uleb128 0x3a
 4347 00a2 0B       		.uleb128 0xb
 4348 00a3 3B       		.uleb128 0x3b
 4349 00a4 05       		.uleb128 0x5
 4350 00a5 27       		.uleb128 0x27
 4351 00a6 19       		.uleb128 0x19
 4352 00a7 11       		.uleb128 0x11
 4353 00a8 01       		.uleb128 0x1
 4354 00a9 12       		.uleb128 0x12
 4355 00aa 06       		.uleb128 0x6
 4356 00ab 40       		.uleb128 0x40
 4357 00ac 18       		.uleb128 0x18
 4358 00ad 9742     		.uleb128 0x2117
 4359 00af 19       		.uleb128 0x19
 4360 00b0 01       		.uleb128 0x1
 4361 00b1 13       		.uleb128 0x13
 4362 00b2 00       		.byte	0
 4363 00b3 00       		.byte	0
 4364 00b4 0E       		.uleb128 0xe
 4365 00b5 34       		.uleb128 0x34
 4366 00b6 00       		.byte	0
 4367 00b7 03       		.uleb128 0x3
 4368 00b8 0E       		.uleb128 0xe
 4369 00b9 3A       		.uleb128 0x3a
 4370 00ba 0B       		.uleb128 0xb
 4371 00bb 3B       		.uleb128 0x3b
 4372 00bc 05       		.uleb128 0x5
 4373 00bd 49       		.uleb128 0x49
 4374 00be 13       		.uleb128 0x13
 4375 00bf 02       		.uleb128 0x2
 4376 00c0 17       		.uleb128 0x17
 4377 00c1 00       		.byte	0
 4378 00c2 00       		.byte	0
 4379 00c3 0F       		.uleb128 0xf
 4380 00c4 898201   		.uleb128 0x4109
 4381 00c7 00       		.byte	0
 4382 00c8 11       		.uleb128 0x11
 4383 00c9 01       		.uleb128 0x1
 4384 00ca 31       		.uleb128 0x31
 4385 00cb 13       		.uleb128 0x13
 4386 00cc 00       		.byte	0
 4387 00cd 00       		.byte	0
 4388 00ce 10       		.uleb128 0x10
 4389 00cf 2E       		.uleb128 0x2e
 4390 00d0 00       		.byte	0
 4391 00d1 3F       		.uleb128 0x3f
 4392 00d2 19       		.uleb128 0x19
ARM GAS  C:\Users\Zeynep\AppData\Local\Temp\ccgAGQqu.s 			page 121


 4393 00d3 03       		.uleb128 0x3
 4394 00d4 0E       		.uleb128 0xe
 4395 00d5 3A       		.uleb128 0x3a
 4396 00d6 0B       		.uleb128 0xb
 4397 00d7 3B       		.uleb128 0x3b
 4398 00d8 05       		.uleb128 0x5
 4399 00d9 27       		.uleb128 0x27
 4400 00da 19       		.uleb128 0x19
 4401 00db 49       		.uleb128 0x49
 4402 00dc 13       		.uleb128 0x13
 4403 00dd 11       		.uleb128 0x11
 4404 00de 01       		.uleb128 0x1
 4405 00df 12       		.uleb128 0x12
 4406 00e0 06       		.uleb128 0x6
 4407 00e1 40       		.uleb128 0x40
 4408 00e2 18       		.uleb128 0x18
 4409 00e3 9742     		.uleb128 0x2117
 4410 00e5 19       		.uleb128 0x19
 4411 00e6 00       		.byte	0
 4412 00e7 00       		.byte	0
 4413 00e8 11       		.uleb128 0x11
 4414 00e9 2E       		.uleb128 0x2e
 4415 00ea 01       		.byte	0x1
 4416 00eb 3F       		.uleb128 0x3f
 4417 00ec 19       		.uleb128 0x19
 4418 00ed 03       		.uleb128 0x3
 4419 00ee 0E       		.uleb128 0xe
 4420 00ef 3A       		.uleb128 0x3a
 4421 00f0 0B       		.uleb128 0xb
 4422 00f1 3B       		.uleb128 0x3b
 4423 00f2 05       		.uleb128 0x5
 4424 00f3 27       		.uleb128 0x27
 4425 00f4 19       		.uleb128 0x19
 4426 00f5 49       		.uleb128 0x49
 4427 00f6 13       		.uleb128 0x13
 4428 00f7 11       		.uleb128 0x11
 4429 00f8 01       		.uleb128 0x1
 4430 00f9 12       		.uleb128 0x12
 4431 00fa 06       		.uleb128 0x6
 4432 00fb 40       		.uleb128 0x40
 4433 00fc 18       		.uleb128 0x18
 4434 00fd 9742     		.uleb128 0x2117
 4435 00ff 19       		.uleb128 0x19
 4436 0100 01       		.uleb128 0x1
 4437 0101 13       		.uleb128 0x13
 4438 0102 00       		.byte	0
 4439 0103 00       		.byte	0
 4440 0104 12       		.uleb128 0x12
 4441 0105 05       		.uleb128 0x5
 4442 0106 00       		.byte	0
 4443 0107 03       		.uleb128 0x3
 4444 0108 0E       		.uleb128 0xe
 4445 0109 3A       		.uleb128 0x3a
 4446 010a 0B       		.uleb128 0xb
 4447 010b 3B       		.uleb128 0x3b
 4448 010c 05       		.uleb128 0x5
 4449 010d 49       		.uleb128 0x49
ARM GAS  C:\Users\Zeynep\AppData\Local\Temp\ccgAGQqu.s 			page 122


 4450 010e 13       		.uleb128 0x13
 4451 010f 02       		.uleb128 0x2
 4452 0110 17       		.uleb128 0x17
 4453 0111 00       		.byte	0
 4454 0112 00       		.byte	0
 4455 0113 13       		.uleb128 0x13
 4456 0114 05       		.uleb128 0x5
 4457 0115 00       		.byte	0
 4458 0116 03       		.uleb128 0x3
 4459 0117 0E       		.uleb128 0xe
 4460 0118 3A       		.uleb128 0x3a
 4461 0119 0B       		.uleb128 0xb
 4462 011a 3B       		.uleb128 0x3b
 4463 011b 05       		.uleb128 0x5
 4464 011c 49       		.uleb128 0x49
 4465 011d 13       		.uleb128 0x13
 4466 011e 02       		.uleb128 0x2
 4467 011f 18       		.uleb128 0x18
 4468 0120 00       		.byte	0
 4469 0121 00       		.byte	0
 4470 0122 14       		.uleb128 0x14
 4471 0123 34       		.uleb128 0x34
 4472 0124 00       		.byte	0
 4473 0125 03       		.uleb128 0x3
 4474 0126 0E       		.uleb128 0xe
 4475 0127 3A       		.uleb128 0x3a
 4476 0128 0B       		.uleb128 0xb
 4477 0129 3B       		.uleb128 0x3b
 4478 012a 05       		.uleb128 0x5
 4479 012b 49       		.uleb128 0x49
 4480 012c 13       		.uleb128 0x13
 4481 012d 02       		.uleb128 0x2
 4482 012e 18       		.uleb128 0x18
 4483 012f 00       		.byte	0
 4484 0130 00       		.byte	0
 4485 0131 15       		.uleb128 0x15
 4486 0132 34       		.uleb128 0x34
 4487 0133 00       		.byte	0
 4488 0134 03       		.uleb128 0x3
 4489 0135 0E       		.uleb128 0xe
 4490 0136 3A       		.uleb128 0x3a
 4491 0137 0B       		.uleb128 0xb
 4492 0138 3B       		.uleb128 0x3b
 4493 0139 0B       		.uleb128 0xb
 4494 013a 49       		.uleb128 0x49
 4495 013b 13       		.uleb128 0x13
 4496 013c 3F       		.uleb128 0x3f
 4497 013d 19       		.uleb128 0x19
 4498 013e 02       		.uleb128 0x2
 4499 013f 18       		.uleb128 0x18
 4500 0140 00       		.byte	0
 4501 0141 00       		.byte	0
 4502 0142 16       		.uleb128 0x16
 4503 0143 01       		.uleb128 0x1
 4504 0144 01       		.byte	0x1
 4505 0145 49       		.uleb128 0x49
 4506 0146 13       		.uleb128 0x13
ARM GAS  C:\Users\Zeynep\AppData\Local\Temp\ccgAGQqu.s 			page 123


 4507 0147 01       		.uleb128 0x1
 4508 0148 13       		.uleb128 0x13
 4509 0149 00       		.byte	0
 4510 014a 00       		.byte	0
 4511 014b 17       		.uleb128 0x17
 4512 014c 21       		.uleb128 0x21
 4513 014d 00       		.byte	0
 4514 014e 49       		.uleb128 0x49
 4515 014f 13       		.uleb128 0x13
 4516 0150 2F       		.uleb128 0x2f
 4517 0151 0B       		.uleb128 0xb
 4518 0152 00       		.byte	0
 4519 0153 00       		.byte	0
 4520 0154 18       		.uleb128 0x18
 4521 0155 34       		.uleb128 0x34
 4522 0156 00       		.byte	0
 4523 0157 03       		.uleb128 0x3
 4524 0158 0E       		.uleb128 0xe
 4525 0159 3A       		.uleb128 0x3a
 4526 015a 0B       		.uleb128 0xb
 4527 015b 3B       		.uleb128 0x3b
 4528 015c 05       		.uleb128 0x5
 4529 015d 49       		.uleb128 0x49
 4530 015e 13       		.uleb128 0x13
 4531 015f 3F       		.uleb128 0x3f
 4532 0160 19       		.uleb128 0x19
 4533 0161 3C       		.uleb128 0x3c
 4534 0162 19       		.uleb128 0x19
 4535 0163 00       		.byte	0
 4536 0164 00       		.byte	0
 4537 0165 19       		.uleb128 0x19
 4538 0166 2E       		.uleb128 0x2e
 4539 0167 00       		.byte	0
 4540 0168 3F       		.uleb128 0x3f
 4541 0169 19       		.uleb128 0x19
 4542 016a 3C       		.uleb128 0x3c
 4543 016b 19       		.uleb128 0x19
 4544 016c 6E       		.uleb128 0x6e
 4545 016d 0E       		.uleb128 0xe
 4546 016e 03       		.uleb128 0x3
 4547 016f 0E       		.uleb128 0xe
 4548 0170 3A       		.uleb128 0x3a
 4549 0171 0B       		.uleb128 0xb
 4550 0172 3B       		.uleb128 0x3b
 4551 0173 0B       		.uleb128 0xb
 4552 0174 00       		.byte	0
 4553 0175 00       		.byte	0
 4554 0176 1A       		.uleb128 0x1a
 4555 0177 2E       		.uleb128 0x2e
 4556 0178 00       		.byte	0
 4557 0179 3F       		.uleb128 0x3f
 4558 017a 19       		.uleb128 0x19
 4559 017b 3C       		.uleb128 0x3c
 4560 017c 19       		.uleb128 0x19
 4561 017d 6E       		.uleb128 0x6e
 4562 017e 0E       		.uleb128 0xe
 4563 017f 03       		.uleb128 0x3
ARM GAS  C:\Users\Zeynep\AppData\Local\Temp\ccgAGQqu.s 			page 124


 4564 0180 0E       		.uleb128 0xe
 4565 0181 3A       		.uleb128 0x3a
 4566 0182 0B       		.uleb128 0xb
 4567 0183 3B       		.uleb128 0x3b
 4568 0184 05       		.uleb128 0x5
 4569 0185 00       		.byte	0
 4570 0186 00       		.byte	0
 4571 0187 00       		.byte	0
 4572              		.section	.debug_loc,"",%progbits
 4573              	.Ldebug_loc0:
 4574              	.LLST0:
 4575 0000 0C000000 		.4byte	.LVL0
 4576 0004 10000000 		.4byte	.LVL1
 4577 0008 0100     		.2byte	0x1
 4578 000a 53       		.byte	0x53
 4579 000b 12000000 		.4byte	.LVL2
 4580 000f 1C000000 		.4byte	.LVL3
 4581 0013 0100     		.2byte	0x1
 4582 0015 51       		.byte	0x51
 4583 0016 1C000000 		.4byte	.LVL3
 4584 001a 2C000000 		.4byte	.LVL6
 4585 001e 0100     		.2byte	0x1
 4586 0020 53       		.byte	0x53
 4587 0021 2C000000 		.4byte	.LVL6
 4588 0025 2E000000 		.4byte	.LVL7
 4589 0029 0200     		.2byte	0x2
 4590 002b 70       		.byte	0x70
 4591 002c 00       		.sleb128 0
 4592 002d 38000000 		.4byte	.LVL8
 4593 0031 3C000000 		.4byte	.LVL9
 4594 0035 0100     		.2byte	0x1
 4595 0037 51       		.byte	0x51
 4596 0038 3C000000 		.4byte	.LVL9
 4597 003c 49000000 		.4byte	.LVL11-1
 4598 0040 0100     		.2byte	0x1
 4599 0042 53       		.byte	0x53
 4600 0043 00000000 		.4byte	0
 4601 0047 00000000 		.4byte	0
 4602              	.LLST1:
 4603 004b 26000000 		.4byte	.LVL20
 4604 004f 31000000 		.4byte	.LVL22-1
 4605 0053 0100     		.2byte	0x1
 4606 0055 53       		.byte	0x53
 4607 0056 00000000 		.4byte	0
 4608 005a 00000000 		.4byte	0
 4609              	.LLST2:
 4610 005e 00000000 		.4byte	.LVL26
 4611 0062 02000000 		.4byte	.LVL27
 4612 0066 0100     		.2byte	0x1
 4613 0068 50       		.byte	0x50
 4614 0069 02000000 		.4byte	.LVL27
 4615 006d 10000000 		.4byte	.LFE42
 4616 0071 0400     		.2byte	0x4
 4617 0073 F3       		.byte	0xf3
 4618 0074 01       		.uleb128 0x1
 4619 0075 50       		.byte	0x50
 4620 0076 9F       		.byte	0x9f
ARM GAS  C:\Users\Zeynep\AppData\Local\Temp\ccgAGQqu.s 			page 125


 4621 0077 00000000 		.4byte	0
 4622 007b 00000000 		.4byte	0
 4623              	.LLST3:
 4624 007f 00000000 		.4byte	.LVL28
 4625 0083 02000000 		.4byte	.LVL29
 4626 0087 0100     		.2byte	0x1
 4627 0089 50       		.byte	0x50
 4628 008a 02000000 		.4byte	.LVL29
 4629 008e 10000000 		.4byte	.LFE43
 4630 0092 0400     		.2byte	0x4
 4631 0094 F3       		.byte	0xf3
 4632 0095 01       		.uleb128 0x1
 4633 0096 50       		.byte	0x50
 4634 0097 9F       		.byte	0x9f
 4635 0098 00000000 		.4byte	0
 4636 009c 00000000 		.4byte	0
 4637              	.LLST4:
 4638 00a0 00000000 		.4byte	.LVL30
 4639 00a4 02000000 		.4byte	.LVL31
 4640 00a8 0100     		.2byte	0x1
 4641 00aa 50       		.byte	0x50
 4642 00ab 02000000 		.4byte	.LVL31
 4643 00af 0C000000 		.4byte	.LFE44
 4644 00b3 0400     		.2byte	0x4
 4645 00b5 F3       		.byte	0xf3
 4646 00b6 01       		.uleb128 0x1
 4647 00b7 50       		.byte	0x50
 4648 00b8 9F       		.byte	0x9f
 4649 00b9 00000000 		.4byte	0
 4650 00bd 00000000 		.4byte	0
 4651              	.LLST5:
 4652 00c1 00000000 		.4byte	.LVL32
 4653 00c5 02000000 		.4byte	.LVL33
 4654 00c9 0100     		.2byte	0x1
 4655 00cb 50       		.byte	0x50
 4656 00cc 02000000 		.4byte	.LVL33
 4657 00d0 0C000000 		.4byte	.LFE45
 4658 00d4 0400     		.2byte	0x4
 4659 00d6 F3       		.byte	0xf3
 4660 00d7 01       		.uleb128 0x1
 4661 00d8 50       		.byte	0x50
 4662 00d9 9F       		.byte	0x9f
 4663 00da 00000000 		.4byte	0
 4664 00de 00000000 		.4byte	0
 4665              	.LLST6:
 4666 00e2 00000000 		.4byte	.LVL34
 4667 00e6 08000000 		.4byte	.LVL36
 4668 00ea 0100     		.2byte	0x1
 4669 00ec 50       		.byte	0x50
 4670 00ed 08000000 		.4byte	.LVL36
 4671 00f1 48000000 		.4byte	.LFE47
 4672 00f5 0400     		.2byte	0x4
 4673 00f7 F3       		.byte	0xf3
 4674 00f8 01       		.uleb128 0x1
 4675 00f9 50       		.byte	0x50
 4676 00fa 9F       		.byte	0x9f
 4677 00fb 00000000 		.4byte	0
ARM GAS  C:\Users\Zeynep\AppData\Local\Temp\ccgAGQqu.s 			page 126


 4678 00ff 00000000 		.4byte	0
 4679              	.LLST7:
 4680 0103 10000000 		.4byte	.LVL37
 4681 0107 40000000 		.4byte	.LVL47
 4682 010b 0100     		.2byte	0x1
 4683 010d 55       		.byte	0x55
 4684 010e 40000000 		.4byte	.LVL47
 4685 0112 40000000 		.4byte	.LVL48
 4686 0116 1E00     		.2byte	0x1e
 4687 0118 77       		.byte	0x77
 4688 0119 00       		.sleb128 0
 4689 011a F3       		.byte	0xf3
 4690 011b 01       		.uleb128 0x1
 4691 011c 50       		.byte	0x50
 4692 011d 22       		.byte	0x22
 4693 011e 23       		.byte	0x23
 4694 011f 08       		.uleb128 0x8
 4695 0120 94       		.byte	0x94
 4696 0121 01       		.byte	0x1
 4697 0122 08       		.byte	0x8
 4698 0123 FF       		.byte	0xff
 4699 0124 1A       		.byte	0x1a
 4700 0125 31       		.byte	0x31
 4701 0126 24       		.byte	0x24
 4702 0127 77       		.byte	0x77
 4703 0128 00       		.sleb128 0
 4704 0129 F3       		.byte	0xf3
 4705 012a 01       		.uleb128 0x1
 4706 012b 50       		.byte	0x50
 4707 012c 22       		.byte	0x22
 4708 012d 23       		.byte	0x23
 4709 012e 08       		.uleb128 0x8
 4710 012f 94       		.byte	0x94
 4711 0130 01       		.byte	0x1
 4712 0131 08       		.byte	0x8
 4713 0132 FF       		.byte	0xff
 4714 0133 1A       		.byte	0x1a
 4715 0134 22       		.byte	0x22
 4716 0135 9F       		.byte	0x9f
 4717 0136 40000000 		.4byte	.LVL48
 4718 013a 48000000 		.4byte	.LFE47
 4719 013e 2000     		.2byte	0x20
 4720 0140 F3       		.byte	0xf3
 4721 0141 01       		.uleb128 0x1
 4722 0142 50       		.byte	0x50
 4723 0143 03       		.byte	0x3
 4724 0144 08000000 		.4byte	.LANCHOR2+8
 4725 0148 22       		.byte	0x22
 4726 0149 94       		.byte	0x94
 4727 014a 01       		.byte	0x1
 4728 014b 08       		.byte	0x8
 4729 014c FF       		.byte	0xff
 4730 014d 1A       		.byte	0x1a
 4731 014e 31       		.byte	0x31
 4732 014f 24       		.byte	0x24
 4733 0150 F3       		.byte	0xf3
 4734 0151 01       		.uleb128 0x1
ARM GAS  C:\Users\Zeynep\AppData\Local\Temp\ccgAGQqu.s 			page 127


 4735 0152 50       		.byte	0x50
 4736 0153 03       		.byte	0x3
 4737 0154 08000000 		.4byte	.LANCHOR2+8
 4738 0158 22       		.byte	0x22
 4739 0159 94       		.byte	0x94
 4740 015a 01       		.byte	0x1
 4741 015b 08       		.byte	0x8
 4742 015c FF       		.byte	0xff
 4743 015d 1A       		.byte	0x1a
 4744 015e 22       		.byte	0x22
 4745 015f 9F       		.byte	0x9f
 4746 0160 00000000 		.4byte	0
 4747 0164 00000000 		.4byte	0
 4748              	.LLST8:
 4749 0168 14000000 		.4byte	.LVL38
 4750 016c 30000000 		.4byte	.LVL45
 4751 0170 0100     		.2byte	0x1
 4752 0172 54       		.byte	0x54
 4753 0173 30000000 		.4byte	.LVL45
 4754 0177 40000000 		.4byte	.LVL48
 4755 017b 0D00     		.2byte	0xd
 4756 017d 77       		.byte	0x77
 4757 017e 00       		.sleb128 0
 4758 017f F3       		.byte	0xf3
 4759 0180 01       		.uleb128 0x1
 4760 0181 50       		.byte	0x50
 4761 0182 22       		.byte	0x22
 4762 0183 23       		.byte	0x23
 4763 0184 08       		.uleb128 0x8
 4764 0185 94       		.byte	0x94
 4765 0186 01       		.byte	0x1
 4766 0187 32       		.byte	0x32
 4767 0188 24       		.byte	0x24
 4768 0189 9F       		.byte	0x9f
 4769 018a 40000000 		.4byte	.LVL48
 4770 018e 48000000 		.4byte	.LFE47
 4771 0192 0E00     		.2byte	0xe
 4772 0194 F3       		.byte	0xf3
 4773 0195 01       		.uleb128 0x1
 4774 0196 50       		.byte	0x50
 4775 0197 03       		.byte	0x3
 4776 0198 08000000 		.4byte	.LANCHOR2+8
 4777 019c 22       		.byte	0x22
 4778 019d 94       		.byte	0x94
 4779 019e 01       		.byte	0x1
 4780 019f 32       		.byte	0x32
 4781 01a0 24       		.byte	0x24
 4782 01a1 9F       		.byte	0x9f
 4783 01a2 00000000 		.4byte	0
 4784 01a6 00000000 		.4byte	0
 4785              	.LLST9:
 4786 01aa 18000000 		.4byte	.LVL39
 4787 01ae 3F000000 		.4byte	.LVL46-1
 4788 01b2 0100     		.2byte	0x1
 4789 01b4 50       		.byte	0x50
 4790 01b5 00000000 		.4byte	0
 4791 01b9 00000000 		.4byte	0
ARM GAS  C:\Users\Zeynep\AppData\Local\Temp\ccgAGQqu.s 			page 128


 4792              	.LLST10:
 4793 01bd 20000000 		.4byte	.LVL41
 4794 01c1 26000000 		.4byte	.LVL42
 4795 01c5 0100     		.2byte	0x1
 4796 01c7 52       		.byte	0x52
 4797 01c8 28000000 		.4byte	.LVL43
 4798 01cc 2E000000 		.4byte	.LVL44
 4799 01d0 0100     		.2byte	0x1
 4800 01d2 51       		.byte	0x51
 4801 01d3 2E000000 		.4byte	.LVL44
 4802 01d7 3F000000 		.4byte	.LVL46-1
 4803 01db 0100     		.2byte	0x1
 4804 01dd 52       		.byte	0x52
 4805 01de 00000000 		.4byte	0
 4806 01e2 00000000 		.4byte	0
 4807              	.LLST11:
 4808 01e6 06000000 		.4byte	.LVL35
 4809 01ea 1E000000 		.4byte	.LVL40
 4810 01ee 0100     		.2byte	0x1
 4811 01f0 56       		.byte	0x56
 4812 01f1 1E000000 		.4byte	.LVL40
 4813 01f5 40000000 		.4byte	.LVL48
 4814 01f9 0C00     		.2byte	0xc
 4815 01fb 77       		.byte	0x77
 4816 01fc 00       		.sleb128 0
 4817 01fd F3       		.byte	0xf3
 4818 01fe 01       		.uleb128 0x1
 4819 01ff 50       		.byte	0x50
 4820 0200 22       		.byte	0x22
 4821 0201 94       		.byte	0x94
 4822 0202 01       		.byte	0x1
 4823 0203 08       		.byte	0x8
 4824 0204 FF       		.byte	0xff
 4825 0205 1A       		.byte	0x1a
 4826 0206 9F       		.byte	0x9f
 4827 0207 40000000 		.4byte	.LVL48
 4828 020b 48000000 		.4byte	.LFE47
 4829 020f 0F00     		.2byte	0xf
 4830 0211 F3       		.byte	0xf3
 4831 0212 01       		.uleb128 0x1
 4832 0213 50       		.byte	0x50
 4833 0214 03       		.byte	0x3
 4834 0215 00000000 		.4byte	.LANCHOR2
 4835 0219 22       		.byte	0x22
 4836 021a 94       		.byte	0x94
 4837 021b 01       		.byte	0x1
 4838 021c 08       		.byte	0x8
 4839 021d FF       		.byte	0xff
 4840 021e 1A       		.byte	0x1a
 4841 021f 9F       		.byte	0x9f
 4842 0220 00000000 		.4byte	0
 4843 0224 00000000 		.4byte	0
 4844              	.LLST12:
 4845 0228 00000000 		.4byte	.LVL49
 4846 022c 18000000 		.4byte	.LVL53
 4847 0230 0100     		.2byte	0x1
 4848 0232 50       		.byte	0x50
ARM GAS  C:\Users\Zeynep\AppData\Local\Temp\ccgAGQqu.s 			page 129


 4849 0233 18000000 		.4byte	.LVL53
 4850 0237 70000000 		.4byte	.LFE48
 4851 023b 0400     		.2byte	0x4
 4852 023d F3       		.byte	0xf3
 4853 023e 01       		.uleb128 0x1
 4854 023f 50       		.byte	0x50
 4855 0240 9F       		.byte	0x9f
 4856 0241 00000000 		.4byte	0
 4857 0245 00000000 		.4byte	0
 4858              	.LLST13:
 4859 0249 3C000000 		.4byte	.LVL56
 4860 024d 59000000 		.4byte	.LVL63-1
 4861 0251 0100     		.2byte	0x1
 4862 0253 50       		.byte	0x50
 4863 0254 00000000 		.4byte	0
 4864 0258 00000000 		.4byte	0
 4865              	.LLST14:
 4866 025c 46000000 		.4byte	.LVL59
 4867 0260 4C000000 		.4byte	.LVL60
 4868 0264 0100     		.2byte	0x1
 4869 0266 53       		.byte	0x53
 4870 0267 4E000000 		.4byte	.LVL61
 4871 026b 54000000 		.4byte	.LVL62
 4872 026f 0100     		.2byte	0x1
 4873 0271 52       		.byte	0x52
 4874 0272 54000000 		.4byte	.LVL62
 4875 0276 59000000 		.4byte	.LVL63-1
 4876 027a 0100     		.2byte	0x1
 4877 027c 53       		.byte	0x53
 4878 027d 00000000 		.4byte	0
 4879 0281 00000000 		.4byte	0
 4880              	.LLST15:
 4881 0285 06000000 		.4byte	.LVL50
 4882 0289 3E000000 		.4byte	.LVL57
 4883 028d 0100     		.2byte	0x1
 4884 028f 54       		.byte	0x54
 4885 0290 3E000000 		.4byte	.LVL57
 4886 0294 40000000 		.4byte	.LVL58
 4887 0298 0F00     		.2byte	0xf
 4888 029a F3       		.byte	0xf3
 4889 029b 01       		.uleb128 0x1
 4890 029c 50       		.byte	0x50
 4891 029d 03       		.byte	0x3
 4892 029e 00000000 		.4byte	.LANCHOR2
 4893 02a2 22       		.byte	0x22
 4894 02a3 94       		.byte	0x94
 4895 02a4 01       		.byte	0x1
 4896 02a5 08       		.byte	0x8
 4897 02a6 FF       		.byte	0xff
 4898 02a7 1A       		.byte	0x1a
 4899 02a8 9F       		.byte	0x9f
 4900 02a9 40000000 		.4byte	.LVL58
 4901 02ad 46000000 		.4byte	.LVL59
 4902 02b1 0C00     		.2byte	0xc
 4903 02b3 73       		.byte	0x73
 4904 02b4 00       		.sleb128 0
 4905 02b5 F3       		.byte	0xf3
ARM GAS  C:\Users\Zeynep\AppData\Local\Temp\ccgAGQqu.s 			page 130


 4906 02b6 01       		.uleb128 0x1
 4907 02b7 50       		.byte	0x50
 4908 02b8 22       		.byte	0x22
 4909 02b9 94       		.byte	0x94
 4910 02ba 01       		.byte	0x1
 4911 02bb 08       		.byte	0x8
 4912 02bc FF       		.byte	0xff
 4913 02bd 1A       		.byte	0x1a
 4914 02be 9F       		.byte	0x9f
 4915 02bf 46000000 		.4byte	.LVL59
 4916 02c3 70000000 		.4byte	.LFE48
 4917 02c7 0F00     		.2byte	0xf
 4918 02c9 F3       		.byte	0xf3
 4919 02ca 01       		.uleb128 0x1
 4920 02cb 50       		.byte	0x50
 4921 02cc 03       		.byte	0x3
 4922 02cd 00000000 		.4byte	.LANCHOR2
 4923 02d1 22       		.byte	0x22
 4924 02d2 94       		.byte	0x94
 4925 02d3 01       		.byte	0x1
 4926 02d4 08       		.byte	0x8
 4927 02d5 FF       		.byte	0xff
 4928 02d6 1A       		.byte	0x1a
 4929 02d7 9F       		.byte	0x9f
 4930 02d8 00000000 		.4byte	0
 4931 02dc 00000000 		.4byte	0
 4932              	.LLST16:
 4933 02e0 0E000000 		.4byte	.LVL51
 4934 02e4 3B000000 		.4byte	.LVL56-1
 4935 02e8 0100     		.2byte	0x1
 4936 02ea 51       		.byte	0x51
 4937 02eb 3B000000 		.4byte	.LVL56-1
 4938 02ef 66000000 		.4byte	.LVL66
 4939 02f3 0500     		.2byte	0x5
 4940 02f5 77       		.byte	0x77
 4941 02f6 00       		.sleb128 0
 4942 02f7 32       		.byte	0x32
 4943 02f8 24       		.byte	0x24
 4944 02f9 9F       		.byte	0x9f
 4945 02fa 66000000 		.4byte	.LVL66
 4946 02fe 70000000 		.4byte	.LFE48
 4947 0302 0E00     		.2byte	0xe
 4948 0304 F3       		.byte	0xf3
 4949 0305 01       		.uleb128 0x1
 4950 0306 50       		.byte	0x50
 4951 0307 03       		.byte	0x3
 4952 0308 08000000 		.4byte	.LANCHOR2+8
 4953 030c 22       		.byte	0x22
 4954 030d 94       		.byte	0x94
 4955 030e 01       		.byte	0x1
 4956 030f 32       		.byte	0x32
 4957 0310 24       		.byte	0x24
 4958 0311 9F       		.byte	0x9f
 4959 0312 00000000 		.4byte	0
 4960 0316 00000000 		.4byte	0
 4961              	.LLST17:
 4962 031a 14000000 		.4byte	.LVL52
ARM GAS  C:\Users\Zeynep\AppData\Local\Temp\ccgAGQqu.s 			page 131


 4963 031e 66000000 		.4byte	.LVL64
 4964 0322 0100     		.2byte	0x1
 4965 0324 55       		.byte	0x55
 4966 0325 66000000 		.4byte	.LVL64
 4967 0329 66000000 		.4byte	.LVL66
 4968 032d 0800     		.2byte	0x8
 4969 032f 77       		.byte	0x77
 4970 0330 00       		.sleb128 0
 4971 0331 31       		.byte	0x31
 4972 0332 24       		.byte	0x24
 4973 0333 77       		.byte	0x77
 4974 0334 00       		.sleb128 0
 4975 0335 22       		.byte	0x22
 4976 0336 9F       		.byte	0x9f
 4977 0337 66000000 		.4byte	.LVL66
 4978 033b 70000000 		.4byte	.LFE48
 4979 033f 2000     		.2byte	0x20
 4980 0341 F3       		.byte	0xf3
 4981 0342 01       		.uleb128 0x1
 4982 0343 50       		.byte	0x50
 4983 0344 03       		.byte	0x3
 4984 0345 08000000 		.4byte	.LANCHOR2+8
 4985 0349 22       		.byte	0x22
 4986 034a 94       		.byte	0x94
 4987 034b 01       		.byte	0x1
 4988 034c 08       		.byte	0x8
 4989 034d FF       		.byte	0xff
 4990 034e 1A       		.byte	0x1a
 4991 034f 31       		.byte	0x31
 4992 0350 24       		.byte	0x24
 4993 0351 F3       		.byte	0xf3
 4994 0352 01       		.uleb128 0x1
 4995 0353 50       		.byte	0x50
 4996 0354 03       		.byte	0x3
 4997 0355 08000000 		.4byte	.LANCHOR2+8
 4998 0359 22       		.byte	0x22
 4999 035a 94       		.byte	0x94
 5000 035b 01       		.byte	0x1
 5001 035c 08       		.byte	0x8
 5002 035d FF       		.byte	0xff
 5003 035e 1A       		.byte	0x1a
 5004 035f 22       		.byte	0x22
 5005 0360 9F       		.byte	0x9f
 5006 0361 00000000 		.4byte	0
 5007 0365 00000000 		.4byte	0
 5008              	.LLST18:
 5009 0369 14000000 		.4byte	.LVL52
 5010 036d 38000000 		.4byte	.LVL55
 5011 0371 0200     		.2byte	0x2
 5012 0373 30       		.byte	0x30
 5013 0374 9F       		.byte	0x9f
 5014 0375 38000000 		.4byte	.LVL55
 5015 0379 66000000 		.4byte	.LVL65
 5016 037d 0100     		.2byte	0x1
 5017 037f 56       		.byte	0x56
 5018 0380 00000000 		.4byte	0
 5019 0384 00000000 		.4byte	0
ARM GAS  C:\Users\Zeynep\AppData\Local\Temp\ccgAGQqu.s 			page 132


 5020              	.LLST19:
 5021 0388 18000000 		.4byte	.LVL53
 5022 038c 3B000000 		.4byte	.LVL56-1
 5023 0390 0100     		.2byte	0x1
 5024 0392 50       		.byte	0x50
 5025 0393 00000000 		.4byte	0
 5026 0397 00000000 		.4byte	0
 5027              	.LLST20:
 5028 039b 02000000 		.4byte	.LVL67
 5029 039f 06000000 		.4byte	.LVL68
 5030 03a3 0200     		.2byte	0x2
 5031 03a5 30       		.byte	0x30
 5032 03a6 9F       		.byte	0x9f
 5033 03a7 06000000 		.4byte	.LVL68
 5034 03ab 12000000 		.4byte	.LVL71
 5035 03af 0100     		.2byte	0x1
 5036 03b1 54       		.byte	0x54
 5037 03b2 00000000 		.4byte	0
 5038 03b6 00000000 		.4byte	0
 5039              	.LLST21:
 5040 03ba 00000000 		.4byte	.LVL72
 5041 03be 18000000 		.4byte	.LVL77
 5042 03c2 0100     		.2byte	0x1
 5043 03c4 50       		.byte	0x50
 5044 03c5 18000000 		.4byte	.LVL77
 5045 03c9 24000000 		.4byte	.LFE51
 5046 03cd 0400     		.2byte	0x4
 5047 03cf F3       		.byte	0xf3
 5048 03d0 01       		.uleb128 0x1
 5049 03d1 50       		.byte	0x50
 5050 03d2 9F       		.byte	0x9f
 5051 03d3 00000000 		.4byte	0
 5052 03d7 00000000 		.4byte	0
 5053              	.LLST22:
 5054 03db 00000000 		.4byte	.LVL72
 5055 03df 06000000 		.4byte	.LVL73
 5056 03e3 0100     		.2byte	0x1
 5057 03e5 51       		.byte	0x51
 5058 03e6 06000000 		.4byte	.LVL73
 5059 03ea 24000000 		.4byte	.LFE51
 5060 03ee 0400     		.2byte	0x4
 5061 03f0 F3       		.byte	0xf3
 5062 03f1 01       		.uleb128 0x1
 5063 03f2 51       		.byte	0x51
 5064 03f3 9F       		.byte	0x9f
 5065 03f4 00000000 		.4byte	0
 5066 03f8 00000000 		.4byte	0
 5067              	.LLST23:
 5068 03fc 00000000 		.4byte	.LVL72
 5069 0400 08000000 		.4byte	.LVL74
 5070 0404 0100     		.2byte	0x1
 5071 0406 52       		.byte	0x52
 5072 0407 08000000 		.4byte	.LVL74
 5073 040b 24000000 		.4byte	.LFE51
 5074 040f 0400     		.2byte	0x4
 5075 0411 F3       		.byte	0xf3
 5076 0412 01       		.uleb128 0x1
ARM GAS  C:\Users\Zeynep\AppData\Local\Temp\ccgAGQqu.s 			page 133


 5077 0413 52       		.byte	0x52
 5078 0414 9F       		.byte	0x9f
 5079 0415 00000000 		.4byte	0
 5080 0419 00000000 		.4byte	0
 5081              	.LLST24:
 5082 041d 10000000 		.4byte	.LVL75
 5083 0421 1A000000 		.4byte	.LVL78
 5084 0425 0100     		.2byte	0x1
 5085 0427 53       		.byte	0x53
 5086 0428 1A000000 		.4byte	.LVL78
 5087 042c 24000000 		.4byte	.LFE51
 5088 0430 0100     		.2byte	0x1
 5089 0432 50       		.byte	0x50
 5090 0433 00000000 		.4byte	0
 5091 0437 00000000 		.4byte	0
 5092              	.LLST25:
 5093 043b 00000000 		.4byte	.LVL79
 5094 043f 08000000 		.4byte	.LVL81
 5095 0443 0100     		.2byte	0x1
 5096 0445 50       		.byte	0x50
 5097 0446 08000000 		.4byte	.LVL81
 5098 044a 28000000 		.4byte	.LVL89
 5099 044e 0100     		.2byte	0x1
 5100 0450 55       		.byte	0x55
 5101 0451 28000000 		.4byte	.LVL89
 5102 0455 30000000 		.4byte	.LFE49
 5103 0459 0400     		.2byte	0x4
 5104 045b F3       		.byte	0xf3
 5105 045c 01       		.uleb128 0x1
 5106 045d 50       		.byte	0x50
 5107 045e 9F       		.byte	0x9f
 5108 045f 00000000 		.4byte	0
 5109 0463 00000000 		.4byte	0
 5110              	.LLST26:
 5111 0467 04000000 		.4byte	.LVL80
 5112 046b 08000000 		.4byte	.LVL81
 5113 046f 0200     		.2byte	0x2
 5114 0471 30       		.byte	0x30
 5115 0472 9F       		.byte	0x9f
 5116 0473 08000000 		.4byte	.LVL81
 5117 0477 18000000 		.4byte	.LVL85
 5118 047b 0100     		.2byte	0x1
 5119 047d 54       		.byte	0x54
 5120 047e 1A000000 		.4byte	.LVL86
 5121 0482 28000000 		.4byte	.LVL88
 5122 0486 0100     		.2byte	0x1
 5123 0488 54       		.byte	0x54
 5124 0489 00000000 		.4byte	0
 5125 048d 00000000 		.4byte	0
 5126              	.LLST27:
 5127 0491 0C000000 		.4byte	.LVL82
 5128 0495 15000000 		.4byte	.LVL84-1
 5129 0499 0100     		.2byte	0x1
 5130 049b 52       		.byte	0x52
 5131 049c 15000000 		.4byte	.LVL84-1
 5132 04a0 18000000 		.4byte	.LVL85
 5133 04a4 0E00     		.2byte	0xe
ARM GAS  C:\Users\Zeynep\AppData\Local\Temp\ccgAGQqu.s 			page 134


 5134 04a6 74       		.byte	0x74
 5135 04a7 00       		.sleb128 0
 5136 04a8 03       		.byte	0x3
 5137 04a9 00000000 		.4byte	.LANCHOR2
 5138 04ad 22       		.byte	0x22
 5139 04ae 94       		.byte	0x94
 5140 04af 01       		.byte	0x1
 5141 04b0 08       		.byte	0x8
 5142 04b1 FF       		.byte	0xff
 5143 04b2 1A       		.byte	0x1a
 5144 04b3 9F       		.byte	0x9f
 5145 04b4 18000000 		.4byte	.LVL85
 5146 04b8 1A000000 		.4byte	.LVL86
 5147 04bc 0E00     		.2byte	0xe
 5148 04be 74       		.byte	0x74
 5149 04bf 00       		.sleb128 0
 5150 04c0 03       		.byte	0x3
 5151 04c1 FFFFFFFF 		.4byte	.LANCHOR2-1
 5152 04c5 22       		.byte	0x22
 5153 04c6 94       		.byte	0x94
 5154 04c7 01       		.byte	0x1
 5155 04c8 08       		.byte	0x8
 5156 04c9 FF       		.byte	0xff
 5157 04ca 1A       		.byte	0x1a
 5158 04cb 9F       		.byte	0x9f
 5159 04cc 00000000 		.4byte	0
 5160 04d0 00000000 		.4byte	0
 5161              	.LLST28:
 5162 04d4 10000000 		.4byte	.LVL83
 5163 04d8 15000000 		.4byte	.LVL84-1
 5164 04dc 0100     		.2byte	0x1
 5165 04de 51       		.byte	0x51
 5166 04df 15000000 		.4byte	.LVL84-1
 5167 04e3 18000000 		.4byte	.LVL85
 5168 04e7 0E00     		.2byte	0xe
 5169 04e9 74       		.byte	0x74
 5170 04ea 00       		.sleb128 0
 5171 04eb 03       		.byte	0x3
 5172 04ec 08000000 		.4byte	.LANCHOR2+8
 5173 04f0 22       		.byte	0x22
 5174 04f1 94       		.byte	0x94
 5175 04f2 01       		.byte	0x1
 5176 04f3 08       		.byte	0x8
 5177 04f4 FF       		.byte	0xff
 5178 04f5 1A       		.byte	0x1a
 5179 04f6 9F       		.byte	0x9f
 5180 04f7 18000000 		.4byte	.LVL85
 5181 04fb 1A000000 		.4byte	.LVL86
 5182 04ff 0E00     		.2byte	0xe
 5183 0501 74       		.byte	0x74
 5184 0502 00       		.sleb128 0
 5185 0503 03       		.byte	0x3
 5186 0504 07000000 		.4byte	.LANCHOR2+7
 5187 0508 22       		.byte	0x22
 5188 0509 94       		.byte	0x94
 5189 050a 01       		.byte	0x1
 5190 050b 08       		.byte	0x8
ARM GAS  C:\Users\Zeynep\AppData\Local\Temp\ccgAGQqu.s 			page 135


 5191 050c FF       		.byte	0xff
 5192 050d 1A       		.byte	0x1a
 5193 050e 9F       		.byte	0x9f
 5194 050f 00000000 		.4byte	0
 5195 0513 00000000 		.4byte	0
 5196              	.LLST29:
 5197 0517 0C000000 		.4byte	.LVL91
 5198 051b 10000000 		.4byte	.LVL92
 5199 051f 0100     		.2byte	0x1
 5200 0521 51       		.byte	0x51
 5201 0522 10000000 		.4byte	.LVL92
 5202 0526 24000000 		.4byte	.LFE50
 5203 052a 0100     		.2byte	0x1
 5204 052c 53       		.byte	0x53
 5205 052d 00000000 		.4byte	0
 5206 0531 00000000 		.4byte	0
 5207              	.LLST30:
 5208 0535 00000000 		.4byte	.LVL94
 5209 0539 1E000000 		.4byte	.LVL97
 5210 053d 0100     		.2byte	0x1
 5211 053f 50       		.byte	0x50
 5212 0540 1E000000 		.4byte	.LVL97
 5213 0544 34000000 		.4byte	.LFE54
 5214 0548 0400     		.2byte	0x4
 5215 054a F3       		.byte	0xf3
 5216 054b 01       		.uleb128 0x1
 5217 054c 50       		.byte	0x50
 5218 054d 9F       		.byte	0x9f
 5219 054e 00000000 		.4byte	0
 5220 0552 00000000 		.4byte	0
 5221              	.LLST31:
 5222 0556 00000000 		.4byte	.LVL94
 5223 055a 04000000 		.4byte	.LVL95
 5224 055e 0100     		.2byte	0x1
 5225 0560 51       		.byte	0x51
 5226 0561 04000000 		.4byte	.LVL95
 5227 0565 34000000 		.4byte	.LFE54
 5228 0569 0400     		.2byte	0x4
 5229 056b F3       		.byte	0xf3
 5230 056c 01       		.uleb128 0x1
 5231 056d 51       		.byte	0x51
 5232 056e 9F       		.byte	0x9f
 5233 056f 00000000 		.4byte	0
 5234 0573 00000000 		.4byte	0
 5235              	.LLST32:
 5236 0577 1C000000 		.4byte	.LVL96
 5237 057b 24000000 		.4byte	.LVL98
 5238 057f 0100     		.2byte	0x1
 5239 0581 53       		.byte	0x53
 5240 0582 26000000 		.4byte	.LVL99
 5241 0586 2C000000 		.4byte	.LVL100
 5242 058a 0100     		.2byte	0x1
 5243 058c 52       		.byte	0x52
 5244 058d 2C000000 		.4byte	.LVL100
 5245 0591 34000000 		.4byte	.LFE54
 5246 0595 0100     		.2byte	0x1
 5247 0597 53       		.byte	0x53
ARM GAS  C:\Users\Zeynep\AppData\Local\Temp\ccgAGQqu.s 			page 136


 5248 0598 00000000 		.4byte	0
 5249 059c 00000000 		.4byte	0
 5250              	.LLST33:
 5251 05a0 00000000 		.4byte	.LVL101
 5252 05a4 00000000 		.4byte	.LVL101
 5253 05a8 0100     		.2byte	0x1
 5254 05aa 50       		.byte	0x50
 5255 05ab 00000000 		.4byte	.LVL101
 5256 05af 06000000 		.4byte	.LVL103
 5257 05b3 0500     		.2byte	0x5
 5258 05b5 70       		.byte	0x70
 5259 05b6 00       		.sleb128 0
 5260 05b7 33       		.byte	0x33
 5261 05b8 1A       		.byte	0x1a
 5262 05b9 9F       		.byte	0x9f
 5263 05ba 06000000 		.4byte	.LVL103
 5264 05be 18000000 		.4byte	.LFE55
 5265 05c2 0600     		.2byte	0x6
 5266 05c4 F3       		.byte	0xf3
 5267 05c5 01       		.uleb128 0x1
 5268 05c6 50       		.byte	0x50
 5269 05c7 33       		.byte	0x33
 5270 05c8 1A       		.byte	0x1a
 5271 05c9 9F       		.byte	0x9f
 5272 05ca 00000000 		.4byte	0
 5273 05ce 00000000 		.4byte	0
 5274              	.LLST34:
 5275 05d2 04000000 		.4byte	.LVL102
 5276 05d6 0E000000 		.4byte	.LVL104
 5277 05da 0100     		.2byte	0x1
 5278 05dc 51       		.byte	0x51
 5279 05dd 0E000000 		.4byte	.LVL104
 5280 05e1 18000000 		.4byte	.LFE55
 5281 05e5 0100     		.2byte	0x1
 5282 05e7 50       		.byte	0x50
 5283 05e8 00000000 		.4byte	0
 5284 05ec 00000000 		.4byte	0
 5285              	.LLST35:
 5286 05f0 00000000 		.4byte	.LVL105
 5287 05f4 12000000 		.4byte	.LVL110
 5288 05f8 0100     		.2byte	0x1
 5289 05fa 50       		.byte	0x50
 5290 05fb 12000000 		.4byte	.LVL110
 5291 05ff 14000000 		.4byte	.LVL111
 5292 0603 0400     		.2byte	0x4
 5293 0605 F3       		.byte	0xf3
 5294 0606 01       		.uleb128 0x1
 5295 0607 50       		.byte	0x50
 5296 0608 9F       		.byte	0x9f
 5297 0609 14000000 		.4byte	.LVL111
 5298 060d 16000000 		.4byte	.LVL112
 5299 0611 0100     		.2byte	0x1
 5300 0613 50       		.byte	0x50
 5301 0614 16000000 		.4byte	.LVL112
 5302 0618 18000000 		.4byte	.LFE57
 5303 061c 0400     		.2byte	0x4
 5304 061e F3       		.byte	0xf3
ARM GAS  C:\Users\Zeynep\AppData\Local\Temp\ccgAGQqu.s 			page 137


 5305 061f 01       		.uleb128 0x1
 5306 0620 50       		.byte	0x50
 5307 0621 9F       		.byte	0x9f
 5308 0622 00000000 		.4byte	0
 5309 0626 00000000 		.4byte	0
 5310              	.LLST36:
 5311 062a 00000000 		.4byte	.LVL105
 5312 062e 06000000 		.4byte	.LVL107
 5313 0632 0100     		.2byte	0x1
 5314 0634 51       		.byte	0x51
 5315 0635 06000000 		.4byte	.LVL107
 5316 0639 18000000 		.4byte	.LFE57
 5317 063d 0400     		.2byte	0x4
 5318 063f F3       		.byte	0xf3
 5319 0640 01       		.uleb128 0x1
 5320 0641 51       		.byte	0x51
 5321 0642 9F       		.byte	0x9f
 5322 0643 00000000 		.4byte	0
 5323 0647 00000000 		.4byte	0
 5324              	.LLST37:
 5325 064b 02000000 		.4byte	.LVL106
 5326 064f 0C000000 		.4byte	.LVL109
 5327 0653 0100     		.2byte	0x1
 5328 0655 52       		.byte	0x52
 5329 0656 0C000000 		.4byte	.LVL109
 5330 065a 18000000 		.4byte	.LFE57
 5331 065e 0600     		.2byte	0x6
 5332 0660 F3       		.byte	0xf3
 5333 0661 01       		.uleb128 0x1
 5334 0662 51       		.byte	0x51
 5335 0663 33       		.byte	0x33
 5336 0664 25       		.byte	0x25
 5337 0665 9F       		.byte	0x9f
 5338 0666 00000000 		.4byte	0
 5339 066a 00000000 		.4byte	0
 5340              	.LLST38:
 5341 066e 00000000 		.4byte	.LVL113
 5342 0672 04000000 		.4byte	.LVL114
 5343 0676 0100     		.2byte	0x1
 5344 0678 50       		.byte	0x50
 5345 0679 04000000 		.4byte	.LVL114
 5346 067d 06000000 		.4byte	.LVL115
 5347 0681 0100     		.2byte	0x1
 5348 0683 54       		.byte	0x54
 5349 0684 08000000 		.4byte	.LVL116
 5350 0688 1C000000 		.4byte	.LVL119
 5351 068c 0100     		.2byte	0x1
 5352 068e 54       		.byte	0x54
 5353 068f 1C000000 		.4byte	.LVL119
 5354 0693 24000000 		.4byte	.LFE37
 5355 0697 0100     		.2byte	0x1
 5356 0699 50       		.byte	0x50
 5357 069a 00000000 		.4byte	0
 5358 069e 00000000 		.4byte	0
 5359              	.LLST39:
 5360 06a2 16000000 		.4byte	.LVL117
 5361 06a6 1A000000 		.4byte	.LVL118
ARM GAS  C:\Users\Zeynep\AppData\Local\Temp\ccgAGQqu.s 			page 138


 5362 06aa 0100     		.2byte	0x1
 5363 06ac 50       		.byte	0x50
 5364 06ad 00000000 		.4byte	0
 5365 06b1 00000000 		.4byte	0
 5366              	.LLST40:
 5367 06b5 00000000 		.4byte	.LVL120
 5368 06b9 16000000 		.4byte	.LVL125
 5369 06bd 0100     		.2byte	0x1
 5370 06bf 50       		.byte	0x50
 5371 06c0 16000000 		.4byte	.LVL125
 5372 06c4 19000000 		.4byte	.LVL126-1
 5373 06c8 0100     		.2byte	0x1
 5374 06ca 51       		.byte	0x51
 5375 06cb 19000000 		.4byte	.LVL126-1
 5376 06cf 80000000 		.4byte	.LVL142
 5377 06d3 0100     		.2byte	0x1
 5378 06d5 54       		.byte	0x54
 5379 06d6 80000000 		.4byte	.LVL142
 5380 06da CC000000 		.4byte	.LFE52
 5381 06de 0400     		.2byte	0x4
 5382 06e0 F3       		.byte	0xf3
 5383 06e1 01       		.uleb128 0x1
 5384 06e2 50       		.byte	0x50
 5385 06e3 9F       		.byte	0x9f
 5386 06e4 00000000 		.4byte	0
 5387 06e8 00000000 		.4byte	0
 5388              	.LLST41:
 5389 06ec 0C000000 		.4byte	.LVL121
 5390 06f0 0E000000 		.4byte	.LVL122
 5391 06f4 0100     		.2byte	0x1
 5392 06f6 53       		.byte	0x53
 5393 06f7 0E000000 		.4byte	.LVL122
 5394 06fb 10000000 		.4byte	.LVL123
 5395 06ff 0B00     		.2byte	0xb
 5396 0701 70       		.byte	0x70
 5397 0702 00       		.sleb128 0
 5398 0703 72       		.byte	0x72
 5399 0704 00       		.sleb128 0
 5400 0705 22       		.byte	0x22
 5401 0706 03       		.byte	0x3
 5402 0707 00000000 		.4byte	.LANCHOR2
 5403 070b 22       		.byte	0x22
 5404 070c 10000000 		.4byte	.LVL123
 5405 0710 16000000 		.4byte	.LVL125
 5406 0714 0800     		.2byte	0x8
 5407 0716 70       		.byte	0x70
 5408 0717 00       		.sleb128 0
 5409 0718 03       		.byte	0x3
 5410 0719 4C000000 		.4byte	.LANCHOR2+76
 5411 071d 22       		.byte	0x22
 5412 071e 16000000 		.4byte	.LVL125
 5413 0722 19000000 		.4byte	.LVL126-1
 5414 0726 0800     		.2byte	0x8
 5415 0728 71       		.byte	0x71
 5416 0729 00       		.sleb128 0
 5417 072a 03       		.byte	0x3
 5418 072b 4C000000 		.4byte	.LANCHOR2+76
ARM GAS  C:\Users\Zeynep\AppData\Local\Temp\ccgAGQqu.s 			page 139


 5419 072f 22       		.byte	0x22
 5420 0730 19000000 		.4byte	.LVL126-1
 5421 0734 80000000 		.4byte	.LVL142
 5422 0738 0800     		.2byte	0x8
 5423 073a 74       		.byte	0x74
 5424 073b 00       		.sleb128 0
 5425 073c 03       		.byte	0x3
 5426 073d 4C000000 		.4byte	.LANCHOR2+76
 5427 0741 22       		.byte	0x22
 5428 0742 80000000 		.4byte	.LVL142
 5429 0746 CC000000 		.4byte	.LFE52
 5430 074a 0900     		.2byte	0x9
 5431 074c F3       		.byte	0xf3
 5432 074d 01       		.uleb128 0x1
 5433 074e 50       		.byte	0x50
 5434 074f 03       		.byte	0x3
 5435 0750 4C000000 		.4byte	.LANCHOR2+76
 5436 0754 22       		.byte	0x22
 5437 0755 00000000 		.4byte	0
 5438 0759 00000000 		.4byte	0
 5439              	.LLST42:
 5440 075d 80000000 		.4byte	.LVL142
 5441 0761 92000000 		.4byte	.LVL145
 5442 0765 0100     		.2byte	0x1
 5443 0767 54       		.byte	0x54
 5444 0768 00000000 		.4byte	0
 5445 076c 00000000 		.4byte	0
 5446              	.LLST43:
 5447 0770 4E000000 		.4byte	.LVL133
 5448 0774 60000000 		.4byte	.LVL135
 5449 0778 0100     		.2byte	0x1
 5450 077a 51       		.byte	0x51
 5451 077b 60000000 		.4byte	.LVL135
 5452 077f 66000000 		.4byte	.LVL136
 5453 0783 0100     		.2byte	0x1
 5454 0785 53       		.byte	0x53
 5455 0786 66000000 		.4byte	.LVL136
 5456 078a 92000000 		.4byte	.LVL146
 5457 078e 0100     		.2byte	0x1
 5458 0790 55       		.byte	0x55
 5459 0791 00000000 		.4byte	0
 5460 0795 00000000 		.4byte	0
 5461              	.LLST44:
 5462 0799 12000000 		.4byte	.LVL124
 5463 079d 92000000 		.4byte	.LVL147
 5464 07a1 0100     		.2byte	0x1
 5465 07a3 56       		.byte	0x56
 5466 07a4 00000000 		.4byte	0
 5467 07a8 00000000 		.4byte	0
 5468              	.LLST45:
 5469 07ac 1A000000 		.4byte	.LVL126
 5470 07b0 2C000000 		.4byte	.LVL129
 5471 07b4 0100     		.2byte	0x1
 5472 07b6 50       		.byte	0x50
 5473 07b7 00000000 		.4byte	0
 5474 07bb 00000000 		.4byte	0
 5475              	.LLST46:
ARM GAS  C:\Users\Zeynep\AppData\Local\Temp\ccgAGQqu.s 			page 140


 5476 07bf 00000000 		.4byte	.LVL148
 5477 07c3 13000000 		.4byte	.LVL149-1
 5478 07c7 0100     		.2byte	0x1
 5479 07c9 50       		.byte	0x50
 5480 07ca 13000000 		.4byte	.LVL149-1
 5481 07ce 1C000000 		.4byte	.LFE38
 5482 07d2 0400     		.2byte	0x4
 5483 07d4 F3       		.byte	0xf3
 5484 07d5 01       		.uleb128 0x1
 5485 07d6 50       		.byte	0x50
 5486 07d7 9F       		.byte	0x9f
 5487 07d8 00000000 		.4byte	0
 5488 07dc 00000000 		.4byte	0
 5489              	.LLST47:
 5490 07e0 00000000 		.4byte	.LVL152
 5491 07e4 2A000000 		.4byte	.LVL156
 5492 07e8 0100     		.2byte	0x1
 5493 07ea 50       		.byte	0x50
 5494 07eb 2A000000 		.4byte	.LVL156
 5495 07ef 2D000000 		.4byte	.LVL157-1
 5496 07f3 0100     		.2byte	0x1
 5497 07f5 51       		.byte	0x51
 5498 07f6 2D000000 		.4byte	.LVL157-1
 5499 07fa 64000000 		.4byte	.LVL167
 5500 07fe 0100     		.2byte	0x1
 5501 0800 55       		.byte	0x55
 5502 0801 64000000 		.4byte	.LVL167
 5503 0805 90000000 		.4byte	.LFE53
 5504 0809 0400     		.2byte	0x4
 5505 080b F3       		.byte	0xf3
 5506 080c 01       		.uleb128 0x1
 5507 080d 50       		.byte	0x50
 5508 080e 9F       		.byte	0x9f
 5509 080f 00000000 		.4byte	0
 5510 0813 00000000 		.4byte	0
 5511              	.LLST48:
 5512 0817 48000000 		.4byte	.LVL161
 5513 081b 4C000000 		.4byte	.LVL162
 5514 081f 0100     		.2byte	0x1
 5515 0821 51       		.byte	0x51
 5516 0822 4C000000 		.4byte	.LVL162
 5517 0826 5A000000 		.4byte	.LVL164
 5518 082a 0100     		.2byte	0x1
 5519 082c 53       		.byte	0x53
 5520 082d 5A000000 		.4byte	.LVL164
 5521 0831 5E000000 		.4byte	.LVL165
 5522 0835 0500     		.2byte	0x5
 5523 0837 0C       		.byte	0xc
 5524 0838 04000840 		.4byte	0x40080004
 5525 083c 00000000 		.4byte	0
 5526 0840 00000000 		.4byte	0
 5527              	.LLST49:
 5528 0844 2E000000 		.4byte	.LVL157
 5529 0848 38000000 		.4byte	.LVL158
 5530 084c 0100     		.2byte	0x1
 5531 084e 50       		.byte	0x50
 5532 084f 00000000 		.4byte	0
ARM GAS  C:\Users\Zeynep\AppData\Local\Temp\ccgAGQqu.s 			page 141


 5533 0853 00000000 		.4byte	0
 5534              	.LLST50:
 5535 0857 1A000000 		.4byte	.LVL153
 5536 085b 1C000000 		.4byte	.LVL154
 5537 085f 0100     		.2byte	0x1
 5538 0861 53       		.byte	0x53
 5539 0862 1C000000 		.4byte	.LVL154
 5540 0866 1E000000 		.4byte	.LVL155
 5541 086a 1100     		.2byte	0x11
 5542 086c 70       		.byte	0x70
 5543 086d 00       		.sleb128 0
 5544 086e 72       		.byte	0x72
 5545 086f 00       		.sleb128 0
 5546 0870 22       		.byte	0x22
 5547 0871 03       		.byte	0x3
 5548 0872 00000000 		.4byte	.LANCHOR2
 5549 0876 22       		.byte	0x22
 5550 0877 94       		.byte	0x94
 5551 0878 01       		.byte	0x1
 5552 0879 08       		.byte	0x8
 5553 087a FF       		.byte	0xff
 5554 087b 1A       		.byte	0x1a
 5555 087c 9F       		.byte	0x9f
 5556 087d 1E000000 		.4byte	.LVL155
 5557 0881 2A000000 		.4byte	.LVL156
 5558 0885 0E00     		.2byte	0xe
 5559 0887 70       		.byte	0x70
 5560 0888 00       		.sleb128 0
 5561 0889 03       		.byte	0x3
 5562 088a 4C000000 		.4byte	.LANCHOR2+76
 5563 088e 22       		.byte	0x22
 5564 088f 94       		.byte	0x94
 5565 0890 01       		.byte	0x1
 5566 0891 08       		.byte	0x8
 5567 0892 FF       		.byte	0xff
 5568 0893 1A       		.byte	0x1a
 5569 0894 9F       		.byte	0x9f
 5570 0895 2A000000 		.4byte	.LVL156
 5571 0899 2D000000 		.4byte	.LVL157-1
 5572 089d 0E00     		.2byte	0xe
 5573 089f 71       		.byte	0x71
 5574 08a0 00       		.sleb128 0
 5575 08a1 03       		.byte	0x3
 5576 08a2 4C000000 		.4byte	.LANCHOR2+76
 5577 08a6 22       		.byte	0x22
 5578 08a7 94       		.byte	0x94
 5579 08a8 01       		.byte	0x1
 5580 08a9 08       		.byte	0x8
 5581 08aa FF       		.byte	0xff
 5582 08ab 1A       		.byte	0x1a
 5583 08ac 9F       		.byte	0x9f
 5584 08ad 2D000000 		.4byte	.LVL157-1
 5585 08b1 64000000 		.4byte	.LVL167
 5586 08b5 0E00     		.2byte	0xe
 5587 08b7 75       		.byte	0x75
 5588 08b8 00       		.sleb128 0
 5589 08b9 03       		.byte	0x3
ARM GAS  C:\Users\Zeynep\AppData\Local\Temp\ccgAGQqu.s 			page 142


 5590 08ba 4C000000 		.4byte	.LANCHOR2+76
 5591 08be 22       		.byte	0x22
 5592 08bf 94       		.byte	0x94
 5593 08c0 01       		.byte	0x1
 5594 08c1 08       		.byte	0x8
 5595 08c2 FF       		.byte	0xff
 5596 08c3 1A       		.byte	0x1a
 5597 08c4 9F       		.byte	0x9f
 5598 08c5 64000000 		.4byte	.LVL167
 5599 08c9 90000000 		.4byte	.LFE53
 5600 08cd 0F00     		.2byte	0xf
 5601 08cf F3       		.byte	0xf3
 5602 08d0 01       		.uleb128 0x1
 5603 08d1 50       		.byte	0x50
 5604 08d2 03       		.byte	0x3
 5605 08d3 4C000000 		.4byte	.LANCHOR2+76
 5606 08d7 22       		.byte	0x22
 5607 08d8 94       		.byte	0x94
 5608 08d9 01       		.byte	0x1
 5609 08da 08       		.byte	0x8
 5610 08db FF       		.byte	0xff
 5611 08dc 1A       		.byte	0x1a
 5612 08dd 9F       		.byte	0x9f
 5613 08de 00000000 		.4byte	0
 5614 08e2 00000000 		.4byte	0
 5615              	.LLST51:
 5616 08e6 00000000 		.4byte	.LVL168
 5617 08ea 08000000 		.4byte	.LVL170
 5618 08ee 0100     		.2byte	0x1
 5619 08f0 51       		.byte	0x51
 5620 08f1 08000000 		.4byte	.LVL170
 5621 08f5 26000000 		.4byte	.LFE58
 5622 08f9 0400     		.2byte	0x4
 5623 08fb F3       		.byte	0xf3
 5624 08fc 01       		.uleb128 0x1
 5625 08fd 51       		.byte	0x51
 5626 08fe 9F       		.byte	0x9f
 5627 08ff 00000000 		.4byte	0
 5628 0903 00000000 		.4byte	0
 5629              	.LLST52:
 5630 0907 00000000 		.4byte	.LVL168
 5631 090b 16000000 		.4byte	.LVL173
 5632 090f 0100     		.2byte	0x1
 5633 0911 52       		.byte	0x52
 5634 0912 16000000 		.4byte	.LVL173
 5635 0916 1C000000 		.4byte	.LVL175
 5636 091a 0400     		.2byte	0x4
 5637 091c F3       		.byte	0xf3
 5638 091d 01       		.uleb128 0x1
 5639 091e 52       		.byte	0x52
 5640 091f 9F       		.byte	0x9f
 5641 0920 1C000000 		.4byte	.LVL175
 5642 0924 20000000 		.4byte	.LVL177
 5643 0928 0100     		.2byte	0x1
 5644 092a 52       		.byte	0x52
 5645 092b 20000000 		.4byte	.LVL177
 5646 092f 26000000 		.4byte	.LFE58
ARM GAS  C:\Users\Zeynep\AppData\Local\Temp\ccgAGQqu.s 			page 143


 5647 0933 0400     		.2byte	0x4
 5648 0935 F3       		.byte	0xf3
 5649 0936 01       		.uleb128 0x1
 5650 0937 52       		.byte	0x52
 5651 0938 9F       		.byte	0x9f
 5652 0939 00000000 		.4byte	0
 5653 093d 00000000 		.4byte	0
 5654              	.LLST53:
 5655 0941 04000000 		.4byte	.LVL169
 5656 0945 14000000 		.4byte	.LVL172
 5657 0949 0100     		.2byte	0x1
 5658 094b 54       		.byte	0x54
 5659 094c 14000000 		.4byte	.LVL172
 5660 0950 1C000000 		.4byte	.LVL175
 5661 0954 0600     		.2byte	0x6
 5662 0956 F3       		.byte	0xf3
 5663 0957 01       		.uleb128 0x1
 5664 0958 51       		.byte	0x51
 5665 0959 33       		.byte	0x33
 5666 095a 25       		.byte	0x25
 5667 095b 9F       		.byte	0x9f
 5668 095c 1C000000 		.4byte	.LVL175
 5669 0960 1E000000 		.4byte	.LVL176
 5670 0964 0100     		.2byte	0x1
 5671 0966 54       		.byte	0x54
 5672 0967 1E000000 		.4byte	.LVL176
 5673 096b 26000000 		.4byte	.LFE58
 5674 096f 0600     		.2byte	0x6
 5675 0971 F3       		.byte	0xf3
 5676 0972 01       		.uleb128 0x1
 5677 0973 51       		.byte	0x51
 5678 0974 33       		.byte	0x33
 5679 0975 25       		.byte	0x25
 5680 0976 9F       		.byte	0x9f
 5681 0977 00000000 		.4byte	0
 5682 097b 00000000 		.4byte	0
 5683              	.LLST54:
 5684 097f 0E000000 		.4byte	.LVL171
 5685 0983 18000000 		.4byte	.LVL174
 5686 0987 0100     		.2byte	0x1
 5687 0989 53       		.byte	0x53
 5688 098a 18000000 		.4byte	.LVL174
 5689 098e 1C000000 		.4byte	.LVL175
 5690 0992 0500     		.2byte	0x5
 5691 0994 31       		.byte	0x31
 5692 0995 71       		.byte	0x71
 5693 0996 00       		.sleb128 0
 5694 0997 24       		.byte	0x24
 5695 0998 9F       		.byte	0x9f
 5696 0999 1C000000 		.4byte	.LVL175
 5697 099d 24000000 		.4byte	.LVL178
 5698 09a1 0100     		.2byte	0x1
 5699 09a3 53       		.byte	0x53
 5700 09a4 24000000 		.4byte	.LVL178
 5701 09a8 26000000 		.4byte	.LFE58
 5702 09ac 0500     		.2byte	0x5
 5703 09ae 31       		.byte	0x31
ARM GAS  C:\Users\Zeynep\AppData\Local\Temp\ccgAGQqu.s 			page 144


 5704 09af 71       		.byte	0x71
 5705 09b0 00       		.sleb128 0
 5706 09b1 24       		.byte	0x24
 5707 09b2 9F       		.byte	0x9f
 5708 09b3 00000000 		.4byte	0
 5709 09b7 00000000 		.4byte	0
 5710              	.LLST55:
 5711 09bb 00000000 		.4byte	.LVL179
 5712 09bf 30000000 		.4byte	.LVL186
 5713 09c3 0100     		.2byte	0x1
 5714 09c5 50       		.byte	0x50
 5715 09c6 30000000 		.4byte	.LVL186
 5716 09ca 8C000000 		.4byte	.LFE39
 5717 09ce 0400     		.2byte	0x4
 5718 09d0 F3       		.byte	0xf3
 5719 09d1 01       		.uleb128 0x1
 5720 09d2 50       		.byte	0x50
 5721 09d3 9F       		.byte	0x9f
 5722 09d4 00000000 		.4byte	0
 5723 09d8 00000000 		.4byte	0
 5724              	.LLST56:
 5725 09dc 0E000000 		.4byte	.LVL180
 5726 09e0 16000000 		.4byte	.LVL182
 5727 09e4 0100     		.2byte	0x1
 5728 09e6 55       		.byte	0x55
 5729 09e7 00000000 		.4byte	0
 5730 09eb 00000000 		.4byte	0
 5731              	.LLST57:
 5732 09ef 18000000 		.4byte	.LVL183
 5733 09f3 76000000 		.4byte	.LVL192
 5734 09f7 0100     		.2byte	0x1
 5735 09f9 55       		.byte	0x55
 5736 09fa 00000000 		.4byte	0
 5737 09fe 00000000 		.4byte	0
 5738              	.LLST58:
 5739 0a02 18000000 		.4byte	.LVL183
 5740 0a06 1C000000 		.4byte	.LVL184
 5741 0a0a 0200     		.2byte	0x2
 5742 0a0c 30       		.byte	0x30
 5743 0a0d 9F       		.byte	0x9f
 5744 0a0e 1C000000 		.4byte	.LVL184
 5745 0a12 30000000 		.4byte	.LVL186
 5746 0a16 0100     		.2byte	0x1
 5747 0a18 53       		.byte	0x53
 5748 0a19 30000000 		.4byte	.LVL186
 5749 0a1d 76000000 		.4byte	.LVL191
 5750 0a21 0100     		.2byte	0x1
 5751 0a23 54       		.byte	0x54
 5752 0a24 00000000 		.4byte	0
 5753 0a28 00000000 		.4byte	0
 5754              	.LLST59:
 5755 0a2c 00000000 		.4byte	.LVL193
 5756 0a30 04000000 		.4byte	.LVL194
 5757 0a34 0100     		.2byte	0x1
 5758 0a36 50       		.byte	0x50
 5759 0a37 04000000 		.4byte	.LVL194
 5760 0a3b 0C000000 		.4byte	.LFE59
ARM GAS  C:\Users\Zeynep\AppData\Local\Temp\ccgAGQqu.s 			page 145


 5761 0a3f 0400     		.2byte	0x4
 5762 0a41 F3       		.byte	0xf3
 5763 0a42 01       		.uleb128 0x1
 5764 0a43 50       		.byte	0x50
 5765 0a44 9F       		.byte	0x9f
 5766 0a45 00000000 		.4byte	0
 5767 0a49 00000000 		.4byte	0
 5768              	.LLST60:
 5769 0a4d 00000000 		.4byte	.LVL196
 5770 0a51 04000000 		.4byte	.LVL197
 5771 0a55 0100     		.2byte	0x1
 5772 0a57 50       		.byte	0x50
 5773 0a58 04000000 		.4byte	.LVL197
 5774 0a5c 0C000000 		.4byte	.LFE61
 5775 0a60 0400     		.2byte	0x4
 5776 0a62 F3       		.byte	0xf3
 5777 0a63 01       		.uleb128 0x1
 5778 0a64 50       		.byte	0x50
 5779 0a65 9F       		.byte	0x9f
 5780 0a66 00000000 		.4byte	0
 5781 0a6a 00000000 		.4byte	0
 5782              	.LLST61:
 5783 0a6e 00000000 		.4byte	.LVL199
 5784 0a72 04000000 		.4byte	.LVL200
 5785 0a76 0100     		.2byte	0x1
 5786 0a78 50       		.byte	0x50
 5787 0a79 04000000 		.4byte	.LVL200
 5788 0a7d 0C000000 		.4byte	.LFE63
 5789 0a81 0400     		.2byte	0x4
 5790 0a83 F3       		.byte	0xf3
 5791 0a84 01       		.uleb128 0x1
 5792 0a85 50       		.byte	0x50
 5793 0a86 9F       		.byte	0x9f
 5794 0a87 00000000 		.4byte	0
 5795 0a8b 00000000 		.4byte	0
 5796              	.LLST62:
 5797 0a8f 00000000 		.4byte	.LVL202
 5798 0a93 04000000 		.4byte	.LVL203
 5799 0a97 0100     		.2byte	0x1
 5800 0a99 50       		.byte	0x50
 5801 0a9a 04000000 		.4byte	.LVL203
 5802 0a9e 0C000000 		.4byte	.LFE65
 5803 0aa2 0400     		.2byte	0x4
 5804 0aa4 F3       		.byte	0xf3
 5805 0aa5 01       		.uleb128 0x1
 5806 0aa6 50       		.byte	0x50
 5807 0aa7 9F       		.byte	0x9f
 5808 0aa8 00000000 		.4byte	0
 5809 0aac 00000000 		.4byte	0
 5810              	.LLST63:
 5811 0ab0 00000000 		.4byte	.LVL206
 5812 0ab4 0A000000 		.4byte	.LVL208
 5813 0ab8 0100     		.2byte	0x1
 5814 0aba 50       		.byte	0x50
 5815 0abb 0A000000 		.4byte	.LVL208
 5816 0abf 28000000 		.4byte	.LVL216
 5817 0ac3 0100     		.2byte	0x1
ARM GAS  C:\Users\Zeynep\AppData\Local\Temp\ccgAGQqu.s 			page 146


 5818 0ac5 56       		.byte	0x56
 5819 0ac6 28000000 		.4byte	.LVL216
 5820 0aca 2A000000 		.4byte	.LFE69
 5821 0ace 0400     		.2byte	0x4
 5822 0ad0 F3       		.byte	0xf3
 5823 0ad1 01       		.uleb128 0x1
 5824 0ad2 50       		.byte	0x50
 5825 0ad3 9F       		.byte	0x9f
 5826 0ad4 00000000 		.4byte	0
 5827 0ad8 00000000 		.4byte	0
 5828              	.LLST64:
 5829 0adc 04000000 		.4byte	.LVL207
 5830 0ae0 0A000000 		.4byte	.LVL208
 5831 0ae4 0200     		.2byte	0x2
 5832 0ae6 30       		.byte	0x30
 5833 0ae7 9F       		.byte	0x9f
 5834 0ae8 0A000000 		.4byte	.LVL208
 5835 0aec 28000000 		.4byte	.LVL215
 5836 0af0 0100     		.2byte	0x1
 5837 0af2 55       		.byte	0x55
 5838 0af3 00000000 		.4byte	0
 5839 0af7 00000000 		.4byte	0
 5840              	.LLST65:
 5841 0afb 04000000 		.4byte	.LVL207
 5842 0aff 0A000000 		.4byte	.LVL208
 5843 0b03 0200     		.2byte	0x2
 5844 0b05 30       		.byte	0x30
 5845 0b06 9F       		.byte	0x9f
 5846 0b07 0A000000 		.4byte	.LVL208
 5847 0b0b 28000000 		.4byte	.LVL214
 5848 0b0f 0100     		.2byte	0x1
 5849 0b11 54       		.byte	0x54
 5850 0b12 00000000 		.4byte	0
 5851 0b16 00000000 		.4byte	0
 5852              	.LLST66:
 5853 0b1a 02000000 		.4byte	.LVL218
 5854 0b1e 06000000 		.4byte	.LVL219
 5855 0b22 0200     		.2byte	0x2
 5856 0b24 30       		.byte	0x30
 5857 0b25 9F       		.byte	0x9f
 5858 0b26 06000000 		.4byte	.LVL219
 5859 0b2a 22000000 		.4byte	.LVL225
 5860 0b2e 0100     		.2byte	0x1
 5861 0b30 54       		.byte	0x54
 5862 0b31 00000000 		.4byte	0
 5863 0b35 00000000 		.4byte	0
 5864              	.LLST67:
 5865 0b39 02000000 		.4byte	.LVL230
 5866 0b3d 06000000 		.4byte	.LVL231
 5867 0b41 0200     		.2byte	0x2
 5868 0b43 30       		.byte	0x30
 5869 0b44 9F       		.byte	0x9f
 5870 0b45 06000000 		.4byte	.LVL231
 5871 0b49 34000000 		.4byte	.LVL241
 5872 0b4d 0100     		.2byte	0x1
 5873 0b4f 57       		.byte	0x57
 5874 0b50 00000000 		.4byte	0
ARM GAS  C:\Users\Zeynep\AppData\Local\Temp\ccgAGQqu.s 			page 147


 5875 0b54 00000000 		.4byte	0
 5876              	.LLST68:
 5877 0b58 0E000000 		.4byte	.LVL233
 5878 0b5c 16000000 		.4byte	.LVL235
 5879 0b60 0100     		.2byte	0x1
 5880 0b62 53       		.byte	0x53
 5881 0b63 16000000 		.4byte	.LVL235
 5882 0b67 26000000 		.4byte	.LVL238
 5883 0b6b 0100     		.2byte	0x1
 5884 0b6d 52       		.byte	0x52
 5885 0b6e 26000000 		.4byte	.LVL238
 5886 0b72 30000000 		.4byte	.LVL240
 5887 0b76 0100     		.2byte	0x1
 5888 0b78 53       		.byte	0x53
 5889 0b79 00000000 		.4byte	0
 5890 0b7d 00000000 		.4byte	0
 5891              	.LLST69:
 5892 0b81 10000000 		.4byte	.LVL234
 5893 0b85 30000000 		.4byte	.LVL240
 5894 0b89 0100     		.2byte	0x1
 5895 0b8b 56       		.byte	0x56
 5896 0b8c 00000000 		.4byte	0
 5897 0b90 00000000 		.4byte	0
 5898              	.LLST70:
 5899 0b94 0A000000 		.4byte	.LVL232
 5900 0b98 10000000 		.4byte	.LVL234
 5901 0b9c 0100     		.2byte	0x1
 5902 0b9e 56       		.byte	0x56
 5903 0b9f 00000000 		.4byte	0
 5904 0ba3 00000000 		.4byte	0
 5905              	.LLST71:
 5906 0ba7 06000000 		.4byte	.LVL231
 5907 0bab 16000000 		.4byte	.LVL235
 5908 0baf 0200     		.2byte	0x2
 5909 0bb1 30       		.byte	0x30
 5910 0bb2 9F       		.byte	0x9f
 5911 0bb3 16000000 		.4byte	.LVL235
 5912 0bb7 30000000 		.4byte	.LVL240
 5913 0bbb 0100     		.2byte	0x1
 5914 0bbd 54       		.byte	0x54
 5915 0bbe 00000000 		.4byte	0
 5916 0bc2 00000000 		.4byte	0
 5917              		.section	.debug_aranges,"",%progbits
 5918 0000 54010000 		.4byte	0x154
 5919 0004 0200     		.2byte	0x2
 5920 0006 00000000 		.4byte	.Ldebug_info0
 5921 000a 04       		.byte	0x4
 5922 000b 00       		.byte	0
 5923 000c 0000     		.2byte	0
 5924 000e 0000     		.2byte	0
 5925 0010 00000000 		.4byte	.LFB33
 5926 0014 84000000 		.4byte	.LFE33-.LFB33
 5927 0018 00000000 		.4byte	.LFB34
 5928 001c 3C000000 		.4byte	.LFE34-.LFB34
 5929 0020 00000000 		.4byte	.LFB36
 5930 0024 2C000000 		.4byte	.LFE36-.LFB36
 5931 0028 00000000 		.4byte	.LFB41
ARM GAS  C:\Users\Zeynep\AppData\Local\Temp\ccgAGQqu.s 			page 148


 5932 002c 10000000 		.4byte	.LFE41-.LFB41
 5933 0030 00000000 		.4byte	.LFB42
 5934 0034 10000000 		.4byte	.LFE42-.LFB42
 5935 0038 00000000 		.4byte	.LFB43
 5936 003c 10000000 		.4byte	.LFE43-.LFB43
 5937 0040 00000000 		.4byte	.LFB44
 5938 0044 0C000000 		.4byte	.LFE44-.LFB44
 5939 0048 00000000 		.4byte	.LFB45
 5940 004c 0C000000 		.4byte	.LFE45-.LFB45
 5941 0050 00000000 		.4byte	.LFB47
 5942 0054 48000000 		.4byte	.LFE47-.LFB47
 5943 0058 00000000 		.4byte	.LFB48
 5944 005c 70000000 		.4byte	.LFE48-.LFB48
 5945 0060 00000000 		.4byte	.LFB46
 5946 0064 14000000 		.4byte	.LFE46-.LFB46
 5947 0068 00000000 		.4byte	.LFB51
 5948 006c 24000000 		.4byte	.LFE51-.LFB51
 5949 0070 00000000 		.4byte	.LFB49
 5950 0074 30000000 		.4byte	.LFE49-.LFB49
 5951 0078 00000000 		.4byte	.LFB50
 5952 007c 24000000 		.4byte	.LFE50-.LFB50
 5953 0080 00000000 		.4byte	.LFB54
 5954 0084 34000000 		.4byte	.LFE54-.LFB54
 5955 0088 00000000 		.4byte	.LFB55
 5956 008c 18000000 		.4byte	.LFE55-.LFB55
 5957 0090 00000000 		.4byte	.LFB56
 5958 0094 1C000000 		.4byte	.LFE56-.LFB56
 5959 0098 00000000 		.4byte	.LFB57
 5960 009c 18000000 		.4byte	.LFE57-.LFB57
 5961 00a0 00000000 		.4byte	.LFB37
 5962 00a4 24000000 		.4byte	.LFE37-.LFB37
 5963 00a8 00000000 		.4byte	.LFB52
 5964 00ac CC000000 		.4byte	.LFE52-.LFB52
 5965 00b0 00000000 		.4byte	.LFB38
 5966 00b4 1C000000 		.4byte	.LFE38-.LFB38
 5967 00b8 00000000 		.4byte	.LFB40
 5968 00bc 38000000 		.4byte	.LFE40-.LFB40
 5969 00c0 00000000 		.4byte	.LFB53
 5970 00c4 90000000 		.4byte	.LFE53-.LFB53
 5971 00c8 00000000 		.4byte	.LFB58
 5972 00cc 26000000 		.4byte	.LFE58-.LFB58
 5973 00d0 00000000 		.4byte	.LFB39
 5974 00d4 8C000000 		.4byte	.LFE39-.LFB39
 5975 00d8 00000000 		.4byte	.LFB59
 5976 00dc 0C000000 		.4byte	.LFE59-.LFB59
 5977 00e0 00000000 		.4byte	.LFB60
 5978 00e4 0C000000 		.4byte	.LFE60-.LFB60
 5979 00e8 00000000 		.4byte	.LFB61
 5980 00ec 0C000000 		.4byte	.LFE61-.LFB61
 5981 00f0 00000000 		.4byte	.LFB62
 5982 00f4 0C000000 		.4byte	.LFE62-.LFB62
 5983 00f8 00000000 		.4byte	.LFB63
 5984 00fc 0C000000 		.4byte	.LFE63-.LFB63
 5985 0100 00000000 		.4byte	.LFB64
 5986 0104 0C000000 		.4byte	.LFE64-.LFB64
 5987 0108 00000000 		.4byte	.LFB65
 5988 010c 0C000000 		.4byte	.LFE65-.LFB65
ARM GAS  C:\Users\Zeynep\AppData\Local\Temp\ccgAGQqu.s 			page 149


 5989 0110 00000000 		.4byte	.LFB66
 5990 0114 0C000000 		.4byte	.LFE66-.LFB66
 5991 0118 00000000 		.4byte	.LFB67
 5992 011c 14000000 		.4byte	.LFE67-.LFB67
 5993 0120 00000000 		.4byte	.LFB68
 5994 0124 28000000 		.4byte	.LFE68-.LFB68
 5995 0128 00000000 		.4byte	.LFB69
 5996 012c 2A000000 		.4byte	.LFE69-.LFB69
 5997 0130 00000000 		.4byte	.LFB70
 5998 0134 0C000000 		.4byte	.LFE70-.LFB70
 5999 0138 00000000 		.4byte	.LFB32
 6000 013c 24000000 		.4byte	.LFE32-.LFB32
 6001 0140 00000000 		.4byte	.LFB35
 6002 0144 38000000 		.4byte	.LFE35-.LFB35
 6003 0148 00000000 		.4byte	.LFB71
 6004 014c 40000000 		.4byte	.LFE71-.LFB71
 6005 0150 00000000 		.4byte	0
 6006 0154 00000000 		.4byte	0
 6007              		.section	.debug_ranges,"",%progbits
 6008              	.Ldebug_ranges0:
 6009 0000 00000000 		.4byte	.LFB33
 6010 0004 84000000 		.4byte	.LFE33
 6011 0008 00000000 		.4byte	.LFB34
 6012 000c 3C000000 		.4byte	.LFE34
 6013 0010 00000000 		.4byte	.LFB36
 6014 0014 2C000000 		.4byte	.LFE36
 6015 0018 00000000 		.4byte	.LFB41
 6016 001c 10000000 		.4byte	.LFE41
 6017 0020 00000000 		.4byte	.LFB42
 6018 0024 10000000 		.4byte	.LFE42
 6019 0028 00000000 		.4byte	.LFB43
 6020 002c 10000000 		.4byte	.LFE43
 6021 0030 00000000 		.4byte	.LFB44
 6022 0034 0C000000 		.4byte	.LFE44
 6023 0038 00000000 		.4byte	.LFB45
 6024 003c 0C000000 		.4byte	.LFE45
 6025 0040 00000000 		.4byte	.LFB47
 6026 0044 48000000 		.4byte	.LFE47
 6027 0048 00000000 		.4byte	.LFB48
 6028 004c 70000000 		.4byte	.LFE48
 6029 0050 00000000 		.4byte	.LFB46
 6030 0054 14000000 		.4byte	.LFE46
 6031 0058 00000000 		.4byte	.LFB51
 6032 005c 24000000 		.4byte	.LFE51
 6033 0060 00000000 		.4byte	.LFB49
 6034 0064 30000000 		.4byte	.LFE49
 6035 0068 00000000 		.4byte	.LFB50
 6036 006c 24000000 		.4byte	.LFE50
 6037 0070 00000000 		.4byte	.LFB54
 6038 0074 34000000 		.4byte	.LFE54
 6039 0078 00000000 		.4byte	.LFB55
 6040 007c 18000000 		.4byte	.LFE55
 6041 0080 00000000 		.4byte	.LFB56
 6042 0084 1C000000 		.4byte	.LFE56
 6043 0088 00000000 		.4byte	.LFB57
 6044 008c 18000000 		.4byte	.LFE57
 6045 0090 00000000 		.4byte	.LFB37
ARM GAS  C:\Users\Zeynep\AppData\Local\Temp\ccgAGQqu.s 			page 150


 6046 0094 24000000 		.4byte	.LFE37
 6047 0098 00000000 		.4byte	.LFB52
 6048 009c CC000000 		.4byte	.LFE52
 6049 00a0 00000000 		.4byte	.LFB38
 6050 00a4 1C000000 		.4byte	.LFE38
 6051 00a8 00000000 		.4byte	.LFB40
 6052 00ac 38000000 		.4byte	.LFE40
 6053 00b0 00000000 		.4byte	.LFB53
 6054 00b4 90000000 		.4byte	.LFE53
 6055 00b8 00000000 		.4byte	.LFB58
 6056 00bc 26000000 		.4byte	.LFE58
 6057 00c0 00000000 		.4byte	.LFB39
 6058 00c4 8C000000 		.4byte	.LFE39
 6059 00c8 00000000 		.4byte	.LFB59
 6060 00cc 0C000000 		.4byte	.LFE59
 6061 00d0 00000000 		.4byte	.LFB60
 6062 00d4 0C000000 		.4byte	.LFE60
 6063 00d8 00000000 		.4byte	.LFB61
 6064 00dc 0C000000 		.4byte	.LFE61
 6065 00e0 00000000 		.4byte	.LFB62
 6066 00e4 0C000000 		.4byte	.LFE62
 6067 00e8 00000000 		.4byte	.LFB63
 6068 00ec 0C000000 		.4byte	.LFE63
 6069 00f0 00000000 		.4byte	.LFB64
 6070 00f4 0C000000 		.4byte	.LFE64
 6071 00f8 00000000 		.4byte	.LFB65
 6072 00fc 0C000000 		.4byte	.LFE65
 6073 0100 00000000 		.4byte	.LFB66
 6074 0104 0C000000 		.4byte	.LFE66
 6075 0108 00000000 		.4byte	.LFB67
 6076 010c 14000000 		.4byte	.LFE67
 6077 0110 00000000 		.4byte	.LFB68
 6078 0114 28000000 		.4byte	.LFE68
 6079 0118 00000000 		.4byte	.LFB69
 6080 011c 2A000000 		.4byte	.LFE69
 6081 0120 00000000 		.4byte	.LFB70
 6082 0124 0C000000 		.4byte	.LFE70
 6083 0128 00000000 		.4byte	.LFB32
 6084 012c 24000000 		.4byte	.LFE32
 6085 0130 00000000 		.4byte	.LFB35
 6086 0134 38000000 		.4byte	.LFE35
 6087 0138 00000000 		.4byte	.LFB71
 6088 013c 40000000 		.4byte	.LFE71
 6089 0140 00000000 		.4byte	0
 6090 0144 00000000 		.4byte	0
 6091              		.section	.debug_line,"",%progbits
 6092              	.Ldebug_line0:
 6093 0000 EC040000 		.section	.debug_str,"MS",%progbits,1
 6093      0200A000 
 6093      00000201 
 6093      FB0E0D00 
 6093      01010101 
 6094              	.LASF127:
 6095 0000 4379496E 		.ascii	"CyIntSetPriority\000"
 6095      74536574 
 6095      5072696F 
 6095      72697479 
ARM GAS  C:\Users\Zeynep\AppData\Local\Temp\ccgAGQqu.s 			page 151


 6095      00
 6096              	.LASF102:
 6097 0011 43617053 		.ascii	"CapSense_scanSpeedTbl\000"
 6097      656E7365 
 6097      5F736361 
 6097      6E537065 
 6097      65645462 
 6098              	.LASF68:
 6099 0027 43617053 		.ascii	"CapSense_PostScan\000"
 6099      656E7365 
 6099      5F506F73 
 6099      74536361 
 6099      6E00
 6100              	.LASF103:
 6101 0039 43617053 		.ascii	"CapSense_csdStatusVar\000"
 6101      656E7365 
 6101      5F637364 
 6101      53746174 
 6101      75735661 
 6102              	.LASF110:
 6103 004f 43617053 		.ascii	"CapSense_compensationIDAC\000"
 6103      656E7365 
 6103      5F636F6D 
 6103      70656E73 
 6103      6174696F 
 6104              	.LASF132:
 6105 0069 43617053 		.ascii	"CapSense_SenseClk_Start\000"
 6105      656E7365 
 6105      5F53656E 
 6105      7365436C 
 6105      6B5F5374 
 6106              	.LASF120:
 6107 0081 43617053 		.ascii	"CapSense_maskTable\000"
 6107      656E7365 
 6107      5F6D6173 
 6107      6B546162 
 6107      6C6500
 6108              	.LASF8:
 6109 0094 756E7369 		.ascii	"unsigned int\000"
 6109      676E6564 
 6109      20696E74 
 6109      00
 6110              	.LASF113:
 6111 00a1 43617053 		.ascii	"CapSense_sampleClkDividerVal\000"
 6111      656E7365 
 6111      5F73616D 
 6111      706C6543 
 6111      6C6B4469 
 6112              	.LASF34:
 6113 00be 696E7465 		.ascii	"interruptState\000"
 6113      72727570 
 6113      74537461 
 6113      746500
 6114              	.LASF15:
 6115 00cd 72656738 		.ascii	"reg8\000"
 6115      00
 6116              	.LASF96:
ARM GAS  C:\Users\Zeynep\AppData\Local\Temp\ccgAGQqu.s 			page 152


 6117 00d2 77696467 		.ascii	"widgetsNum\000"
 6117      6574734E 
 6117      756D00
 6118              	.LASF93:
 6119 00dd 43617053 		.ascii	"CapSense_Start\000"
 6119      656E7365 
 6119      5F537461 
 6119      727400
 6120              	.LASF70:
 6121 00ec 43617053 		.ascii	"CapSense_ScanWidget\000"
 6121      656E7365 
 6121      5F536361 
 6121      6E576964 
 6121      67657400 
 6122              	.LASF33:
 6123 0100 70696E48 		.ascii	"pinHSIOMShift\000"
 6123      53494F4D 
 6123      53686966 
 6123      7400
 6124              	.LASF74:
 6125 010e 43617053 		.ascii	"CapSense_SetSenseClkDivider\000"
 6125      656E7365 
 6125      5F536574 
 6125      53656E73 
 6125      65436C6B 
 6126              	.LASF125:
 6127 012a 4379496E 		.ascii	"CyIntDisable\000"
 6127      74446973 
 6127      61626C65 
 6127      00
 6128              	.LASF90:
 6129 0137 61766756 		.ascii	"avgVal\000"
 6129      616C00
 6130              	.LASF54:
 6131 013e 43617053 		.ascii	"CapSense_IsBusy\000"
 6131      656E7365 
 6131      5F497342 
 6131      75737900 
 6132              	.LASF32:
 6133 014e 70696E4D 		.ascii	"pinModeShift\000"
 6133      6F646553 
 6133      68696674 
 6133      00
 6134              	.LASF83:
 6135 015b 43617053 		.ascii	"CapSense_SetCompensationIDAC\000"
 6135      656E7365 
 6135      5F536574 
 6135      436F6D70 
 6135      656E7361 
 6136              	.LASF122:
 6137 0178 43617053 		.ascii	"CapSense_rawDataIndex\000"
 6137      656E7365 
 6137      5F726177 
 6137      44617461 
 6137      496E6465 
 6138              	.LASF37:
 6139 018e 43617053 		.ascii	"CapSense_DisableSensor\000"
ARM GAS  C:\Users\Zeynep\AppData\Local\Temp\ccgAGQqu.s 			page 153


 6139      656E7365 
 6139      5F446973 
 6139      61626C65 
 6139      53656E73 
 6140              	.LASF19:
 6141 01a5 43617053 		.ascii	"CapSense_CsdHwBlockInit\000"
 6141      656E7365 
 6141      5F437364 
 6141      4877426C 
 6141      6F636B49 
 6142              	.LASF38:
 6143 01bd 696E6163 		.ascii	"inactiveConnect\000"
 6143      74697665 
 6143      436F6E6E 
 6143      65637400 
 6144              	.LASF124:
 6145 01cd 43617053 		.ascii	"CapSense_csdTrim1\000"
 6145      656E7365 
 6145      5F637364 
 6145      5472696D 
 6145      3100
 6146              	.LASF22:
 6147 01df 43617053 		.ascii	"CapSense_Stop\000"
 6147      656E7365 
 6147      5F53746F 
 6147      7000
 6148              	.LASF115:
 6149 01ed 43617053 		.ascii	"CapSense_prtSelTbl\000"
 6149      656E7365 
 6149      5F707274 
 6149      53656C54 
 6149      626C00
 6150              	.LASF40:
 6151 0200 43617053 		.ascii	"CapSense_ClearSensors\000"
 6151      656E7365 
 6151      5F436C65 
 6151      61725365 
 6151      6E736F72 
 6152              	.LASF117:
 6153 0216 43617053 		.ascii	"CapSense_prtDRTbl\000"
 6153      656E7365 
 6153      5F707274 
 6153      44525462 
 6153      6C00
 6154              	.LASF51:
 6155 0228 43617053 		.ascii	"CapSense_EnableShieldElectrode\000"
 6155      656E7365 
 6155      5F456E61 
 6155      626C6553 
 6155      6869656C 
 6156              	.LASF12:
 6157 0247 666C6F61 		.ascii	"float\000"
 6157      7400
 6158              	.LASF7:
 6159 024d 6C6F6E67 		.ascii	"long long unsigned int\000"
 6159      206C6F6E 
 6159      6720756E 
ARM GAS  C:\Users\Zeynep\AppData\Local\Temp\ccgAGQqu.s 			page 154


 6159      7369676E 
 6159      65642069 
 6160              	.LASF104:
 6161 0264 43617053 		.ascii	"CapSense_sensorIndex\000"
 6161      656E7365 
 6161      5F73656E 
 6161      736F7249 
 6161      6E646578 
 6162              	.LASF27:
 6163 0279 77696467 		.ascii	"widget\000"
 6163      657400
 6164              	.LASF52:
 6165 0280 43617053 		.ascii	"CapSense_SetShieldDelay\000"
 6165      656E7365 
 6165      5F536574 
 6165      53686965 
 6165      6C644465 
 6166              	.LASF114:
 6167 0298 43617053 		.ascii	"CapSense_widgetNumber\000"
 6167      656E7365 
 6167      5F776964 
 6167      6765744E 
 6167      756D6265 
 6168              	.LASF116:
 6169 02ae 43617053 		.ascii	"CapSense_prtCfgTbl\000"
 6169      656E7365 
 6169      5F707274 
 6169      43666754 
 6169      626C00
 6170              	.LASF30:
 6171 02c1 43617053 		.ascii	"CapSense_GetScanResolution\000"
 6171      656E7365 
 6171      5F476574 
 6171      5363616E 
 6171      5265736F 
 6172              	.LASF140:
 6173 02dc 47656E65 		.ascii	"Generated_Source\\PSoC4\\CapSense.c\000"
 6173      72617465 
 6173      645F536F 
 6173      75726365 
 6173      5C50536F 
 6174              	.LASF95:
 6175 02fe 43617053 		.ascii	"CapSense_NormalizeWidgets\000"
 6175      656E7365 
 6175      5F4E6F72 
 6175      6D616C69 
 6175      7A655769 
 6176              	.LASF78:
 6177 0318 6D6F6475 		.ascii	"modulatorClk\000"
 6177      6C61746F 
 6177      72436C6B 
 6177      00
 6178              	.LASF25:
 6179 0325 76616C75 		.ascii	"value\000"
 6179      6500
 6180              	.LASF139:
 6181 032b 474E5520 		.ascii	"GNU C11 5.4.1 20160609 (release) [ARM/embedded-5-br"
ARM GAS  C:\Users\Zeynep\AppData\Local\Temp\ccgAGQqu.s 			page 155


 6181      43313120 
 6181      352E342E 
 6181      31203230 
 6181      31363036 
 6182 035e 616E6368 		.ascii	"anch revision 237715] -mcpu=cortex-m0 -mthumb -g -O"
 6182      20726576 
 6182      6973696F 
 6182      6E203233 
 6182      37373135 
 6183 0391 67202D66 		.ascii	"g -ffunction-sections -ffat-lto-objects\000"
 6183      66756E63 
 6183      74696F6E 
 6183      2D736563 
 6183      74696F6E 
 6184              	.LASF35:
 6185 03b9 6E657752 		.ascii	"newRegisterValue\000"
 6185      65676973 
 6185      74657256 
 6185      616C7565 
 6185      00
 6186              	.LASF23:
 6187 03ca 43617053 		.ascii	"CapSense_WriteSensorRaw\000"
 6187      656E7365 
 6187      5F577269 
 6187      74655365 
 6187      6E736F72 
 6188              	.LASF112:
 6189 03e2 43617053 		.ascii	"CapSense_senseClkDividerVal\000"
 6189      656E7365 
 6189      5F73656E 
 6189      7365436C 
 6189      6B446976 
 6190              	.LASF20:
 6191 03fe 43617053 		.ascii	"CapSense_Enable\000"
 6191      656E7365 
 6191      5F456E61 
 6191      626C6500 
 6192              	.LASF39:
 6193 040e 73656E73 		.ascii	"sensorState\000"
 6193      6F725374 
 6193      61746500 
 6194              	.LASF63:
 6195 041a 43617053 		.ascii	"CapSense_PreScan\000"
 6195      656E7365 
 6195      5F507265 
 6195      5363616E 
 6195      00
 6196              	.LASF59:
 6197 042b 6F666673 		.ascii	"offset\000"
 6197      657400
 6198              	.LASF26:
 6199 0432 43617053 		.ascii	"CapSense_SetScanResolution\000"
 6199      656E7365 
 6199      5F536574 
 6199      5363616E 
 6199      5265736F 
 6200              	.LASF66:
ARM GAS  C:\Users\Zeynep\AppData\Local\Temp\ccgAGQqu.s 			page 156


 6201 044d 43617053 		.ascii	"CapSense_ScanSensor\000"
 6201      656E7365 
 6201      5F536361 
 6201      6E53656E 
 6201      736F7200 
 6202              	.LASF48:
 6203 0461 7072744E 		.ascii	"prtNumberTmp\000"
 6203      756D6265 
 6203      72546D70 
 6203      00
 6204              	.LASF71:
 6205 046e 73656E73 		.ascii	"sensorsPerWidget\000"
 6205      6F727350 
 6205      65725769 
 6205      64676574 
 6205      00
 6206              	.LASF94:
 6207 047f 43617053 		.ascii	"CapSense_initVar\000"
 6207      656E7365 
 6207      5F696E69 
 6207      74566172 
 6207      00
 6208              	.LASF123:
 6209 0490 43617053 		.ascii	"CapSense_numberOfSensors\000"
 6209      656E7365 
 6209      5F6E756D 
 6209      6265724F 
 6209      6653656E 
 6210              	.LASF89:
 6211 04a9 63757253 		.ascii	"curSample\000"
 6211      616D706C 
 6211      6500
 6212              	.LASF24:
 6213 04b3 73656E73 		.ascii	"sensor\000"
 6213      6F7200
 6214              	.LASF105:
 6215 04ba 43617053 		.ascii	"CapSense_sensorRaw\000"
 6215      656E7365 
 6215      5F73656E 
 6215      736F7252 
 6215      617700
 6216              	.LASF14:
 6217 04cd 63686172 		.ascii	"char\000"
 6217      00
 6218              	.LASF136:
 6219 04d2 43794578 		.ascii	"CyExitCriticalSection\000"
 6219      69744372 
 6219      69746963 
 6219      616C5365 
 6219      6374696F 
 6220              	.LASF137:
 6221 04e8 43794465 		.ascii	"CyDelayCycles\000"
 6221      6C617943 
 6221      79636C65 
 6221      7300
 6222              	.LASF57:
 6223 04f6 7461626C 		.ascii	"table\000"
ARM GAS  C:\Users\Zeynep\AppData\Local\Temp\ccgAGQqu.s 			page 157


 6223      6500
 6224              	.LASF61:
 6225 04fc 43617053 		.ascii	"CapSense_FindNextSensor\000"
 6225      656E7365 
 6225      5F46696E 
 6225      644E6578 
 6225      7453656E 
 6226              	.LASF118:
 6227 0514 43617053 		.ascii	"CapSense_pcTable\000"
 6227      656E7365 
 6227      5F706354 
 6227      61626C65 
 6227      00
 6228              	.LASF10:
 6229 0525 75696E74 		.ascii	"uint16\000"
 6229      313600
 6230              	.LASF126:
 6231 052c 4379496E 		.ascii	"CyIntSetVector\000"
 6231      74536574 
 6231      56656374 
 6231      6F7200
 6232              	.LASF28:
 6233 053b 7265736F 		.ascii	"resolution\000"
 6233      6C757469 
 6233      6F6E00
 6234              	.LASF111:
 6235 0546 43617053 		.ascii	"CapSense_widgetResolution\000"
 6235      656E7365 
 6235      5F776964 
 6235      67657452 
 6235      65736F6C 
 6236              	.LASF49:
 6237 0560 70696E4E 		.ascii	"pinNumberTmp\000"
 6237      756D6265 
 6237      72546D70 
 6237      00
 6238              	.LASF85:
 6239 056d 43617053 		.ascii	"CapSense_GetIDACRange\000"
 6239      656E7365 
 6239      5F476574 
 6239      49444143 
 6239      52616E67 
 6240              	.LASF67:
 6241 0583 43617053 		.ascii	"CapSense_ScanEnabledWidgets\000"
 6241      656E7365 
 6241      5F536361 
 6241      6E456E61 
 6241      626C6564 
 6242              	.LASF109:
 6243 059f 43617053 		.ascii	"CapSense_modulationIDAC\000"
 6243      656E7365 
 6243      5F6D6F64 
 6243      756C6174 
 6243      696F6E49 
 6244              	.LASF6:
 6245 05b7 6C6F6E67 		.ascii	"long long int\000"
 6245      206C6F6E 
ARM GAS  C:\Users\Zeynep\AppData\Local\Temp\ccgAGQqu.s 			page 158


 6245      6720696E 
 6245      7400
 6246              	.LASF62:
 6247 05c5 656E6162 		.ascii	"enableFlag\000"
 6247      6C65466C 
 6247      616700
 6248              	.LASF121:
 6249 05d0 43617053 		.ascii	"CapSense_pinShiftTbl\000"
 6249      656E7365 
 6249      5F70696E 
 6249      53686966 
 6249      7454626C 
 6250              	.LASF98:
 6251 05e5 63757272 		.ascii	"currentWidget\000"
 6251      656E7457 
 6251      69646765 
 6251      7400
 6252              	.LASF31:
 6253 05f3 43617053 		.ascii	"CapSense_EnableSensor\000"
 6253      656E7365 
 6253      5F456E61 
 6253      626C6553 
 6253      656E736F 
 6254              	.LASF77:
 6255 0609 43617053 		.ascii	"CapSense_SetModulatorClkDivider\000"
 6255      656E7365 
 6255      5F536574 
 6255      4D6F6475 
 6255      6C61746F 
 6256              	.LASF106:
 6257 0629 43617053 		.ascii	"CapSense_unscannedSnsDriveMode\000"
 6257      656E7365 
 6257      5F756E73 
 6257      63616E6E 
 6257      6564536E 
 6258              	.LASF73:
 6259 0648 43617053 		.ascii	"CapSense_GetSenseClkDivider\000"
 6259      656E7365 
 6259      5F476574 
 6259      53656E73 
 6259      65436C6B 
 6260              	.LASF11:
 6261 0664 75696E74 		.ascii	"uint32\000"
 6261      333200
 6262              	.LASF141:
 6263 066b 443A5C54 		.ascii	"D:\\TUTORIALS\\PSOC_LAB3\\LAB_3_PSOC\\Capsense_049."
 6263      55544F52 
 6263      49414C53 
 6263      5C50534F 
 6263      435F4C41 
 6264 069a 63796473 		.ascii	"cydsn\000"
 6264      6E00
 6265              	.LASF44:
 6266 06a0 70696E4E 		.ascii	"pinNumber\000"
 6266      756D6265 
 6266      7200
 6267              	.LASF41:
ARM GAS  C:\Users\Zeynep\AppData\Local\Temp\ccgAGQqu.s 			page 159


 6268 06aa 736E7349 		.ascii	"snsIndex\000"
 6268      6E646578 
 6268      00
 6269              	.LASF18:
 6270 06b3 6C6F6E67 		.ascii	"long double\000"
 6270      20646F75 
 6270      626C6500 
 6271              	.LASF72:
 6272 06bf 6C617374 		.ascii	"lastSensor\000"
 6272      53656E73 
 6272      6F7200
 6273              	.LASF16:
 6274 06ca 72656733 		.ascii	"reg32\000"
 6274      3200
 6275              	.LASF50:
 6276 06d0 43617053 		.ascii	"CapSense_RestoreDriveModeAllPins\000"
 6276      656E7365 
 6276      5F526573 
 6276      746F7265 
 6276      44726976 
 6277              	.LASF128:
 6278 06f1 43617053 		.ascii	"CapSense_SenseClk_Stop\000"
 6278      656E7365 
 6278      5F53656E 
 6278      7365436C 
 6278      6B5F5374 
 6279              	.LASF86:
 6280 0708 43617053 		.ascii	"CapSense_SetIDACRange\000"
 6280      656E7365 
 6280      5F536574 
 6280      49444143 
 6280      52616E67 
 6281              	.LASF45:
 6282 071e 706F7274 		.ascii	"portNumber\000"
 6282      4E756D62 
 6282      657200
 6283              	.LASF100:
 6284 0729 6D617850 		.ascii	"maxPerWidget\000"
 6284      65725769 
 6284      64676574 
 6284      00
 6285              	.LASF88:
 6286 0736 43617053 		.ascii	"CapSense_GetSensorRaw\000"
 6286      656E7365 
 6286      5F476574 
 6286      53656E73 
 6286      6F725261 
 6287              	.LASF92:
 6288 074c 43617053 		.ascii	"CapSense_Init\000"
 6288      656E7365 
 6288      5F496E69 
 6288      7400
 6289              	.LASF75:
 6290 075a 73656E73 		.ascii	"senseClk\000"
 6290      65436C6B 
 6290      00
 6291              	.LASF42:
ARM GAS  C:\Users\Zeynep\AppData\Local\Temp\ccgAGQqu.s 			page 160


 6292 0763 43617053 		.ascii	"CapSense_SetPinDriveMode\000"
 6292      656E7365 
 6292      5F536574 
 6292      50696E44 
 6292      72697665 
 6293              	.LASF2:
 6294 077c 73686F72 		.ascii	"short int\000"
 6294      7420696E 
 6294      7400
 6295              	.LASF4:
 6296 0786 6C6F6E67 		.ascii	"long int\000"
 6296      20696E74 
 6296      00
 6297              	.LASF53:
 6298 078f 64656C61 		.ascii	"delay\000"
 6298      7900
 6299              	.LASF55:
 6300 0795 43617053 		.ascii	"CapSense_ReadCurrentScanningSensor\000"
 6300      656E7365 
 6300      5F526561 
 6300      64437572 
 6300      72656E74 
 6301              	.LASF46:
 6302 07b8 43617053 		.ascii	"CapSense_SetDriveModeAllPins\000"
 6302      656E7365 
 6302      5F536574 
 6302      44726976 
 6302      654D6F64 
 6303              	.LASF107:
 6304 07d5 43617053 		.ascii	"CapSense_sensorEnableMaskBackup\000"
 6304      656E7365 
 6304      5F73656E 
 6304      736F7245 
 6304      6E61626C 
 6305              	.LASF91:
 6306 07f5 43617053 		.ascii	"CapSense_SetUnscannedSensorState\000"
 6306      656E7365 
 6306      5F536574 
 6306      556E7363 
 6306      616E6E65 
 6307              	.LASF130:
 6308 0816 43617053 		.ascii	"CapSense_SampleClk_SetFractionalDividerRegister\000"
 6308      656E7365 
 6308      5F53616D 
 6308      706C6543 
 6308      6C6B5F53 
 6309              	.LASF76:
 6310 0846 43617053 		.ascii	"CapSense_GetModulatorClkDivider\000"
 6310      656E7365 
 6310      5F476574 
 6310      4D6F6475 
 6310      6C61746F 
 6311              	.LASF108:
 6312 0866 43617053 		.ascii	"CapSense_sensorEnableMask\000"
 6312      656E7365 
 6312      5F73656E 
 6312      736F7245 
ARM GAS  C:\Users\Zeynep\AppData\Local\Temp\ccgAGQqu.s 			page 161


 6312      6E61626C 
 6313              	.LASF87:
 6314 0880 69446163 		.ascii	"iDacRange\000"
 6314      52616E67 
 6314      6500
 6315              	.LASF119:
 6316 088a 43617053 		.ascii	"CapSense_portTable\000"
 6316      656E7365 
 6316      5F706F72 
 6316      74546162 
 6316      6C6500
 6317              	.LASF99:
 6318 089d 63757272 		.ascii	"currentSensor\000"
 6318      656E7453 
 6318      656E736F 
 6318      7200
 6319              	.LASF84:
 6320 08ab 636F6D70 		.ascii	"compIdacValue\000"
 6320      49646163 
 6320      56616C75 
 6320      6500
 6321              	.LASF129:
 6322 08b9 43617053 		.ascii	"CapSense_SampleClk_Stop\000"
 6322      656E7365 
 6322      5F53616D 
 6322      706C6543 
 6322      6C6B5F53 
 6323              	.LASF81:
 6324 08d1 6D6F6449 		.ascii	"modIdacValue\000"
 6324      64616356 
 6324      616C7565 
 6324      00
 6325              	.LASF17:
 6326 08de 73697A65 		.ascii	"sizetype\000"
 6326      74797065 
 6326      00
 6327              	.LASF5:
 6328 08e7 6C6F6E67 		.ascii	"long unsigned int\000"
 6328      20756E73 
 6328      69676E65 
 6328      6420696E 
 6328      7400
 6329              	.LASF36:
 6330 08f9 706F7274 		.ascii	"port\000"
 6330      00
 6331              	.LASF133:
 6332 08fe 43617053 		.ascii	"CapSense_SampleClk_Start\000"
 6332      656E7365 
 6332      5F53616D 
 6332      706C6543 
 6332      6C6B5F53 
 6333              	.LASF60:
 6334 0917 656E4D61 		.ascii	"enMask\000"
 6334      736B00
 6335              	.LASF138:
 6336 091e 43617053 		.ascii	"CapSense_AutoTune\000"
 6336      656E7365 
ARM GAS  C:\Users\Zeynep\AppData\Local\Temp\ccgAGQqu.s 			page 162


 6336      5F417574 
 6336      6F54756E 
 6336      6500
 6337              	.LASF1:
 6338 0930 756E7369 		.ascii	"unsigned char\000"
 6338      676E6564 
 6338      20636861 
 6338      7200
 6339              	.LASF64:
 6340 093e 636F756E 		.ascii	"counterResolution\000"
 6340      74657252 
 6340      65736F6C 
 6340      7574696F 
 6340      6E00
 6341              	.LASF29:
 6342 0950 43617053 		.ascii	"CapSense_ReadSensorRaw\000"
 6342      656E7365 
 6342      5F526561 
 6342      6453656E 
 6342      736F7252 
 6343              	.LASF80:
 6344 0967 43617053 		.ascii	"CapSense_SetModulationIDAC\000"
 6344      656E7365 
 6344      5F536574 
 6344      4D6F6475 
 6344      6C617469 
 6345              	.LASF69:
 6346 0982 43617053 		.ascii	"CapSense_SetBitValue\000"
 6346      656E7365 
 6346      5F536574 
 6346      42697456 
 6346      616C7565 
 6347              	.LASF56:
 6348 0997 43617053 		.ascii	"CapSense_GetBitValue\000"
 6348      656E7365 
 6348      5F476574 
 6348      42697456 
 6348      616C7565 
 6349              	.LASF82:
 6350 09ac 43617053 		.ascii	"CapSense_GetCompensationIDAC\000"
 6350      656E7365 
 6350      5F476574 
 6350      436F6D70 
 6350      656E7361 
 6351              	.LASF101:
 6352 09c9 43617053 		.ascii	"CapSense_lowLevelTuningDone\000"
 6352      656E7365 
 6352      5F6C6F77 
 6352      4C657665 
 6352      6C54756E 
 6353              	.LASF131:
 6354 09e5 43617053 		.ascii	"CapSense_SenseClk_SetFractionalDividerRegister\000"
 6354      656E7365 
 6354      5F53656E 
 6354      7365436C 
 6354      6B5F5365 
 6355              	.LASF134:
ARM GAS  C:\Users\Zeynep\AppData\Local\Temp\ccgAGQqu.s 			page 163


 6356 0a14 4379496E 		.ascii	"CyIntEnable\000"
 6356      74456E61 
 6356      626C6500 
 6357              	.LASF79:
 6358 0a20 43617053 		.ascii	"CapSense_GetModulationIDAC\000"
 6358      656E7365 
 6358      5F476574 
 6358      4D6F6475 
 6358      6C617469 
 6359              	.LASF135:
 6360 0a3b 4379456E 		.ascii	"CyEnterCriticalSection\000"
 6360      74657243 
 6360      72697469 
 6360      63616C53 
 6360      65637469 
 6361              	.LASF0:
 6362 0a52 7369676E 		.ascii	"signed char\000"
 6362      65642063 
 6362      68617200 
 6363              	.LASF97:
 6364 0a5e 64617461 		.ascii	"dataPtr\000"
 6364      50747200 
 6365              	.LASF3:
 6366 0a66 73686F72 		.ascii	"short unsigned int\000"
 6366      7420756E 
 6366      7369676E 
 6366      65642069 
 6366      6E7400
 6367              	.LASF21:
 6368 0a79 6E657752 		.ascii	"newRegValue\000"
 6368      65675661 
 6368      6C756500 
 6369              	.LASF9:
 6370 0a85 75696E74 		.ascii	"uint8\000"
 6370      3800
 6371              	.LASF13:
 6372 0a8b 646F7562 		.ascii	"double\000"
 6372      6C6500
 6373              	.LASF47:
 6374 0a92 63757253 		.ascii	"curSensor\000"
 6374      656E736F 
 6374      7200
 6375              	.LASF65:
 6376 0a9c 6F766572 		.ascii	"oversamplingFactor\000"
 6376      73616D70 
 6376      6C696E67 
 6376      46616374 
 6376      6F7200
 6377              	.LASF43:
 6378 0aaf 64726976 		.ascii	"driveMode\000"
 6378      654D6F64 
 6378      6500
 6379              	.LASF58:
 6380 0ab9 706F7369 		.ascii	"position\000"
 6380      74696F6E 
 6380      00
 6381              		.ident	"GCC: (GNU Tools for ARM Embedded Processors) 5.4.1 20160609 (release) [ARM/embedded-5-bran
ARM GAS  C:\Users\Zeynep\AppData\Local\Temp\ccgAGQqu.s 			page 164


