ARM GAS  C:\Users\Zeynep\AppData\Local\Temp\ccCwWLPb.s 			page 1


   1              		.syntax unified
   2              		.cpu cortex-m0
   3              		.fpu softvfp
   4              		.eabi_attribute 20, 1
   5              		.eabi_attribute 21, 1
   6              		.eabi_attribute 23, 3
   7              		.eabi_attribute 24, 1
   8              		.eabi_attribute 25, 1
   9              		.eabi_attribute 26, 1
  10              		.eabi_attribute 30, 1
  11              		.eabi_attribute 34, 0
  12              		.eabi_attribute 18, 4
  13              		.thumb
  14              		.syntax unified
  15              		.file	"CapSense_SMS.c"
  16              		.text
  17              	.Ltext0:
  18              		.cfi_sections	.debug_frame
  19              		.section	.text.CapSense_UpdateThresholds,"ax",%progbits
  20              		.align	2
  21              		.global	CapSense_UpdateThresholds
  22              		.code	16
  23              		.thumb_func
  24              		.type	CapSense_UpdateThresholds, %function
  25              	CapSense_UpdateThresholds:
  26              	.LFB33:
  27              		.file 1 "Generated_Source\\PSoC4\\CapSense_SMS.c"
   1:Generated_Source\PSoC4/CapSense_SMS.c **** /*******************************************************************************
   2:Generated_Source\PSoC4/CapSense_SMS.c **** * File Name: CapSense_SMS.c
   3:Generated_Source\PSoC4/CapSense_SMS.c **** * Version 2.60
   4:Generated_Source\PSoC4/CapSense_SMS.c **** *
   5:Generated_Source\PSoC4/CapSense_SMS.c **** * Description:
   6:Generated_Source\PSoC4/CapSense_SMS.c **** *  This file provides the source code of wrapper between CapSense CSD component
   7:Generated_Source\PSoC4/CapSense_SMS.c **** *  and Auto Tuning library.
   8:Generated_Source\PSoC4/CapSense_SMS.c **** *
   9:Generated_Source\PSoC4/CapSense_SMS.c **** * Note:
  10:Generated_Source\PSoC4/CapSense_SMS.c **** *
  11:Generated_Source\PSoC4/CapSense_SMS.c **** ********************************************************************************
  12:Generated_Source\PSoC4/CapSense_SMS.c **** * Copyright 2013-2016, Cypress Semiconductor Corporation.  All rights reserved.
  13:Generated_Source\PSoC4/CapSense_SMS.c **** * You may use this file only in accordance with the license, terms, conditions,
  14:Generated_Source\PSoC4/CapSense_SMS.c **** * disclaimers, and limitations in the end user license agreement accompanying
  15:Generated_Source\PSoC4/CapSense_SMS.c **** * the software package with which this file was provided.
  16:Generated_Source\PSoC4/CapSense_SMS.c **** *******************************************************************************/
  17:Generated_Source\PSoC4/CapSense_SMS.c **** 
  18:Generated_Source\PSoC4/CapSense_SMS.c **** #include "CapSense_SMS.h"
  19:Generated_Source\PSoC4/CapSense_SMS.c **** #include "CapSense_PVT.h"
  20:Generated_Source\PSoC4/CapSense_SMS.c **** 
  21:Generated_Source\PSoC4/CapSense_SMS.c **** #include "cytypes.h"
  22:Generated_Source\PSoC4/CapSense_SMS.c **** 
  23:Generated_Source\PSoC4/CapSense_SMS.c **** #if (CapSense_TUNING_METHOD == CapSense__TUNING_AUTO)
  24:Generated_Source\PSoC4/CapSense_SMS.c **** 
  25:Generated_Source\PSoC4/CapSense_SMS.c **** 
  26:Generated_Source\PSoC4/CapSense_SMS.c **** /*  Real Charge Divider values */
  27:Generated_Source\PSoC4/CapSense_SMS.c **** #if ((0u != CapSense_IS_M0S8PERI_BLOCK) && (0u == CY_PSOC4_4000))
  28:Generated_Source\PSoC4/CapSense_SMS.c ****     /*  Dividers are not chained */
  29:Generated_Source\PSoC4/CapSense_SMS.c ****     #if (CYDEV_BCLK__HFCLK__MHZ > 24u)
  30:Generated_Source\PSoC4/CapSense_SMS.c ****         const uint8 CapSense_prescalerTable[CapSense_PRESCALERS_TBL_SIZE] = {
ARM GAS  C:\Users\Zeynep\AppData\Local\Temp\ccCwWLPb.s 			page 2


  31:Generated_Source\PSoC4/CapSense_SMS.c ****             4u,     4u,     4u,    8u,    8u,    8u,    8u,    16u,    16u,    16u,    16u,    16u,
  32:Generated_Source\PSoC4/CapSense_SMS.c ****         };
  33:Generated_Source\PSoC4/CapSense_SMS.c ****     #elif (CYDEV_BCLK__HFCLK__MHZ >12u)
  34:Generated_Source\PSoC4/CapSense_SMS.c ****         const uint8 CapSense_prescalerTable[CapSense_PRESCALERS_TBL_SIZE] = {
  35:Generated_Source\PSoC4/CapSense_SMS.c ****             2u,     2u,     2u,    4u,    4u,    4u,    4u,    8u,    8u,    8u,    8u,    8u,    8
  36:Generated_Source\PSoC4/CapSense_SMS.c ****         };
  37:Generated_Source\PSoC4/CapSense_SMS.c ****     #else   /* (CYDEV_BCLK__HFCLK__MHZ > 12u) */
  38:Generated_Source\PSoC4/CapSense_SMS.c ****         const uint8 CapSense_prescalerTable[CapSense_PRESCALERS_TBL_SIZE] = {
  39:Generated_Source\PSoC4/CapSense_SMS.c ****             1u,     1u,     1u,    2u,    2u,    2u,    2u,    4u,    4u,    4u,    4u,    4u,    4
  40:Generated_Source\PSoC4/CapSense_SMS.c ****         };
  41:Generated_Source\PSoC4/CapSense_SMS.c ****     #endif /* (CYDEV_BCLK__HFCLK__MHZ > 24u) */
  42:Generated_Source\PSoC4/CapSense_SMS.c **** 
  43:Generated_Source\PSoC4/CapSense_SMS.c **** #elif (0u != CapSense_IS_M0S8PERI_BLOCK)
  44:Generated_Source\PSoC4/CapSense_SMS.c ****     /*  Dividers are not chained (PSoC 4000) */
  45:Generated_Source\PSoC4/CapSense_SMS.c ****     #if (CYDEV_BCLK__HFCLK__MHZ >= 12u)
  46:Generated_Source\PSoC4/CapSense_SMS.c ****         const uint8 CapSense_prescalerTable[CapSense_PRESCALERS_TBL_SIZE] = {
  47:Generated_Source\PSoC4/CapSense_SMS.c ****             1u,     1u,     1u,    2u,    2u,    2u,    2u,    4u,    4u,    4u,    4u,    4u,    4
  48:Generated_Source\PSoC4/CapSense_SMS.c ****         };
  49:Generated_Source\PSoC4/CapSense_SMS.c **** 
  50:Generated_Source\PSoC4/CapSense_SMS.c ****     #elif (CYDEV_BCLK__HFCLK__MHZ >= 6u)
  51:Generated_Source\PSoC4/CapSense_SMS.c ****         const uint8 CapSense_prescalerTable[CapSense_PRESCALERS_TBL_SIZE] = {
  52:Generated_Source\PSoC4/CapSense_SMS.c ****             1u,     1u,     1u,    1u,    1u,    1u,    1u,    2u,    2u,    2u,    2u,    2u,    2
  53:Generated_Source\PSoC4/CapSense_SMS.c ****         };
  54:Generated_Source\PSoC4/CapSense_SMS.c ****     #else
  55:Generated_Source\PSoC4/CapSense_SMS.c ****         const uint8 CapSense_prescalerTable[CapSense_PRESCALERS_TBL_SIZE] = {
  56:Generated_Source\PSoC4/CapSense_SMS.c ****             1u,     1u,     1u,    1u,    1u,    1u,    1u,    1u,    1u,    1u,    1u,    1u,    1
  57:Generated_Source\PSoC4/CapSense_SMS.c ****         };
  58:Generated_Source\PSoC4/CapSense_SMS.c ****     #endif /* (CYDEV_BCLK__HFCLK__MHZ > 12u) */
  59:Generated_Source\PSoC4/CapSense_SMS.c **** 
  60:Generated_Source\PSoC4/CapSense_SMS.c **** #else
  61:Generated_Source\PSoC4/CapSense_SMS.c ****     /*  Dividers are chained (PSoC 4100, PSoC 4200) */
  62:Generated_Source\PSoC4/CapSense_SMS.c ****     #if (CYDEV_BCLK__HFCLK__MHZ > 24u)
  63:Generated_Source\PSoC4/CapSense_SMS.c ****         const uint8 CapSense_prescalerTable[CapSense_PRESCALERS_TBL_SIZE] = {
  64:Generated_Source\PSoC4/CapSense_SMS.c ****             2u,     2u,     2u,    4u,    4u,    4u,    4u,    8u,    8u,    8u,    8u,    8u,    8
  65:Generated_Source\PSoC4/CapSense_SMS.c ****         };
  66:Generated_Source\PSoC4/CapSense_SMS.c **** 
  67:Generated_Source\PSoC4/CapSense_SMS.c ****     #elif (CYDEV_BCLK__HFCLK__MHZ >12u)
  68:Generated_Source\PSoC4/CapSense_SMS.c ****         const uint8 CapSense_prescalerTable[CapSense_PRESCALERS_TBL_SIZE] = {
  69:Generated_Source\PSoC4/CapSense_SMS.c ****             1u,     1u,     1u,    2u,    2u,    2u,    2u,    4u,    4u,    4u,    4u,    4u,    4
  70:Generated_Source\PSoC4/CapSense_SMS.c ****         };
  71:Generated_Source\PSoC4/CapSense_SMS.c ****     #else   /* (CYDEV_BCLK__HFCLK__MHZ > 12u) */
  72:Generated_Source\PSoC4/CapSense_SMS.c ****         const uint8 CapSense_prescalerTable[CapSense_PRESCALERS_TBL_SIZE] = {
  73:Generated_Source\PSoC4/CapSense_SMS.c ****             1u,     1u,     1u,    1u,    1u,    1u,    1u,    2u,    2u,    2u,    2u,    2u,    2
  74:Generated_Source\PSoC4/CapSense_SMS.c ****         };
  75:Generated_Source\PSoC4/CapSense_SMS.c ****     #endif /* (CYDEV_BCLK__HFCLK__MHZ > 24u) */
  76:Generated_Source\PSoC4/CapSense_SMS.c **** #endif /* ((0u != CapSense_IS_M0S8PERI_BLOCK) && (0u == CY_PSOC4_4000)) */
  77:Generated_Source\PSoC4/CapSense_SMS.c **** 
  78:Generated_Source\PSoC4/CapSense_SMS.c **** 
  79:Generated_Source\PSoC4/CapSense_SMS.c **** uint8 CapSense_noiseEnvelopeTbl[CapSense_TOTAL_SENSOR_COUNT];
  80:Generated_Source\PSoC4/CapSense_SMS.c **** uint8 CapSense_runningDifferenceTbl[CapSense_TOTAL_SENSOR_COUNT];
  81:Generated_Source\PSoC4/CapSense_SMS.c **** uint8 CapSense_signRegisterTbl[CapSense_TOTAL_SENSOR_COUNT];
  82:Generated_Source\PSoC4/CapSense_SMS.c **** uint16 CapSense_sampleMinTbl[CapSense_TOTAL_SENSOR_COUNT];
  83:Generated_Source\PSoC4/CapSense_SMS.c **** uint16 CapSense_sampleMaxTbl[CapSense_TOTAL_SENSOR_COUNT];
  84:Generated_Source\PSoC4/CapSense_SMS.c **** uint16 CapSense_previousSampleTbl[CapSense_TOTAL_SENSOR_COUNT];
  85:Generated_Source\PSoC4/CapSense_SMS.c **** uint8 CapSense_kValueTbl[CapSense_TOTAL_SENSOR_COUNT];
  86:Generated_Source\PSoC4/CapSense_SMS.c **** 
  87:Generated_Source\PSoC4/CapSense_SMS.c **** uint8 CapSense_sensorSensitivity[] = {
ARM GAS  C:\Users\Zeynep\AppData\Local\Temp\ccCwWLPb.s 			page 3


  88:Generated_Source\PSoC4/CapSense_SMS.c ****     2u, 2u, 2u, 2u, 2u, 
  89:Generated_Source\PSoC4/CapSense_SMS.c **** };
  90:Generated_Source\PSoC4/CapSense_SMS.c **** 
  91:Generated_Source\PSoC4/CapSense_SMS.c **** CapSense_CONFIG_TYPE_P4_v2_60 CapSense_config;
  92:Generated_Source\PSoC4/CapSense_SMS.c **** CapSense_CONFIG_TYPE_POINTERS_P4_v2_60 const CapSense_configPointers = {
  93:Generated_Source\PSoC4/CapSense_SMS.c ****     CapSense_modulationIDAC,
  94:Generated_Source\PSoC4/CapSense_SMS.c ****     CapSense_compensationIDAC,
  95:Generated_Source\PSoC4/CapSense_SMS.c ****     CapSense_sensorSensitivity,
  96:Generated_Source\PSoC4/CapSense_SMS.c ****     CapSense_senseClkDividerVal,
  97:Generated_Source\PSoC4/CapSense_SMS.c ****     CapSense_sampleClkDividerVal,
  98:Generated_Source\PSoC4/CapSense_SMS.c ****     CapSense_widgetNumber,
  99:Generated_Source\PSoC4/CapSense_SMS.c ****     CapSense_widgetResolution,
 100:Generated_Source\PSoC4/CapSense_SMS.c ****     CapSense_noiseEnvelopeTbl,
 101:Generated_Source\PSoC4/CapSense_SMS.c ****     CapSense_runningDifferenceTbl,
 102:Generated_Source\PSoC4/CapSense_SMS.c ****     CapSense_signRegisterTbl,
 103:Generated_Source\PSoC4/CapSense_SMS.c ****     CapSense_sampleMinTbl,
 104:Generated_Source\PSoC4/CapSense_SMS.c ****     CapSense_sampleMaxTbl,
 105:Generated_Source\PSoC4/CapSense_SMS.c ****     CapSense_previousSampleTbl,
 106:Generated_Source\PSoC4/CapSense_SMS.c ****     CapSense_kValueTbl,
 107:Generated_Source\PSoC4/CapSense_SMS.c ****     CapSense_scanSpeedTbl,
 108:Generated_Source\PSoC4/CapSense_SMS.c ****     CapSense_prescalerTable,
 109:Generated_Source\PSoC4/CapSense_SMS.c ****     (const uint8  *)CapSense_rawDataIndex,
 110:Generated_Source\PSoC4/CapSense_SMS.c ****     (const uint8  *)CapSense_numberOfSensors,
 111:Generated_Source\PSoC4/CapSense_SMS.c ****     &CapSense_GetSensorRaw,
 112:Generated_Source\PSoC4/CapSense_SMS.c ****     &CapSense_PreScan,
 113:Generated_Source\PSoC4/CapSense_SMS.c ****     &CapSense_ReadSensorRaw,
 114:Generated_Source\PSoC4/CapSense_SMS.c ****     &CapSense_GetBitValue,
 115:Generated_Source\PSoC4/CapSense_SMS.c ****     &CapSense_SetBitValue
 116:Generated_Source\PSoC4/CapSense_SMS.c **** };
 117:Generated_Source\PSoC4/CapSense_SMS.c **** 
 118:Generated_Source\PSoC4/CapSense_SMS.c **** 
 119:Generated_Source\PSoC4/CapSense_SMS.c **** /*******************************************************************************
 120:Generated_Source\PSoC4/CapSense_SMS.c **** * Function Name: CapSense_AutoTune
 121:Generated_Source\PSoC4/CapSense_SMS.c **** ********************************************************************************
 122:Generated_Source\PSoC4/CapSense_SMS.c **** *
 123:Generated_Source\PSoC4/CapSense_SMS.c **** * Summary:
 124:Generated_Source\PSoC4/CapSense_SMS.c **** *  Provides the tuning procedure for all sensors.
 125:Generated_Source\PSoC4/CapSense_SMS.c **** *
 126:Generated_Source\PSoC4/CapSense_SMS.c **** * Parameters:
 127:Generated_Source\PSoC4/CapSense_SMS.c **** *  None
 128:Generated_Source\PSoC4/CapSense_SMS.c **** *
 129:Generated_Source\PSoC4/CapSense_SMS.c **** * Return:
 130:Generated_Source\PSoC4/CapSense_SMS.c **** *  None
 131:Generated_Source\PSoC4/CapSense_SMS.c **** *
 132:Generated_Source\PSoC4/CapSense_SMS.c **** * Global Variables:
 133:Generated_Source\PSoC4/CapSense_SMS.c **** *   CapSense_config: the structure which contains configuration parameters
 134:Generated_Source\PSoC4/CapSense_SMS.c **** *   CapSense_senseClkDividerVal[]: used to store the Analog Switch
 135:Generated_Source\PSoC4/CapSense_SMS.c **** *   dividers for each sensor.
 136:Generated_Source\PSoC4/CapSense_SMS.c **** *   CapSense_senseClkDividerVal[]: used to store the
 137:Generated_Source\PSoC4/CapSense_SMS.c **** *    Analog Switch divider for all sensors.
 138:Generated_Source\PSoC4/CapSense_SMS.c **** *   CapSense_prescalersTuningDone - used to notify the Tuner GUI that
 139:Generated_Source\PSoC4/CapSense_SMS.c **** *   the pre-scalers tuning  is done.
 140:Generated_Source\PSoC4/CapSense_SMS.c **** *
 141:Generated_Source\PSoC4/CapSense_SMS.c **** * Side Effects:
 142:Generated_Source\PSoC4/CapSense_SMS.c **** *  None
 143:Generated_Source\PSoC4/CapSense_SMS.c **** *
 144:Generated_Source\PSoC4/CapSense_SMS.c **** *******************************************************************************/
ARM GAS  C:\Users\Zeynep\AppData\Local\Temp\ccCwWLPb.s 			page 4


 145:Generated_Source\PSoC4/CapSense_SMS.c **** void CapSense_AutoTune(void)
 146:Generated_Source\PSoC4/CapSense_SMS.c **** {
 147:Generated_Source\PSoC4/CapSense_SMS.c ****     uint32 curSensor;
 148:Generated_Source\PSoC4/CapSense_SMS.c ****     uint32 widget;
 149:Generated_Source\PSoC4/CapSense_SMS.c **** 
 150:Generated_Source\PSoC4/CapSense_SMS.c ****     CapSense_config.totalScanslotsNum = CapSense_TOTAL_SCANSLOT_COUNT;
 151:Generated_Source\PSoC4/CapSense_SMS.c ****     CapSense_config.totalWidgetsNum = CapSense_END_OF_WIDGETS_INDEX;
 152:Generated_Source\PSoC4/CapSense_SMS.c ****     CapSense_config.totalSensorsNum = CapSense_TOTAL_SENSOR_COUNT;
 153:Generated_Source\PSoC4/CapSense_SMS.c **** 
 154:Generated_Source\PSoC4/CapSense_SMS.c ****     CapSense_config.hfclkFreq_MHz = CYDEV_BCLK__HFCLK__MHZ;
 155:Generated_Source\PSoC4/CapSense_SMS.c ****     CapSense_config.sensetivitySeed = CapSense_SENSETIVITY_FACTOR;
 156:Generated_Source\PSoC4/CapSense_SMS.c **** 
 157:Generated_Source\PSoC4/CapSense_SMS.c ****     CapSense_config.pointers = &CapSense_configPointers;
 158:Generated_Source\PSoC4/CapSense_SMS.c **** 
 159:Generated_Source\PSoC4/CapSense_SMS.c ****     CapSense_SetAnalogSwitchesSrcDirect();
 160:Generated_Source\PSoC4/CapSense_SMS.c **** 
 161:Generated_Source\PSoC4/CapSense_SMS.c ****     for(widget = 0u; widget < CapSense_config.totalWidgetsNum; widget++)
 162:Generated_Source\PSoC4/CapSense_SMS.c ****     {
 163:Generated_Source\PSoC4/CapSense_SMS.c ****         CapSense_widgetResolution[widget] = CapSense_CALIBRATION_RESOLUTION;
 164:Generated_Source\PSoC4/CapSense_SMS.c ****     }
 165:Generated_Source\PSoC4/CapSense_SMS.c **** 
 166:Generated_Source\PSoC4/CapSense_SMS.c **** 
 167:Generated_Source\PSoC4/CapSense_SMS.c ****     for(curSensor = 0u; curSensor < CapSense_TOTAL_SCANSLOT_COUNT; curSensor++)
 168:Generated_Source\PSoC4/CapSense_SMS.c ****     {
 169:Generated_Source\PSoC4/CapSense_SMS.c ****         CapSense_senseClkDividerVal[curSensor] = CapSense_CALIBRATION_ASD;
 170:Generated_Source\PSoC4/CapSense_SMS.c ****         CapSense_sampleClkDividerVal[curSensor] = CapSense_CALIBRATION_MD;
 171:Generated_Source\PSoC4/CapSense_SMS.c ****     }
 172:Generated_Source\PSoC4/CapSense_SMS.c **** 
 173:Generated_Source\PSoC4/CapSense_SMS.c ****     CapSense_DisableBaselineIDAC();
 174:Generated_Source\PSoC4/CapSense_SMS.c **** 
 175:Generated_Source\PSoC4/CapSense_SMS.c ****     CalibrateSensors_P4_v2_60(&CapSense_config, CapSense_CAL_RAW_COUNT);
 176:Generated_Source\PSoC4/CapSense_SMS.c **** 
 177:Generated_Source\PSoC4/CapSense_SMS.c ****     #if(0u != CapSense_TOTAL_CENTROIDS_COUNT)
 178:Generated_Source\PSoC4/CapSense_SMS.c ****         CapSense_NormalizeWidgets(CapSense_END_OF_WIDGETS_INDEX, CapSense_modulationIDAC);
 179:Generated_Source\PSoC4/CapSense_SMS.c ****     #endif /* (0u != CapSense_TOTAL_CENTROIDS_COUNT)  */
 180:Generated_Source\PSoC4/CapSense_SMS.c **** 
 181:Generated_Source\PSoC4/CapSense_SMS.c ****     TunePrescalers_P4_v2_60(&CapSense_config);
 182:Generated_Source\PSoC4/CapSense_SMS.c **** 
 183:Generated_Source\PSoC4/CapSense_SMS.c ****     #if(CapSense_PRS_OPTIONS != CapSense__PRS_NONE)
 184:Generated_Source\PSoC4/CapSense_SMS.c ****         CapSense_prescalersTuningDone = 1u;
 185:Generated_Source\PSoC4/CapSense_SMS.c ****     #endif /* (CapSense_PRS_OPTIONS == CapSense__PRS_NONE) */
 186:Generated_Source\PSoC4/CapSense_SMS.c **** 
 187:Generated_Source\PSoC4/CapSense_SMS.c ****     CalibrateSensors_P4_v2_60(&CapSense_config, CapSense_CAL_RAW_COUNT);
 188:Generated_Source\PSoC4/CapSense_SMS.c ****     #if(0u != CapSense_TOTAL_CENTROIDS_COUNT)
 189:Generated_Source\PSoC4/CapSense_SMS.c ****         CapSense_NormalizeWidgets(CapSense_END_OF_WIDGETS_INDEX, CapSense_modulationIDAC);
 190:Generated_Source\PSoC4/CapSense_SMS.c ****     #endif /* (0u != CapSense_TOTAL_CENTROIDS_COUNT)  */
 191:Generated_Source\PSoC4/CapSense_SMS.c ****     TuneSensitivity_P4_v2_60(&CapSense_config);
 192:Generated_Source\PSoC4/CapSense_SMS.c **** 
 193:Generated_Source\PSoC4/CapSense_SMS.c ****     CapSense_EnableBaselineIDAC(&CapSense_config);
 194:Generated_Source\PSoC4/CapSense_SMS.c **** 
 195:Generated_Source\PSoC4/CapSense_SMS.c ****     for(curSensor = 0u; curSensor < CapSense_TOTAL_SCANSLOT_COUNT; curSensor++)
 196:Generated_Source\PSoC4/CapSense_SMS.c ****     {
 197:Generated_Source\PSoC4/CapSense_SMS.c ****         CapSense_UpdateThresholds(curSensor);
 198:Generated_Source\PSoC4/CapSense_SMS.c ****     }
 199:Generated_Source\PSoC4/CapSense_SMS.c **** }
 200:Generated_Source\PSoC4/CapSense_SMS.c **** 
 201:Generated_Source\PSoC4/CapSense_SMS.c **** 
ARM GAS  C:\Users\Zeynep\AppData\Local\Temp\ccCwWLPb.s 			page 5


 202:Generated_Source\PSoC4/CapSense_SMS.c **** /*******************************************************************************
 203:Generated_Source\PSoC4/CapSense_SMS.c **** * Function Name: CapSense_UpdateThresholds
 204:Generated_Source\PSoC4/CapSense_SMS.c **** ********************************************************************************
 205:Generated_Source\PSoC4/CapSense_SMS.c **** *
 206:Generated_Source\PSoC4/CapSense_SMS.c **** * Summary:
 207:Generated_Source\PSoC4/CapSense_SMS.c **** *  The API updates the Finger Threshold, Hysteresis, Noise Threshold, and
 208:Generated_Source\PSoC4/CapSense_SMS.c **** *  Negative Noise Threshold in the AutoTuning (Smartsense) Mode.
 209:Generated_Source\PSoC4/CapSense_SMS.c **** *
 210:Generated_Source\PSoC4/CapSense_SMS.c **** * Parameters:
 211:Generated_Source\PSoC4/CapSense_SMS.c **** *  sensor: sensor number.
 212:Generated_Source\PSoC4/CapSense_SMS.c **** *
 213:Generated_Source\PSoC4/CapSense_SMS.c **** * Return:
 214:Generated_Source\PSoC4/CapSense_SMS.c **** *  None
 215:Generated_Source\PSoC4/CapSense_SMS.c **** *
 216:Generated_Source\PSoC4/CapSense_SMS.c **** * Global Variables:
 217:Generated_Source\PSoC4/CapSense_SMS.c **** *  CapSense_widgetNumber[] - contains widget Number for given sensor.
 218:Generated_Source\PSoC4/CapSense_SMS.c **** *  0 through 7 (sensor 0 is bit 0, sensor 1 is bit 1).
 219:Generated_Source\PSoC4/CapSense_SMS.c **** *  For other sensors the array element equals to 255.
 220:Generated_Source\PSoC4/CapSense_SMS.c **** *  CapSense_numberOfSensors[widget] - Number of sensors in the widget.
 221:Generated_Source\PSoC4/CapSense_SMS.c **** *   CapSense_fingerThreshold[] - contains the level of signal for each sensor
 222:Generated_Source\PSoC4/CapSense_SMS.c **** *   that determines if a finger present on the sensor.
 223:Generated_Source\PSoC4/CapSense_SMS.c **** *   CapSense_negativeNoiseThreshold[] - negative Noise Threshold
 224:Generated_Source\PSoC4/CapSense_SMS.c **** *   CapSense_hysteresis[] - the array with hysteresis values.
 225:Generated_Source\PSoC4/CapSense_SMS.c **** *
 226:Generated_Source\PSoC4/CapSense_SMS.c **** * Side Effects:
 227:Generated_Source\PSoC4/CapSense_SMS.c **** *  None
 228:Generated_Source\PSoC4/CapSense_SMS.c **** *
 229:Generated_Source\PSoC4/CapSense_SMS.c **** *******************************************************************************/
 230:Generated_Source\PSoC4/CapSense_SMS.c **** void CapSense_UpdateThresholds(uint32 sensor)
 231:Generated_Source\PSoC4/CapSense_SMS.c **** {
  28              		.loc 1 231 0
  29              		.cfi_startproc
  30              		@ args = 0, pretend = 0, frame = 0
  31              		@ frame_needed = 0, uses_anonymous_args = 0
  32              	.LVL0:
  33 0000 70B5     		push	{r4, r5, r6, lr}
  34              		.cfi_def_cfa_offset 16
  35              		.cfi_offset 4, -16
  36              		.cfi_offset 5, -12
  37              		.cfi_offset 6, -8
  38              		.cfi_offset 14, -4
  39 0002 82B0     		sub	sp, sp, #8
  40              		.cfi_def_cfa_offset 24
 232:Generated_Source\PSoC4/CapSense_SMS.c ****     uint8 fingerThreshold;
 233:Generated_Source\PSoC4/CapSense_SMS.c ****     uint32 widget;
 234:Generated_Source\PSoC4/CapSense_SMS.c **** 
 235:Generated_Source\PSoC4/CapSense_SMS.c ****     widget = CapSense_widgetNumber[sensor];
  41              		.loc 1 235 0
  42 0004 154B     		ldr	r3, .L7
  43 0006 1C5C     		ldrb	r4, [r3, r0]
  44              	.LVL1:
 236:Generated_Source\PSoC4/CapSense_SMS.c **** 
 237:Generated_Source\PSoC4/CapSense_SMS.c ****     #if(0u != CapSense_FLEXIBLE_THRESHOLDS_EN)
 238:Generated_Source\PSoC4/CapSense_SMS.c ****         fingerThreshold = CapSense_fingerThreshold[widget];
 239:Generated_Source\PSoC4/CapSense_SMS.c ****         /* Update Threshold manually (flexible) */
 240:Generated_Source\PSoC4/CapSense_SMS.c ****         CapSense_noiseThreshold[widget] = (uint8)(fingerThreshold >> 1u);
 241:Generated_Source\PSoC4/CapSense_SMS.c ****         CapSense_negativeNoiseThreshold[widget] = (uint8)(fingerThreshold >> 1u);
ARM GAS  C:\Users\Zeynep\AppData\Local\Temp\ccCwWLPb.s 			page 6


 242:Generated_Source\PSoC4/CapSense_SMS.c ****         CapSense_hysteresis[widget] = (uint8)(fingerThreshold >> 3u);
 243:Generated_Source\PSoC4/CapSense_SMS.c ****     #else
 244:Generated_Source\PSoC4/CapSense_SMS.c ****         /* Calculate Finger Threshold and Noise Threshold with Smartsense (automatic) */
 245:Generated_Source\PSoC4/CapSense_SMS.c ****         CalculateThresholds_P4_v2_60(&CapSense_config, (uint8)sensor, (uint8)widget, CapSense_finge
  45              		.loc 1 245 0
  46 0008 154E     		ldr	r6, .L7+4
  47 000a C1B2     		uxtb	r1, r0
  48 000c 154D     		ldr	r5, .L7+8
  49 000e 0095     		str	r5, [sp]
  50 0010 3300     		movs	r3, r6
  51 0012 2200     		movs	r2, r4
  52 0014 1448     		ldr	r0, .L7+12
  53              	.LVL2:
  54 0016 FFF7FEFF 		bl	CalculateThresholds_P4_v2_60
  55              	.LVL3:
 246:Generated_Source\PSoC4/CapSense_SMS.c **** 
 247:Generated_Source\PSoC4/CapSense_SMS.c ****         fingerThreshold = CapSense_fingerThreshold[widget];
  56              		.loc 1 247 0
  57 001a 335D     		ldrb	r3, [r6, r4]
  58              	.LVL4:
 248:Generated_Source\PSoC4/CapSense_SMS.c **** 
 249:Generated_Source\PSoC4/CapSense_SMS.c ****         /* Update Threshold based on calculated with Smartsense (automatic) */
 250:Generated_Source\PSoC4/CapSense_SMS.c ****         CapSense_negativeNoiseThreshold[widget] = CapSense_noiseThreshold[widget];
  59              		.loc 1 250 0
  60 001c 295D     		ldrb	r1, [r5, r4]
  61 001e 134A     		ldr	r2, .L7+16
  62 0020 1155     		strb	r1, [r2, r4]
 251:Generated_Source\PSoC4/CapSense_SMS.c **** 
 252:Generated_Source\PSoC4/CapSense_SMS.c ****         if(fingerThreshold < CapSense_THRESHOLD_1)
  63              		.loc 1 252 0
  64 0022 DB2B     		cmp	r3, #219
  65 0024 03D8     		bhi	.L2
 253:Generated_Source\PSoC4/CapSense_SMS.c ****         {
 254:Generated_Source\PSoC4/CapSense_SMS.c ****             CapSense_hysteresis[widget] = (uint8)(fingerThreshold >> 3u);
  66              		.loc 1 254 0
  67 0026 DB08     		lsrs	r3, r3, #3
  68              	.LVL5:
  69 0028 114A     		ldr	r2, .L7+20
  70 002a 1355     		strb	r3, [r2, r4]
  71 002c 14E0     		b	.L1
  72              	.LVL6:
  73              	.L2:
 255:Generated_Source\PSoC4/CapSense_SMS.c ****         }
 256:Generated_Source\PSoC4/CapSense_SMS.c ****         else if(fingerThreshold <  CapSense_THRESHOLD_2)
  74              		.loc 1 256 0
  75 002e EC2B     		cmp	r3, #236
  76 0030 03D8     		bhi	.L4
 257:Generated_Source\PSoC4/CapSense_SMS.c ****         {
 258:Generated_Source\PSoC4/CapSense_SMS.c ****             CapSense_hysteresis[widget] = (uint8)(fingerThreshold >> 4u);
  77              		.loc 1 258 0
  78 0032 1B09     		lsrs	r3, r3, #4
  79              	.LVL7:
  80 0034 0E4A     		ldr	r2, .L7+20
  81 0036 1355     		strb	r3, [r2, r4]
  82 0038 0EE0     		b	.L1
  83              	.LVL8:
  84              	.L4:
ARM GAS  C:\Users\Zeynep\AppData\Local\Temp\ccCwWLPb.s 			page 7


 259:Generated_Source\PSoC4/CapSense_SMS.c ****         }
 260:Generated_Source\PSoC4/CapSense_SMS.c ****         else if(fingerThreshold <  CapSense_THRESHOLD_3)
  85              		.loc 1 260 0
  86 003a F42B     		cmp	r3, #244
  87 003c 03D8     		bhi	.L5
 261:Generated_Source\PSoC4/CapSense_SMS.c ****         {
 262:Generated_Source\PSoC4/CapSense_SMS.c ****             CapSense_hysteresis[widget] = (uint8)(fingerThreshold >> 5u);
  88              		.loc 1 262 0
  89 003e 5B09     		lsrs	r3, r3, #5
  90              	.LVL9:
  91 0040 0B4A     		ldr	r2, .L7+20
  92 0042 1355     		strb	r3, [r2, r4]
  93 0044 08E0     		b	.L1
  94              	.LVL10:
  95              	.L5:
 263:Generated_Source\PSoC4/CapSense_SMS.c ****         }
 264:Generated_Source\PSoC4/CapSense_SMS.c ****         else if(fingerThreshold <  CapSense_THRESHOLD_4)
  96              		.loc 1 264 0
  97 0046 F92B     		cmp	r3, #249
  98 0048 03D8     		bhi	.L6
 265:Generated_Source\PSoC4/CapSense_SMS.c ****         {
 266:Generated_Source\PSoC4/CapSense_SMS.c ****             CapSense_hysteresis[widget] = (uint8)(fingerThreshold >> 6u);
  99              		.loc 1 266 0
 100 004a 9B09     		lsrs	r3, r3, #6
 101              	.LVL11:
 102 004c 084A     		ldr	r2, .L7+20
 103 004e 1355     		strb	r3, [r2, r4]
 104 0050 02E0     		b	.L1
 105              	.LVL12:
 106              	.L6:
 267:Generated_Source\PSoC4/CapSense_SMS.c ****         }
 268:Generated_Source\PSoC4/CapSense_SMS.c ****         else
 269:Generated_Source\PSoC4/CapSense_SMS.c ****         {
 270:Generated_Source\PSoC4/CapSense_SMS.c ****             CapSense_hysteresis[widget] = 0u;
 107              		.loc 1 270 0
 108 0052 0022     		movs	r2, #0
 109 0054 064B     		ldr	r3, .L7+20
 110              	.LVL13:
 111 0056 1A55     		strb	r2, [r3, r4]
 112              	.L1:
 271:Generated_Source\PSoC4/CapSense_SMS.c ****         }
 272:Generated_Source\PSoC4/CapSense_SMS.c ****     #endif /* (0u != CapSense_FLEXIBLE_THRESHOLDS_EN)  */
 273:Generated_Source\PSoC4/CapSense_SMS.c **** }
 113              		.loc 1 273 0
 114 0058 02B0     		add	sp, sp, #8
 115              		@ sp needed
 116              	.LVL14:
 117              	.LVL15:
 118 005a 70BD     		pop	{r4, r5, r6, pc}
 119              	.L8:
 120              		.align	2
 121              	.L7:
 122 005c 00000000 		.word	CapSense_widgetNumber
 123 0060 00000000 		.word	CapSense_fingerThreshold
 124 0064 00000000 		.word	CapSense_noiseThreshold
 125 0068 00000000 		.word	CapSense_config
 126 006c 00000000 		.word	CapSense_negativeNoiseThreshold
ARM GAS  C:\Users\Zeynep\AppData\Local\Temp\ccCwWLPb.s 			page 8


 127 0070 00000000 		.word	CapSense_hysteresis
 128              		.cfi_endproc
 129              	.LFE33:
 130              		.size	CapSense_UpdateThresholds, .-CapSense_UpdateThresholds
 131              		.section	.text.CapSense_SetAnalogSwitchesSrcDirect,"ax",%progbits
 132              		.align	2
 133              		.global	CapSense_SetAnalogSwitchesSrcDirect
 134              		.code	16
 135              		.thumb_func
 136              		.type	CapSense_SetAnalogSwitchesSrcDirect, %function
 137              	CapSense_SetAnalogSwitchesSrcDirect:
 138              	.LFB34:
 274:Generated_Source\PSoC4/CapSense_SMS.c **** 
 275:Generated_Source\PSoC4/CapSense_SMS.c **** /*******************************************************************************
 276:Generated_Source\PSoC4/CapSense_SMS.c **** * Function Name: CapSense_SetAnalogSwitchesSrcDirect
 277:Generated_Source\PSoC4/CapSense_SMS.c **** ********************************************************************************
 278:Generated_Source\PSoC4/CapSense_SMS.c **** *
 279:Generated_Source\PSoC4/CapSense_SMS.c **** * Summary:
 280:Generated_Source\PSoC4/CapSense_SMS.c **** *  This API switches the charge clock source to prescaler.
 281:Generated_Source\PSoC4/CapSense_SMS.c **** *
 282:Generated_Source\PSoC4/CapSense_SMS.c **** * Parameters:
 283:Generated_Source\PSoC4/CapSense_SMS.c **** *  None
 284:Generated_Source\PSoC4/CapSense_SMS.c **** *
 285:Generated_Source\PSoC4/CapSense_SMS.c **** * Return:
 286:Generated_Source\PSoC4/CapSense_SMS.c **** *  None
 287:Generated_Source\PSoC4/CapSense_SMS.c **** *
 288:Generated_Source\PSoC4/CapSense_SMS.c **** * Global Variables:
 289:Generated_Source\PSoC4/CapSense_SMS.c **** *  None
 290:Generated_Source\PSoC4/CapSense_SMS.c **** *
 291:Generated_Source\PSoC4/CapSense_SMS.c **** * Side Effects:
 292:Generated_Source\PSoC4/CapSense_SMS.c **** *  None
 293:Generated_Source\PSoC4/CapSense_SMS.c **** *
 294:Generated_Source\PSoC4/CapSense_SMS.c **** *******************************************************************************/
 295:Generated_Source\PSoC4/CapSense_SMS.c **** void CapSense_SetAnalogSwitchesSrcDirect(void)
 296:Generated_Source\PSoC4/CapSense_SMS.c **** {
 139              		.loc 1 296 0
 140              		.cfi_startproc
 141              		@ args = 0, pretend = 0, frame = 0
 142              		@ frame_needed = 0, uses_anonymous_args = 0
 143              		@ link register save eliminated.
 297:Generated_Source\PSoC4/CapSense_SMS.c ****     CapSense_CSD_CFG_REG &= ~(CapSense_CSD_CFG_PRS_SELECT);
 144              		.loc 1 297 0
 145 0000 024A     		ldr	r2, .L10
 146 0002 1368     		ldr	r3, [r2]
 147 0004 4021     		movs	r1, #64
 148 0006 8B43     		bics	r3, r1
 149 0008 1360     		str	r3, [r2]
 298:Generated_Source\PSoC4/CapSense_SMS.c **** }
 150              		.loc 1 298 0
 151              		@ sp needed
 152 000a 7047     		bx	lr
 153              	.L11:
 154              		.align	2
 155              	.L10:
 156 000c 04000840 		.word	1074266116
 157              		.cfi_endproc
 158              	.LFE34:
ARM GAS  C:\Users\Zeynep\AppData\Local\Temp\ccCwWLPb.s 			page 9


 159              		.size	CapSense_SetAnalogSwitchesSrcDirect, .-CapSense_SetAnalogSwitchesSrcDirect
 160              		.section	.text.CapSense_DisableBaselineIDAC,"ax",%progbits
 161              		.align	2
 162              		.global	CapSense_DisableBaselineIDAC
 163              		.code	16
 164              		.thumb_func
 165              		.type	CapSense_DisableBaselineIDAC, %function
 166              	CapSense_DisableBaselineIDAC:
 167              	.LFB35:
 299:Generated_Source\PSoC4/CapSense_SMS.c **** 
 300:Generated_Source\PSoC4/CapSense_SMS.c **** 
 301:Generated_Source\PSoC4/CapSense_SMS.c **** /*******************************************************************************
 302:Generated_Source\PSoC4/CapSense_SMS.c **** * Function Name: CapSense_DisableBaselineIDAC
 303:Generated_Source\PSoC4/CapSense_SMS.c **** ********************************************************************************
 304:Generated_Source\PSoC4/CapSense_SMS.c **** *
 305:Generated_Source\PSoC4/CapSense_SMS.c **** * Summary:
 306:Generated_Source\PSoC4/CapSense_SMS.c **** *  The API disables the Compensation IDAC.
 307:Generated_Source\PSoC4/CapSense_SMS.c **** *
 308:Generated_Source\PSoC4/CapSense_SMS.c **** * Parameters:
 309:Generated_Source\PSoC4/CapSense_SMS.c **** *  None
 310:Generated_Source\PSoC4/CapSense_SMS.c **** *
 311:Generated_Source\PSoC4/CapSense_SMS.c **** * Return:
 312:Generated_Source\PSoC4/CapSense_SMS.c **** *  None
 313:Generated_Source\PSoC4/CapSense_SMS.c **** *
 314:Generated_Source\PSoC4/CapSense_SMS.c **** * Global Variables:
 315:Generated_Source\PSoC4/CapSense_SMS.c **** *  None
 316:Generated_Source\PSoC4/CapSense_SMS.c **** *
 317:Generated_Source\PSoC4/CapSense_SMS.c **** * Side Effects:
 318:Generated_Source\PSoC4/CapSense_SMS.c **** *  None
 319:Generated_Source\PSoC4/CapSense_SMS.c **** *
 320:Generated_Source\PSoC4/CapSense_SMS.c **** *******************************************************************************/
 321:Generated_Source\PSoC4/CapSense_SMS.c **** void CapSense_DisableBaselineIDAC(void)
 322:Generated_Source\PSoC4/CapSense_SMS.c **** {
 168              		.loc 1 322 0
 169              		.cfi_startproc
 170              		@ args = 0, pretend = 0, frame = 0
 171              		@ frame_needed = 0, uses_anonymous_args = 0
 172              		@ link register save eliminated.
 323:Generated_Source\PSoC4/CapSense_SMS.c ****     uint32 newRegValue;
 324:Generated_Source\PSoC4/CapSense_SMS.c **** 
 325:Generated_Source\PSoC4/CapSense_SMS.c ****     newRegValue = CapSense_CSD_IDAC_REG;
 173              		.loc 1 325 0
 174 0000 044A     		ldr	r2, .L13
 175 0002 1168     		ldr	r1, [r2]
 176              	.LVL16:
 326:Generated_Source\PSoC4/CapSense_SMS.c **** 
 327:Generated_Source\PSoC4/CapSense_SMS.c ****     newRegValue &= ~(CapSense_CSD_IDAC1_MODE_MASK | CapSense_CSD_IDAC2_MODE_MASK);
 177              		.loc 1 327 0
 178 0004 044B     		ldr	r3, .L13+4
 179 0006 0B40     		ands	r3, r1
 180              	.LVL17:
 328:Generated_Source\PSoC4/CapSense_SMS.c ****     newRegValue |= CapSense_CSD_IDAC1_MODE_VARIABLE;
 181              		.loc 1 328 0
 182 0008 8021     		movs	r1, #128
 183 000a 8900     		lsls	r1, r1, #2
 184 000c 0B43     		orrs	r3, r1
 185              	.LVL18:
ARM GAS  C:\Users\Zeynep\AppData\Local\Temp\ccCwWLPb.s 			page 10


 329:Generated_Source\PSoC4/CapSense_SMS.c **** 
 330:Generated_Source\PSoC4/CapSense_SMS.c ****     CapSense_CSD_IDAC_REG = newRegValue;
 186              		.loc 1 330 0
 187 000e 1360     		str	r3, [r2]
 331:Generated_Source\PSoC4/CapSense_SMS.c **** }
 188              		.loc 1 331 0
 189              		@ sp needed
 190 0010 7047     		bx	lr
 191              	.L14:
 192 0012 C046     		.align	2
 193              	.L13:
 194 0014 08000840 		.word	1074266120
 195 0018 FFFCFFFC 		.word	-50332417
 196              		.cfi_endproc
 197              	.LFE35:
 198              		.size	CapSense_DisableBaselineIDAC, .-CapSense_DisableBaselineIDAC
 199              		.section	.text.CapSense_EnableBaselineIDAC,"ax",%progbits
 200              		.align	2
 201              		.global	CapSense_EnableBaselineIDAC
 202              		.code	16
 203              		.thumb_func
 204              		.type	CapSense_EnableBaselineIDAC, %function
 205              	CapSense_EnableBaselineIDAC:
 206              	.LFB36:
 332:Generated_Source\PSoC4/CapSense_SMS.c **** 
 333:Generated_Source\PSoC4/CapSense_SMS.c **** 
 334:Generated_Source\PSoC4/CapSense_SMS.c **** /*******************************************************************************
 335:Generated_Source\PSoC4/CapSense_SMS.c **** * Function Name: CapSense_EnableBaselineIDAC
 336:Generated_Source\PSoC4/CapSense_SMS.c **** ********************************************************************************
 337:Generated_Source\PSoC4/CapSense_SMS.c **** *
 338:Generated_Source\PSoC4/CapSense_SMS.c **** * Summary:
 339:Generated_Source\PSoC4/CapSense_SMS.c **** *  The API enables the Compensation IDAC.
 340:Generated_Source\PSoC4/CapSense_SMS.c **** *
 341:Generated_Source\PSoC4/CapSense_SMS.c **** * Parameters:
 342:Generated_Source\PSoC4/CapSense_SMS.c **** *  None
 343:Generated_Source\PSoC4/CapSense_SMS.c **** *
 344:Generated_Source\PSoC4/CapSense_SMS.c **** * Return:
 345:Generated_Source\PSoC4/CapSense_SMS.c **** *  None
 346:Generated_Source\PSoC4/CapSense_SMS.c **** *
 347:Generated_Source\PSoC4/CapSense_SMS.c **** * Global Variables:
 348:Generated_Source\PSoC4/CapSense_SMS.c **** *  CapSense_compensationIDAC[] - used to store a 7-bit idac value for all the sensors.
 349:Generated_Source\PSoC4/CapSense_SMS.c **** *
 350:Generated_Source\PSoC4/CapSense_SMS.c **** * Side Effects:
 351:Generated_Source\PSoC4/CapSense_SMS.c **** *  None
 352:Generated_Source\PSoC4/CapSense_SMS.c **** *
 353:Generated_Source\PSoC4/CapSense_SMS.c **** *******************************************************************************/
 354:Generated_Source\PSoC4/CapSense_SMS.c **** void  CapSense_EnableBaselineIDAC(const CapSense_CONFIG_TYPE_P4_v2_60 *config)
 355:Generated_Source\PSoC4/CapSense_SMS.c **** {
 207              		.loc 1 355 0
 208              		.cfi_startproc
 209              		@ args = 0, pretend = 0, frame = 0
 210              		@ frame_needed = 0, uses_anonymous_args = 0
 211              	.LVL19:
 212 0000 70B5     		push	{r4, r5, r6, lr}
 213              		.cfi_def_cfa_offset 16
 214              		.cfi_offset 4, -16
 215              		.cfi_offset 5, -12
ARM GAS  C:\Users\Zeynep\AppData\Local\Temp\ccCwWLPb.s 			page 11


 216              		.cfi_offset 6, -8
 217              		.cfi_offset 14, -4
 218              	.LVL20:
 356:Generated_Source\PSoC4/CapSense_SMS.c ****     uint32 curSensor;
 357:Generated_Source\PSoC4/CapSense_SMS.c ****     uint32 newRegValue;
 358:Generated_Source\PSoC4/CapSense_SMS.c **** 
 359:Generated_Source\PSoC4/CapSense_SMS.c ****     for(curSensor = 0u; curSensor < config->totalScanslotsNum; curSensor++)
 219              		.loc 1 359 0
 220 0002 0022     		movs	r2, #0
 221 0004 08E0     		b	.L16
 222              	.LVL21:
 223              	.L17:
 360:Generated_Source\PSoC4/CapSense_SMS.c ****     {
 361:Generated_Source\PSoC4/CapSense_SMS.c ****         CapSense_compensationIDAC[curSensor] = CapSense_modulationIDAC[curSensor] / 2u;
 224              		.loc 1 361 0 discriminator 3
 225 0006 0D49     		ldr	r1, .L18
 226 0008 8B5C     		ldrb	r3, [r1, r2]
 227 000a 5D08     		lsrs	r5, r3, #1
 228 000c 0C4C     		ldr	r4, .L18+4
 229 000e A554     		strb	r5, [r4, r2]
 362:Generated_Source\PSoC4/CapSense_SMS.c ****         CapSense_modulationIDAC[curSensor] = (CapSense_modulationIDAC[curSensor] + 1u) / 2u;
 230              		.loc 1 362 0 discriminator 3
 231 0010 0133     		adds	r3, r3, #1
 232 0012 5B08     		lsrs	r3, r3, #1
 233 0014 8B54     		strb	r3, [r1, r2]
 359:Generated_Source\PSoC4/CapSense_SMS.c ****     {
 234              		.loc 1 359 0 discriminator 3
 235 0016 0132     		adds	r2, r2, #1
 236              	.LVL22:
 237              	.L16:
 359:Generated_Source\PSoC4/CapSense_SMS.c ****     {
 238              		.loc 1 359 0 is_stmt 0 discriminator 1
 239 0018 0378     		ldrb	r3, [r0]
 240 001a 9A42     		cmp	r2, r3
 241 001c F3D3     		bcc	.L17
 363:Generated_Source\PSoC4/CapSense_SMS.c ****     }
 364:Generated_Source\PSoC4/CapSense_SMS.c **** 
 365:Generated_Source\PSoC4/CapSense_SMS.c ****     CyIntDisable(CapSense_ISR_NUMBER);
 242              		.loc 1 365 0 is_stmt 1
 243 001e 0F20     		movs	r0, #15
 244              	.LVL23:
 245 0020 FFF7FEFF 		bl	CyIntDisable
 246              	.LVL24:
 366:Generated_Source\PSoC4/CapSense_SMS.c **** 
 367:Generated_Source\PSoC4/CapSense_SMS.c ****     newRegValue = CapSense_CSD_IDAC_REG;
 247              		.loc 1 367 0
 248 0024 074A     		ldr	r2, .L18+8
 249 0026 1168     		ldr	r1, [r2]
 250              	.LVL25:
 368:Generated_Source\PSoC4/CapSense_SMS.c ****     newRegValue &= ~(CapSense_CSD_IDAC1_MODE_MASK | CapSense_CSD_IDAC2_MODE_MASK);
 251              		.loc 1 368 0
 252 0028 074B     		ldr	r3, .L18+12
 253 002a 0B40     		ands	r3, r1
 254              	.LVL26:
 369:Generated_Source\PSoC4/CapSense_SMS.c ****     newRegValue |= (CapSense_CSD_IDAC1_MODE_VARIABLE | CapSense_CSD_IDAC2_MODE_FIXED);
 255              		.loc 1 369 0
 256 002c 0749     		ldr	r1, .L18+16
ARM GAS  C:\Users\Zeynep\AppData\Local\Temp\ccCwWLPb.s 			page 12


 257 002e 0B43     		orrs	r3, r1
 258              	.LVL27:
 370:Generated_Source\PSoC4/CapSense_SMS.c ****     CapSense_CSD_IDAC_REG = newRegValue;
 259              		.loc 1 370 0
 260 0030 1360     		str	r3, [r2]
 371:Generated_Source\PSoC4/CapSense_SMS.c **** 
 372:Generated_Source\PSoC4/CapSense_SMS.c ****     CyIntEnable(CapSense_ISR_NUMBER);
 261              		.loc 1 372 0
 262 0032 0F20     		movs	r0, #15
 263 0034 FFF7FEFF 		bl	CyIntEnable
 264              	.LVL28:
 373:Generated_Source\PSoC4/CapSense_SMS.c **** }
 265              		.loc 1 373 0
 266              		@ sp needed
 267 0038 70BD     		pop	{r4, r5, r6, pc}
 268              	.L19:
 269 003a C046     		.align	2
 270              	.L18:
 271 003c 00000000 		.word	CapSense_modulationIDAC
 272 0040 00000000 		.word	CapSense_compensationIDAC
 273 0044 08000840 		.word	1074266120
 274 0048 FFFCFFFC 		.word	-50332417
 275 004c 00020001 		.word	16777728
 276              		.cfi_endproc
 277              	.LFE36:
 278              		.size	CapSense_EnableBaselineIDAC, .-CapSense_EnableBaselineIDAC
 279              		.section	.text.CapSense_AutoTune,"ax",%progbits
 280              		.align	2
 281              		.global	CapSense_AutoTune
 282              		.code	16
 283              		.thumb_func
 284              		.type	CapSense_AutoTune, %function
 285              	CapSense_AutoTune:
 286              	.LFB32:
 146:Generated_Source\PSoC4/CapSense_SMS.c ****     uint32 curSensor;
 287              		.loc 1 146 0
 288              		.cfi_startproc
 289              		@ args = 0, pretend = 0, frame = 0
 290              		@ frame_needed = 0, uses_anonymous_args = 0
 291 0000 70B5     		push	{r4, r5, r6, lr}
 292              		.cfi_def_cfa_offset 16
 293              		.cfi_offset 4, -16
 294              		.cfi_offset 5, -12
 295              		.cfi_offset 6, -8
 296              		.cfi_offset 14, -4
 150:Generated_Source\PSoC4/CapSense_SMS.c ****     CapSense_config.totalWidgetsNum = CapSense_END_OF_WIDGETS_INDEX;
 297              		.loc 1 150 0
 298 0002 254B     		ldr	r3, .L27
 299 0004 0522     		movs	r2, #5
 300 0006 1A70     		strb	r2, [r3]
 151:Generated_Source\PSoC4/CapSense_SMS.c ****     CapSense_config.totalSensorsNum = CapSense_TOTAL_SENSOR_COUNT;
 301              		.loc 1 151 0
 302 0008 0121     		movs	r1, #1
 303 000a 5970     		strb	r1, [r3, #1]
 152:Generated_Source\PSoC4/CapSense_SMS.c **** 
 304              		.loc 1 152 0
 305 000c 9A70     		strb	r2, [r3, #2]
ARM GAS  C:\Users\Zeynep\AppData\Local\Temp\ccCwWLPb.s 			page 13


 154:Generated_Source\PSoC4/CapSense_SMS.c ****     CapSense_config.sensetivitySeed = CapSense_SENSETIVITY_FACTOR;
 306              		.loc 1 154 0
 307 000e 1332     		adds	r2, r2, #19
 308 0010 DA80     		strh	r2, [r3, #6]
 155:Generated_Source\PSoC4/CapSense_SMS.c **** 
 309              		.loc 1 155 0
 310 0012 224A     		ldr	r2, .L27+4
 311 0014 9A80     		strh	r2, [r3, #4]
 157:Generated_Source\PSoC4/CapSense_SMS.c **** 
 312              		.loc 1 157 0
 313 0016 224A     		ldr	r2, .L27+8
 314 0018 9A60     		str	r2, [r3, #8]
 159:Generated_Source\PSoC4/CapSense_SMS.c **** 
 315              		.loc 1 159 0
 316 001a FFF7FEFF 		bl	CapSense_SetAnalogSwitchesSrcDirect
 317              	.LVL29:
 161:Generated_Source\PSoC4/CapSense_SMS.c ****     {
 318              		.loc 1 161 0
 319 001e 0023     		movs	r3, #0
 320 0020 04E0     		b	.L21
 321              	.LVL30:
 322              	.L22:
 163:Generated_Source\PSoC4/CapSense_SMS.c ****     }
 323              		.loc 1 163 0 discriminator 3
 324 0022 9900     		lsls	r1, r3, #2
 325 0024 1F48     		ldr	r0, .L27+12
 326 0026 204A     		ldr	r2, .L27+16
 327 0028 8850     		str	r0, [r1, r2]
 161:Generated_Source\PSoC4/CapSense_SMS.c ****     {
 328              		.loc 1 161 0 discriminator 3
 329 002a 0133     		adds	r3, r3, #1
 330              	.LVL31:
 331              	.L21:
 161:Generated_Source\PSoC4/CapSense_SMS.c ****     {
 332              		.loc 1 161 0 is_stmt 0 discriminator 1
 333 002c 1A4A     		ldr	r2, .L27
 334 002e 5278     		ldrb	r2, [r2, #1]
 335 0030 9342     		cmp	r3, r2
 336 0032 F6D3     		bcc	.L22
 337 0034 0023     		movs	r3, #0
 338              	.LVL32:
 339 0036 06E0     		b	.L23
 340              	.LVL33:
 341              	.L24:
 169:Generated_Source\PSoC4/CapSense_SMS.c ****         CapSense_sampleClkDividerVal[curSensor] = CapSense_CALIBRATION_MD;
 342              		.loc 1 169 0 is_stmt 1 discriminator 3
 343 0038 0421     		movs	r1, #4
 344 003a 1C4A     		ldr	r2, .L27+20
 345 003c D154     		strb	r1, [r2, r3]
 170:Generated_Source\PSoC4/CapSense_SMS.c ****     }
 346              		.loc 1 170 0 discriminator 3
 347 003e 0239     		subs	r1, r1, #2
 348 0040 1B4A     		ldr	r2, .L27+24
 349 0042 D154     		strb	r1, [r2, r3]
 167:Generated_Source\PSoC4/CapSense_SMS.c ****     {
 350              		.loc 1 167 0 discriminator 3
 351 0044 0133     		adds	r3, r3, #1
ARM GAS  C:\Users\Zeynep\AppData\Local\Temp\ccCwWLPb.s 			page 14


 352              	.LVL34:
 353              	.L23:
 167:Generated_Source\PSoC4/CapSense_SMS.c ****     {
 354              		.loc 1 167 0 is_stmt 0 discriminator 1
 355 0046 042B     		cmp	r3, #4
 356 0048 F6D9     		bls	.L24
 173:Generated_Source\PSoC4/CapSense_SMS.c **** 
 357              		.loc 1 173 0 is_stmt 1
 358 004a FFF7FEFF 		bl	CapSense_DisableBaselineIDAC
 359              	.LVL35:
 175:Generated_Source\PSoC4/CapSense_SMS.c **** 
 360              		.loc 1 175 0
 361 004e 194E     		ldr	r6, .L27+28
 362 0050 114C     		ldr	r4, .L27
 363 0052 3100     		movs	r1, r6
 364 0054 2000     		movs	r0, r4
 365 0056 FFF7FEFF 		bl	CalibrateSensors_P4_v2_60
 366              	.LVL36:
 178:Generated_Source\PSoC4/CapSense_SMS.c ****     #endif /* (0u != CapSense_TOTAL_CENTROIDS_COUNT)  */
 367              		.loc 1 178 0
 368 005a 174D     		ldr	r5, .L27+32
 369 005c 2900     		movs	r1, r5
 370 005e 0120     		movs	r0, #1
 371 0060 FFF7FEFF 		bl	CapSense_NormalizeWidgets
 372              	.LVL37:
 181:Generated_Source\PSoC4/CapSense_SMS.c **** 
 373              		.loc 1 181 0
 374 0064 2000     		movs	r0, r4
 375 0066 FFF7FEFF 		bl	TunePrescalers_P4_v2_60
 376              	.LVL38:
 187:Generated_Source\PSoC4/CapSense_SMS.c ****     #if(0u != CapSense_TOTAL_CENTROIDS_COUNT)
 377              		.loc 1 187 0
 378 006a 3100     		movs	r1, r6
 379 006c 2000     		movs	r0, r4
 380 006e FFF7FEFF 		bl	CalibrateSensors_P4_v2_60
 381              	.LVL39:
 189:Generated_Source\PSoC4/CapSense_SMS.c ****     #endif /* (0u != CapSense_TOTAL_CENTROIDS_COUNT)  */
 382              		.loc 1 189 0
 383 0072 2900     		movs	r1, r5
 384 0074 0120     		movs	r0, #1
 385 0076 FFF7FEFF 		bl	CapSense_NormalizeWidgets
 386              	.LVL40:
 191:Generated_Source\PSoC4/CapSense_SMS.c **** 
 387              		.loc 1 191 0
 388 007a 2000     		movs	r0, r4
 389 007c FFF7FEFF 		bl	TuneSensitivity_P4_v2_60
 390              	.LVL41:
 193:Generated_Source\PSoC4/CapSense_SMS.c **** 
 391              		.loc 1 193 0
 392 0080 2000     		movs	r0, r4
 393 0082 FFF7FEFF 		bl	CapSense_EnableBaselineIDAC
 394              	.LVL42:
 195:Generated_Source\PSoC4/CapSense_SMS.c ****     {
 395              		.loc 1 195 0
 396 0086 0024     		movs	r4, #0
 397 0088 03E0     		b	.L25
 398              	.LVL43:
ARM GAS  C:\Users\Zeynep\AppData\Local\Temp\ccCwWLPb.s 			page 15


 399              	.L26:
 197:Generated_Source\PSoC4/CapSense_SMS.c ****     }
 400              		.loc 1 197 0 discriminator 3
 401 008a 2000     		movs	r0, r4
 402 008c FFF7FEFF 		bl	CapSense_UpdateThresholds
 403              	.LVL44:
 195:Generated_Source\PSoC4/CapSense_SMS.c ****     {
 404              		.loc 1 195 0 discriminator 3
 405 0090 0134     		adds	r4, r4, #1
 406              	.LVL45:
 407              	.L25:
 195:Generated_Source\PSoC4/CapSense_SMS.c ****     {
 408              		.loc 1 195 0 is_stmt 0 discriminator 1
 409 0092 042C     		cmp	r4, #4
 410 0094 F9D9     		bls	.L26
 199:Generated_Source\PSoC4/CapSense_SMS.c **** 
 411              		.loc 1 199 0 is_stmt 1
 412              		@ sp needed
 413              	.LVL46:
 414 0096 70BD     		pop	{r4, r5, r6, pc}
 415              	.L28:
 416              		.align	2
 417              	.L27:
 418 0098 00000000 		.word	CapSense_config
 419 009c CC040000 		.word	1228
 420 00a0 00000000 		.word	.LANCHOR0
 421 00a4 0000FF0F 		.word	268369920
 422 00a8 00000000 		.word	CapSense_widgetResolution
 423 00ac 00000000 		.word	CapSense_senseClkDividerVal
 424 00b0 00000000 		.word	CapSense_sampleClkDividerVal
 425 00b4 9A0D0000 		.word	3482
 426 00b8 00000000 		.word	CapSense_modulationIDAC
 427              		.cfi_endproc
 428              	.LFE32:
 429              		.size	CapSense_AutoTune, .-CapSense_AutoTune
 430              		.section	.text.CapSense_SetSensitivity,"ax",%progbits
 431              		.align	2
 432              		.global	CapSense_SetSensitivity
 433              		.code	16
 434              		.thumb_func
 435              		.type	CapSense_SetSensitivity, %function
 436              	CapSense_SetSensitivity:
 437              	.LFB37:
 374:Generated_Source\PSoC4/CapSense_SMS.c **** 
 375:Generated_Source\PSoC4/CapSense_SMS.c **** 
 376:Generated_Source\PSoC4/CapSense_SMS.c **** /*******************************************************************************
 377:Generated_Source\PSoC4/CapSense_SMS.c **** * Function Name: CapSense_SetSensitivity
 378:Generated_Source\PSoC4/CapSense_SMS.c **** ********************************************************************************
 379:Generated_Source\PSoC4/CapSense_SMS.c **** *
 380:Generated_Source\PSoC4/CapSense_SMS.c **** * Summary:
 381:Generated_Source\PSoC4/CapSense_SMS.c **** *  This API sets the sensitivity value for the sensor. The sensitivity
 382:Generated_Source\PSoC4/CapSense_SMS.c **** *  value is used during the auto-tuning algorithm executed as part of the CapSense_Start API.
 383:Generated_Source\PSoC4/CapSense_SMS.c **** *  This API is called by the application layer prior to calling the CapSense_Start API.
 384:Generated_Source\PSoC4/CapSense_SMS.c **** *  Calling this API after execution of CapSense_Start API has no effect.
 385:Generated_Source\PSoC4/CapSense_SMS.c **** *
 386:Generated_Source\PSoC4/CapSense_SMS.c **** * Parameters:
 387:Generated_Source\PSoC4/CapSense_SMS.c **** *  sensor  Sensor index
ARM GAS  C:\Users\Zeynep\AppData\Local\Temp\ccCwWLPb.s 			page 16


 388:Generated_Source\PSoC4/CapSense_SMS.c **** *  data    Sensitivity of the sensor. Possible values are below
 389:Generated_Source\PSoC4/CapSense_SMS.c **** *  1 - 0.1pf sensitivity
 390:Generated_Source\PSoC4/CapSense_SMS.c **** *  2 - 0.2pf sensitivity
 391:Generated_Source\PSoC4/CapSense_SMS.c **** *  3 - 0.3pf sensitivity
 392:Generated_Source\PSoC4/CapSense_SMS.c **** *  4 - 0.4pf sensitivity
 393:Generated_Source\PSoC4/CapSense_SMS.c **** *  5 - 0.5pf sensitivity
 394:Generated_Source\PSoC4/CapSense_SMS.c **** *  6 - 0.6pf sensitivity
 395:Generated_Source\PSoC4/CapSense_SMS.c **** *  7 - 0.7pf sensitivity
 396:Generated_Source\PSoC4/CapSense_SMS.c **** *  8 - 0.8pf sensitivity
 397:Generated_Source\PSoC4/CapSense_SMS.c **** *  9 - 0.9pf sensitivity
 398:Generated_Source\PSoC4/CapSense_SMS.c **** *  10 - 1.0pf sensitivity
 399:Generated_Source\PSoC4/CapSense_SMS.c **** *  All other values, set sensitivity to 1.0pf
 400:Generated_Source\PSoC4/CapSense_SMS.c **** *
 401:Generated_Source\PSoC4/CapSense_SMS.c **** *  Return Value:
 402:Generated_Source\PSoC4/CapSense_SMS.c **** *   None
 403:Generated_Source\PSoC4/CapSense_SMS.c **** *
 404:Generated_Source\PSoC4/CapSense_SMS.c **** * Global Variables:
 405:Generated_Source\PSoC4/CapSense_SMS.c **** * CapSense_sensorSensitivity[] - This 8-bits array contains Sensitivity in the LSB nibble
 406:Generated_Source\PSoC4/CapSense_SMS.c **** *                                and Noise Reset Counter value in the MSB nibble.
 407:Generated_Source\PSoC4/CapSense_SMS.c **** *
 408:Generated_Source\PSoC4/CapSense_SMS.c **** * Side Effects:
 409:Generated_Source\PSoC4/CapSense_SMS.c **** *  None
 410:Generated_Source\PSoC4/CapSense_SMS.c **** *
 411:Generated_Source\PSoC4/CapSense_SMS.c **** *******************************************************************************/
 412:Generated_Source\PSoC4/CapSense_SMS.c **** void CapSense_SetSensitivity(uint32 sensor, uint32 value)
 413:Generated_Source\PSoC4/CapSense_SMS.c **** {
 438              		.loc 1 413 0
 439              		.cfi_startproc
 440              		@ args = 0, pretend = 0, frame = 0
 441              		@ frame_needed = 0, uses_anonymous_args = 0
 442              	.LVL47:
 443 0000 10B5     		push	{r4, lr}
 444              		.cfi_def_cfa_offset 8
 445              		.cfi_offset 4, -8
 446              		.cfi_offset 14, -4
 414:Generated_Source\PSoC4/CapSense_SMS.c ****     if(value > 10u)
 447              		.loc 1 414 0
 448 0002 0A29     		cmp	r1, #10
 449 0004 00D9     		bls	.L30
 415:Generated_Source\PSoC4/CapSense_SMS.c ****     {
 416:Generated_Source\PSoC4/CapSense_SMS.c ****         value = 10u;
 450              		.loc 1 416 0
 451 0006 0A21     		movs	r1, #10
 452              	.LVL48:
 453              	.L30:
 417:Generated_Source\PSoC4/CapSense_SMS.c ****     }
 418:Generated_Source\PSoC4/CapSense_SMS.c **** 
 419:Generated_Source\PSoC4/CapSense_SMS.c ****     /* Clear SensorSensitivity value in LSB nibble */
 420:Generated_Source\PSoC4/CapSense_SMS.c ****     CapSense_sensorSensitivity[sensor] &= (uint8)~CapSense_SENSITIVITY_MASK;
 454              		.loc 1 420 0
 455 0008 034A     		ldr	r2, .L32
 456 000a 135C     		ldrb	r3, [r2, r0]
 457 000c 0F24     		movs	r4, #15
 458 000e A343     		bics	r3, r4
 421:Generated_Source\PSoC4/CapSense_SMS.c ****     /* Set SensorSensitivity value in LSB nibble */
 422:Generated_Source\PSoC4/CapSense_SMS.c ****     CapSense_sensorSensitivity[sensor] |= (uint8)value;
 459              		.loc 1 422 0
ARM GAS  C:\Users\Zeynep\AppData\Local\Temp\ccCwWLPb.s 			page 17


 460 0010 1943     		orrs	r1, r3
 461              	.LVL49:
 462 0012 1154     		strb	r1, [r2, r0]
 423:Generated_Source\PSoC4/CapSense_SMS.c **** }
 463              		.loc 1 423 0
 464              		@ sp needed
 465 0014 10BD     		pop	{r4, pc}
 466              	.L33:
 467 0016 C046     		.align	2
 468              	.L32:
 469 0018 00000000 		.word	.LANCHOR1
 470              		.cfi_endproc
 471              	.LFE37:
 472              		.size	CapSense_SetSensitivity, .-CapSense_SetSensitivity
 473              		.section	.text.CapSense_GetSensitivityCoefficient,"ax",%progbits
 474              		.align	2
 475              		.global	CapSense_GetSensitivityCoefficient
 476              		.code	16
 477              		.thumb_func
 478              		.type	CapSense_GetSensitivityCoefficient, %function
 479              	CapSense_GetSensitivityCoefficient:
 480              	.LFB38:
 424:Generated_Source\PSoC4/CapSense_SMS.c **** 
 425:Generated_Source\PSoC4/CapSense_SMS.c **** 
 426:Generated_Source\PSoC4/CapSense_SMS.c **** /*******************************************************************************
 427:Generated_Source\PSoC4/CapSense_SMS.c **** * Function Name: CapSense_GetSensitivityCoefficient
 428:Generated_Source\PSoC4/CapSense_SMS.c **** ********************************************************************************
 429:Generated_Source\PSoC4/CapSense_SMS.c **** *
 430:Generated_Source\PSoC4/CapSense_SMS.c **** * Summary:
 431:Generated_Source\PSoC4/CapSense_SMS.c **** *  This API returns the K coefficient for the appropriate sensor.
 432:Generated_Source\PSoC4/CapSense_SMS.c **** *
 433:Generated_Source\PSoC4/CapSense_SMS.c **** * Parameters:
 434:Generated_Source\PSoC4/CapSense_SMS.c **** *  sensor:  Sensor index
 435:Generated_Source\PSoC4/CapSense_SMS.c **** *
 436:Generated_Source\PSoC4/CapSense_SMS.c **** *  Return Value:
 437:Generated_Source\PSoC4/CapSense_SMS.c **** *   K - value for the appropriate sensor.
 438:Generated_Source\PSoC4/CapSense_SMS.c **** *
 439:Generated_Source\PSoC4/CapSense_SMS.c **** * Global Variables:
 440:Generated_Source\PSoC4/CapSense_SMS.c **** *  CapSense_kValueTbl[] - This 8-bits array contains the K value for each sensor.
 441:Generated_Source\PSoC4/CapSense_SMS.c **** *
 442:Generated_Source\PSoC4/CapSense_SMS.c **** * Side Effects:
 443:Generated_Source\PSoC4/CapSense_SMS.c **** *  None
 444:Generated_Source\PSoC4/CapSense_SMS.c **** *
 445:Generated_Source\PSoC4/CapSense_SMS.c **** *******************************************************************************/
 446:Generated_Source\PSoC4/CapSense_SMS.c **** uint8 CapSense_GetSensitivityCoefficient(uint32 sensor)
 447:Generated_Source\PSoC4/CapSense_SMS.c **** {
 481              		.loc 1 447 0
 482              		.cfi_startproc
 483              		@ args = 0, pretend = 0, frame = 0
 484              		@ frame_needed = 0, uses_anonymous_args = 0
 485              		@ link register save eliminated.
 486              	.LVL50:
 448:Generated_Source\PSoC4/CapSense_SMS.c ****     return (CapSense_kValueTbl[sensor]);
 487              		.loc 1 448 0
 488 0000 014B     		ldr	r3, .L35
 489 0002 185C     		ldrb	r0, [r3, r0]
 490              	.LVL51:
ARM GAS  C:\Users\Zeynep\AppData\Local\Temp\ccCwWLPb.s 			page 18


 449:Generated_Source\PSoC4/CapSense_SMS.c **** }
 491              		.loc 1 449 0
 492              		@ sp needed
 493 0004 7047     		bx	lr
 494              	.L36:
 495 0006 C046     		.align	2
 496              	.L35:
 497 0008 00000000 		.word	CapSense_kValueTbl
 498              		.cfi_endproc
 499              	.LFE38:
 500              		.size	CapSense_GetSensitivityCoefficient, .-CapSense_GetSensitivityCoefficient
 501              		.section	.text.CapSense_GetNoiseEnvelope,"ax",%progbits
 502              		.align	2
 503              		.global	CapSense_GetNoiseEnvelope
 504              		.code	16
 505              		.thumb_func
 506              		.type	CapSense_GetNoiseEnvelope, %function
 507              	CapSense_GetNoiseEnvelope:
 508              	.LFB39:
 450:Generated_Source\PSoC4/CapSense_SMS.c **** 
 451:Generated_Source\PSoC4/CapSense_SMS.c **** 
 452:Generated_Source\PSoC4/CapSense_SMS.c **** /*******************************************************************************
 453:Generated_Source\PSoC4/CapSense_SMS.c **** * Function Name: CapSense_GetNoiseEnvelope
 454:Generated_Source\PSoC4/CapSense_SMS.c **** ********************************************************************************
 455:Generated_Source\PSoC4/CapSense_SMS.c **** *
 456:Generated_Source\PSoC4/CapSense_SMS.c **** * Summary:
 457:Generated_Source\PSoC4/CapSense_SMS.c **** *  This function returns the noise value of a
 458:Generated_Source\PSoC4/CapSense_SMS.c **** *  component.
 459:Generated_Source\PSoC4/CapSense_SMS.c **** *
 460:Generated_Source\PSoC4/CapSense_SMS.c **** * Parameters:
 461:Generated_Source\PSoC4/CapSense_SMS.c **** *  sensor - Sensor number.
 462:Generated_Source\PSoC4/CapSense_SMS.c **** *
 463:Generated_Source\PSoC4/CapSense_SMS.c **** * Return:
 464:Generated_Source\PSoC4/CapSense_SMS.c **** *  The noise envelope value of the sensor
 465:Generated_Source\PSoC4/CapSense_SMS.c **** *  indicated by argument.
 466:Generated_Source\PSoC4/CapSense_SMS.c **** *
 467:Generated_Source\PSoC4/CapSense_SMS.c **** * Global Variables:
 468:Generated_Source\PSoC4/CapSense_SMS.c **** *  CapSense_noiseEnvelopeTbl[] - array with Noise Envelope.
 469:Generated_Source\PSoC4/CapSense_SMS.c **** *
 470:Generated_Source\PSoC4/CapSense_SMS.c **** * Side Effects:
 471:Generated_Source\PSoC4/CapSense_SMS.c **** *  None
 472:Generated_Source\PSoC4/CapSense_SMS.c **** *
 473:Generated_Source\PSoC4/CapSense_SMS.c **** *******************************************************************************/
 474:Generated_Source\PSoC4/CapSense_SMS.c **** uint16 CapSense_GetNoiseEnvelope(uint32 sensor)
 475:Generated_Source\PSoC4/CapSense_SMS.c **** {
 509              		.loc 1 475 0
 510              		.cfi_startproc
 511              		@ args = 0, pretend = 0, frame = 0
 512              		@ frame_needed = 0, uses_anonymous_args = 0
 513              		@ link register save eliminated.
 514              	.LVL52:
 476:Generated_Source\PSoC4/CapSense_SMS.c ****     return((uint16)((uint16)CapSense_noiseEnvelopeTbl[sensor] << 1u) + 1u);
 515              		.loc 1 476 0
 516 0000 024B     		ldr	r3, .L38
 517 0002 185C     		ldrb	r0, [r3, r0]
 518              	.LVL53:
 519 0004 4000     		lsls	r0, r0, #1
ARM GAS  C:\Users\Zeynep\AppData\Local\Temp\ccCwWLPb.s 			page 19


 520 0006 0130     		adds	r0, r0, #1
 477:Generated_Source\PSoC4/CapSense_SMS.c **** }
 521              		.loc 1 477 0
 522              		@ sp needed
 523 0008 7047     		bx	lr
 524              	.L39:
 525 000a C046     		.align	2
 526              	.L38:
 527 000c 00000000 		.word	CapSense_noiseEnvelopeTbl
 528              		.cfi_endproc
 529              	.LFE39:
 530              		.size	CapSense_GetNoiseEnvelope, .-CapSense_GetNoiseEnvelope
 531              		.global	__aeabi_uidiv
 532              		.section	.text.CapSense_GetNormalizedDiffCountData,"ax",%progbits
 533              		.align	2
 534              		.global	CapSense_GetNormalizedDiffCountData
 535              		.code	16
 536              		.thumb_func
 537              		.type	CapSense_GetNormalizedDiffCountData, %function
 538              	CapSense_GetNormalizedDiffCountData:
 539              	.LFB40:
 478:Generated_Source\PSoC4/CapSense_SMS.c **** 
 479:Generated_Source\PSoC4/CapSense_SMS.c **** 
 480:Generated_Source\PSoC4/CapSense_SMS.c **** /*******************************************************************************
 481:Generated_Source\PSoC4/CapSense_SMS.c **** * Function Name: CapSense_GetNormalizedDiffCountData
 482:Generated_Source\PSoC4/CapSense_SMS.c **** ********************************************************************************
 483:Generated_Source\PSoC4/CapSense_SMS.c **** *
 484:Generated_Source\PSoC4/CapSense_SMS.c **** * Summary:
 485:Generated_Source\PSoC4/CapSense_SMS.c **** *  This API returns normalized difference count data.
 486:Generated_Source\PSoC4/CapSense_SMS.c **** *
 487:Generated_Source\PSoC4/CapSense_SMS.c **** * Parameters:
 488:Generated_Source\PSoC4/CapSense_SMS.c **** *  sensor:  Sensor number.
 489:Generated_Source\PSoC4/CapSense_SMS.c **** *
 490:Generated_Source\PSoC4/CapSense_SMS.c **** * Return:
 491:Generated_Source\PSoC4/CapSense_SMS.c **** *  This API returns a normalized count value of the sensor indicated by the
 492:Generated_Source\PSoC4/CapSense_SMS.c **** *  argument.
 493:Generated_Source\PSoC4/CapSense_SMS.c **** *
 494:Generated_Source\PSoC4/CapSense_SMS.c **** * Global Variables:
 495:Generated_Source\PSoC4/CapSense_SMS.c **** *  CapSense_sensorSignal[] - array with difference counts for sensors
 496:Generated_Source\PSoC4/CapSense_SMS.c **** *
 497:Generated_Source\PSoC4/CapSense_SMS.c **** * Side Effects:
 498:Generated_Source\PSoC4/CapSense_SMS.c **** *  None
 499:Generated_Source\PSoC4/CapSense_SMS.c **** *
 500:Generated_Source\PSoC4/CapSense_SMS.c **** *******************************************************************************/
 501:Generated_Source\PSoC4/CapSense_SMS.c **** uint16 CapSense_GetNormalizedDiffCountData(uint32 sensor)
 502:Generated_Source\PSoC4/CapSense_SMS.c **** {
 540              		.loc 1 502 0
 541              		.cfi_startproc
 542              		@ args = 0, pretend = 0, frame = 0
 543              		@ frame_needed = 0, uses_anonymous_args = 0
 544              	.LVL54:
 545 0000 10B5     		push	{r4, lr}
 546              		.cfi_def_cfa_offset 8
 547              		.cfi_offset 4, -8
 548              		.cfi_offset 14, -4
 549 0002 0200     		movs	r2, r0
 503:Generated_Source\PSoC4/CapSense_SMS.c ****     return (uint16)(((uint32)CapSense_sensorSignal[sensor] << 7u) / CapSense_kValueTbl[sensor]);
ARM GAS  C:\Users\Zeynep\AppData\Local\Temp\ccCwWLPb.s 			page 20


 550              		.loc 1 503 0
 551 0004 044B     		ldr	r3, .L41
 552 0006 1B5C     		ldrb	r3, [r3, r0]
 553 0008 D801     		lsls	r0, r3, #7
 554              	.LVL55:
 555 000a 044B     		ldr	r3, .L41+4
 556 000c 995C     		ldrb	r1, [r3, r2]
 557 000e FFF7FEFF 		bl	__aeabi_uidiv
 558              	.LVL56:
 559 0012 80B2     		uxth	r0, r0
 504:Generated_Source\PSoC4/CapSense_SMS.c **** }
 560              		.loc 1 504 0
 561              		@ sp needed
 562 0014 10BD     		pop	{r4, pc}
 563              	.L42:
 564 0016 C046     		.align	2
 565              	.L41:
 566 0018 00000000 		.word	CapSense_sensorSignal
 567 001c 00000000 		.word	CapSense_kValueTbl
 568              		.cfi_endproc
 569              	.LFE40:
 570              		.size	CapSense_GetNormalizedDiffCountData, .-CapSense_GetNormalizedDiffCountData
 571              		.global	CapSense_configPointers
 572              		.comm	CapSense_config,12,4
 573              		.global	CapSense_sensorSensitivity
 574              		.comm	CapSense_kValueTbl,5,4
 575              		.comm	CapSense_previousSampleTbl,10,4
 576              		.comm	CapSense_sampleMaxTbl,10,4
 577              		.comm	CapSense_sampleMinTbl,10,4
 578              		.comm	CapSense_signRegisterTbl,5,4
 579              		.comm	CapSense_runningDifferenceTbl,5,4
 580              		.comm	CapSense_noiseEnvelopeTbl,5,4
 581              		.global	CapSense_prescalerTable
 582              		.section	.rodata
 583              		.align	2
 584              		.set	.LANCHOR0,. + 0
 585              		.type	CapSense_configPointers, %object
 586              		.size	CapSense_configPointers, 92
 587              	CapSense_configPointers:
 588 0000 00000000 		.word	CapSense_modulationIDAC
 589 0004 00000000 		.word	CapSense_compensationIDAC
 590 0008 00000000 		.word	CapSense_sensorSensitivity
 591 000c 00000000 		.word	CapSense_senseClkDividerVal
 592 0010 00000000 		.word	CapSense_sampleClkDividerVal
 593 0014 00000000 		.word	CapSense_widgetNumber
 594 0018 00000000 		.word	CapSense_widgetResolution
 595 001c 00000000 		.word	CapSense_noiseEnvelopeTbl
 596 0020 00000000 		.word	CapSense_runningDifferenceTbl
 597 0024 00000000 		.word	CapSense_signRegisterTbl
 598 0028 00000000 		.word	CapSense_sampleMinTbl
 599 002c 00000000 		.word	CapSense_sampleMaxTbl
 600 0030 00000000 		.word	CapSense_previousSampleTbl
 601 0034 00000000 		.word	CapSense_kValueTbl
 602 0038 00000000 		.word	CapSense_scanSpeedTbl
 603 003c 00000000 		.word	CapSense_prescalerTable
 604 0040 00000000 		.word	CapSense_rawDataIndex
 605 0044 00000000 		.word	CapSense_numberOfSensors
ARM GAS  C:\Users\Zeynep\AppData\Local\Temp\ccCwWLPb.s 			page 21


 606 0048 00000000 		.word	CapSense_GetSensorRaw
 607 004c 00000000 		.word	CapSense_PreScan
 608 0050 00000000 		.word	CapSense_ReadSensorRaw
 609 0054 00000000 		.word	CapSense_GetBitValue
 610 0058 00000000 		.word	CapSense_SetBitValue
 611              		.type	CapSense_prescalerTable, %object
 612              		.size	CapSense_prescalerTable, 16
 613              	CapSense_prescalerTable:
 614 005c 01       		.byte	1
 615 005d 01       		.byte	1
 616 005e 01       		.byte	1
 617 005f 02       		.byte	2
 618 0060 02       		.byte	2
 619 0061 02       		.byte	2
 620 0062 02       		.byte	2
 621 0063 04       		.byte	4
 622 0064 04       		.byte	4
 623 0065 04       		.byte	4
 624 0066 04       		.byte	4
 625 0067 04       		.byte	4
 626 0068 04       		.byte	4
 627 0069 04       		.byte	4
 628 006a 04       		.byte	4
 629 006b 04       		.byte	4
 630              		.data
 631              		.align	2
 632              		.set	.LANCHOR1,. + 0
 633              		.type	CapSense_sensorSensitivity, %object
 634              		.size	CapSense_sensorSensitivity, 5
 635              	CapSense_sensorSensitivity:
 636 0000 02       		.byte	2
 637 0001 02       		.byte	2
 638 0002 02       		.byte	2
 639 0003 02       		.byte	2
 640 0004 02       		.byte	2
 641              		.text
 642              	.Letext0:
 643              		.file 2 "Generated_Source\\PSoC4\\cytypes.h"
 644              		.file 3 "Generated_Source\\PSoC4\\CapSense_PVT.h"
 645              		.file 4 "Generated_Source\\PSoC4\\CapSense.h"
 646              		.file 5 "Generated_Source\\PSoC4\\CapSense_CSHL.h"
 647              		.file 6 "Generated_Source\\PSoC4\\CyLib.h"