ARM GAS  C:\Users\Zeynep\AppData\Local\Temp\ccgIGPOV.s 			page 1


   1              		.syntax unified
   2              		.cpu cortex-m0
   3              		.fpu softvfp
   4              		.eabi_attribute 20, 1
   5              		.eabi_attribute 21, 1
   6              		.eabi_attribute 23, 3
   7              		.eabi_attribute 24, 1
   8              		.eabi_attribute 25, 1
   9              		.eabi_attribute 26, 1
  10              		.eabi_attribute 30, 1
  11              		.eabi_attribute 34, 0
  12              		.eabi_attribute 18, 4
  13              		.thumb
  14              		.syntax unified
  15              		.file	"LCD_Char.c"
  16              		.text
  17              	.Ltext0:
  18              		.cfi_sections	.debug_frame
  19              		.section	.text.LCD_Char_WrCntrlNib,"ax",%progbits
  20              		.align	2
  21              		.code	16
  22              		.thumb_func
  23              		.type	LCD_Char_WrCntrlNib, %function
  24              	LCD_Char_WrCntrlNib:
  25              	.LFB11:
  26              		.file 1 "Generated_Source\\PSoC4\\LCD_Char.c"
   1:Generated_Source\PSoC4/LCD_Char.c **** /*******************************************************************************
   2:Generated_Source\PSoC4/LCD_Char.c **** * File Name: LCD_Char.c
   3:Generated_Source\PSoC4/LCD_Char.c **** * Version 2.20
   4:Generated_Source\PSoC4/LCD_Char.c **** *
   5:Generated_Source\PSoC4/LCD_Char.c **** * Description:
   6:Generated_Source\PSoC4/LCD_Char.c **** *  This file provides source code for the Character LCD component's API.
   7:Generated_Source\PSoC4/LCD_Char.c **** *
   8:Generated_Source\PSoC4/LCD_Char.c **** * Note:
   9:Generated_Source\PSoC4/LCD_Char.c **** *
  10:Generated_Source\PSoC4/LCD_Char.c **** ********************************************************************************
  11:Generated_Source\PSoC4/LCD_Char.c **** * Copyright 2008-2014, Cypress Semiconductor Corporation.  All rights reserved.
  12:Generated_Source\PSoC4/LCD_Char.c **** * You may use this file only in accordance with the license, terms, conditions,
  13:Generated_Source\PSoC4/LCD_Char.c **** * disclaimers, and limitations in the end user license agreement accompanying
  14:Generated_Source\PSoC4/LCD_Char.c **** * the software package with which this file was provided.
  15:Generated_Source\PSoC4/LCD_Char.c **** *******************************************************************************/
  16:Generated_Source\PSoC4/LCD_Char.c **** 
  17:Generated_Source\PSoC4/LCD_Char.c **** #include "CyLib.h"
  18:Generated_Source\PSoC4/LCD_Char.c **** #include "LCD_Char.h"
  19:Generated_Source\PSoC4/LCD_Char.c **** 
  20:Generated_Source\PSoC4/LCD_Char.c **** 
  21:Generated_Source\PSoC4/LCD_Char.c **** static void LCD_Char_WrDatNib(uint8 nibble) ;
  22:Generated_Source\PSoC4/LCD_Char.c **** static void LCD_Char_WrCntrlNib(uint8 nibble) ;
  23:Generated_Source\PSoC4/LCD_Char.c **** 
  24:Generated_Source\PSoC4/LCD_Char.c **** /* Stores state of component. Indicates whether component is or not
  25:Generated_Source\PSoC4/LCD_Char.c **** * in enable state.
  26:Generated_Source\PSoC4/LCD_Char.c **** */
  27:Generated_Source\PSoC4/LCD_Char.c **** uint8 LCD_Char_enableState = 0u;
  28:Generated_Source\PSoC4/LCD_Char.c **** 
  29:Generated_Source\PSoC4/LCD_Char.c **** uint8 LCD_Char_initVar = 0u;
  30:Generated_Source\PSoC4/LCD_Char.c **** 
  31:Generated_Source\PSoC4/LCD_Char.c **** 
ARM GAS  C:\Users\Zeynep\AppData\Local\Temp\ccgIGPOV.s 			page 2


  32:Generated_Source\PSoC4/LCD_Char.c **** /*******************************************************************************
  33:Generated_Source\PSoC4/LCD_Char.c **** * Function Name: LCD_Char_Init
  34:Generated_Source\PSoC4/LCD_Char.c **** ********************************************************************************
  35:Generated_Source\PSoC4/LCD_Char.c **** *
  36:Generated_Source\PSoC4/LCD_Char.c **** * Summary:
  37:Generated_Source\PSoC4/LCD_Char.c **** *  Performs initialization required for the components normal work.
  38:Generated_Source\PSoC4/LCD_Char.c **** *  This function initializes the LCD hardware module as follows:
  39:Generated_Source\PSoC4/LCD_Char.c **** *        Enables a 4-bit interface
  40:Generated_Source\PSoC4/LCD_Char.c **** *        Clears the display
  41:Generated_Source\PSoC4/LCD_Char.c **** *        Enables the auto cursor increment
  42:Generated_Source\PSoC4/LCD_Char.c **** *        Resets the cursor to start position
  43:Generated_Source\PSoC4/LCD_Char.c **** *  Also, it loads a custom character set to the LCD if it was defined in the customizer.
  44:Generated_Source\PSoC4/LCD_Char.c **** *
  45:Generated_Source\PSoC4/LCD_Char.c **** * Parameters:
  46:Generated_Source\PSoC4/LCD_Char.c **** *  None.
  47:Generated_Source\PSoC4/LCD_Char.c **** *
  48:Generated_Source\PSoC4/LCD_Char.c **** * Return:
  49:Generated_Source\PSoC4/LCD_Char.c **** *  None.
  50:Generated_Source\PSoC4/LCD_Char.c **** *
  51:Generated_Source\PSoC4/LCD_Char.c **** * Reentrant:
  52:Generated_Source\PSoC4/LCD_Char.c **** *  No.
  53:Generated_Source\PSoC4/LCD_Char.c **** *
  54:Generated_Source\PSoC4/LCD_Char.c **** *******************************************************************************/
  55:Generated_Source\PSoC4/LCD_Char.c **** void LCD_Char_Init(void) 
  56:Generated_Source\PSoC4/LCD_Char.c **** {
  57:Generated_Source\PSoC4/LCD_Char.c ****     /* INIT CODE */
  58:Generated_Source\PSoC4/LCD_Char.c ****     CyDelay(40u);                                                        /* Delay 40 ms */
  59:Generated_Source\PSoC4/LCD_Char.c ****     LCD_Char_WrCntrlNib(LCD_Char_DISPLAY_8_BIT_INIT);    /* Selects 8-bit mode */
  60:Generated_Source\PSoC4/LCD_Char.c ****     CyDelay(5u);                                                         /* Delay 5 ms */
  61:Generated_Source\PSoC4/LCD_Char.c ****     LCD_Char_WrCntrlNib(LCD_Char_DISPLAY_8_BIT_INIT);    /* Selects 8-bit mode */
  62:Generated_Source\PSoC4/LCD_Char.c ****     CyDelay(15u);                                                        /* Delay 15 ms */
  63:Generated_Source\PSoC4/LCD_Char.c ****     LCD_Char_WrCntrlNib(LCD_Char_DISPLAY_8_BIT_INIT);    /* Selects 8-bit mode */
  64:Generated_Source\PSoC4/LCD_Char.c ****     CyDelay(1u);                                                         /* Delay 1 ms */
  65:Generated_Source\PSoC4/LCD_Char.c ****     LCD_Char_WrCntrlNib(LCD_Char_DISPLAY_4_BIT_INIT);    /* Selects 4-bit mode */
  66:Generated_Source\PSoC4/LCD_Char.c ****     CyDelay(5u);                                                         /* Delay 5 ms */
  67:Generated_Source\PSoC4/LCD_Char.c **** 
  68:Generated_Source\PSoC4/LCD_Char.c ****     LCD_Char_WriteControl(LCD_Char_CURSOR_AUTO_INCR_ON);    /* Incr Cursor After Writes */
  69:Generated_Source\PSoC4/LCD_Char.c ****     LCD_Char_WriteControl(LCD_Char_DISPLAY_CURSOR_ON);      /* Turn Display, Cursor ON */
  70:Generated_Source\PSoC4/LCD_Char.c ****     LCD_Char_WriteControl(LCD_Char_DISPLAY_2_LINES_5x10);   /* 2 Lines by 5x10 Characters */
  71:Generated_Source\PSoC4/LCD_Char.c ****     LCD_Char_WriteControl(LCD_Char_DISPLAY_CURSOR_OFF);     /* Turn Display, Cursor OFF */
  72:Generated_Source\PSoC4/LCD_Char.c ****     LCD_Char_WriteControl(LCD_Char_CLEAR_DISPLAY);          /* Clear LCD Screen */
  73:Generated_Source\PSoC4/LCD_Char.c ****     LCD_Char_WriteControl(LCD_Char_DISPLAY_ON_CURSOR_OFF);  /* Turn Display ON, Cursor OFF */
  74:Generated_Source\PSoC4/LCD_Char.c ****     LCD_Char_WriteControl(LCD_Char_RESET_CURSOR_POSITION);  /* Set Cursor to 0,0 */
  75:Generated_Source\PSoC4/LCD_Char.c ****     CyDelay(5u);
  76:Generated_Source\PSoC4/LCD_Char.c **** 
  77:Generated_Source\PSoC4/LCD_Char.c ****     #if(LCD_Char_CUSTOM_CHAR_SET != LCD_Char_NONE)
  78:Generated_Source\PSoC4/LCD_Char.c ****         LCD_Char_LoadCustomFonts(LCD_Char_customFonts);
  79:Generated_Source\PSoC4/LCD_Char.c ****     #endif /* LCD_Char_CUSTOM_CHAR_SET != LCD_Char_NONE */
  80:Generated_Source\PSoC4/LCD_Char.c **** }
  81:Generated_Source\PSoC4/LCD_Char.c **** 
  82:Generated_Source\PSoC4/LCD_Char.c **** 
  83:Generated_Source\PSoC4/LCD_Char.c **** /*******************************************************************************
  84:Generated_Source\PSoC4/LCD_Char.c **** * Function Name: LCD_Char_Enable
  85:Generated_Source\PSoC4/LCD_Char.c **** ********************************************************************************
  86:Generated_Source\PSoC4/LCD_Char.c **** *
  87:Generated_Source\PSoC4/LCD_Char.c **** * Summary:
  88:Generated_Source\PSoC4/LCD_Char.c **** *  Turns on the display.
ARM GAS  C:\Users\Zeynep\AppData\Local\Temp\ccgIGPOV.s 			page 3


  89:Generated_Source\PSoC4/LCD_Char.c **** *
  90:Generated_Source\PSoC4/LCD_Char.c **** * Parameters:
  91:Generated_Source\PSoC4/LCD_Char.c **** *  None.
  92:Generated_Source\PSoC4/LCD_Char.c **** *
  93:Generated_Source\PSoC4/LCD_Char.c **** * Return:
  94:Generated_Source\PSoC4/LCD_Char.c **** *  None.
  95:Generated_Source\PSoC4/LCD_Char.c **** *
  96:Generated_Source\PSoC4/LCD_Char.c **** * Reentrant:
  97:Generated_Source\PSoC4/LCD_Char.c **** *  No.
  98:Generated_Source\PSoC4/LCD_Char.c **** *
  99:Generated_Source\PSoC4/LCD_Char.c **** * Theory:
 100:Generated_Source\PSoC4/LCD_Char.c **** *  This function has no effect when it is called the first time as
 101:Generated_Source\PSoC4/LCD_Char.c **** *  LCD_Char_Init() turns on the LCD.
 102:Generated_Source\PSoC4/LCD_Char.c **** *
 103:Generated_Source\PSoC4/LCD_Char.c **** *******************************************************************************/
 104:Generated_Source\PSoC4/LCD_Char.c **** void LCD_Char_Enable(void) 
 105:Generated_Source\PSoC4/LCD_Char.c **** {
 106:Generated_Source\PSoC4/LCD_Char.c ****     LCD_Char_DisplayOn();
 107:Generated_Source\PSoC4/LCD_Char.c ****     LCD_Char_enableState = 1u;
 108:Generated_Source\PSoC4/LCD_Char.c **** }
 109:Generated_Source\PSoC4/LCD_Char.c **** 
 110:Generated_Source\PSoC4/LCD_Char.c **** 
 111:Generated_Source\PSoC4/LCD_Char.c **** /*******************************************************************************
 112:Generated_Source\PSoC4/LCD_Char.c **** * Function Name: LCD_Char_Start
 113:Generated_Source\PSoC4/LCD_Char.c **** ********************************************************************************
 114:Generated_Source\PSoC4/LCD_Char.c **** *
 115:Generated_Source\PSoC4/LCD_Char.c **** * Summary:
 116:Generated_Source\PSoC4/LCD_Char.c **** *  Performs initialization required for the components normal work.
 117:Generated_Source\PSoC4/LCD_Char.c **** *  This function initializes the LCD hardware module as follows:
 118:Generated_Source\PSoC4/LCD_Char.c **** *        Enables 4-bit interface
 119:Generated_Source\PSoC4/LCD_Char.c **** *        Clears the display
 120:Generated_Source\PSoC4/LCD_Char.c **** *        Enables auto cursor increment
 121:Generated_Source\PSoC4/LCD_Char.c **** *        Resets the cursor to start position
 122:Generated_Source\PSoC4/LCD_Char.c **** *  Also, it loads a custom character set to the LCD if it was defined in the customizer.
 123:Generated_Source\PSoC4/LCD_Char.c **** *  If it was not the first call in this project, then it just turns on the
 124:Generated_Source\PSoC4/LCD_Char.c **** *  display
 125:Generated_Source\PSoC4/LCD_Char.c **** *
 126:Generated_Source\PSoC4/LCD_Char.c **** *
 127:Generated_Source\PSoC4/LCD_Char.c **** * Parameters:
 128:Generated_Source\PSoC4/LCD_Char.c **** *  LCD_Char_initVar - global variable.
 129:Generated_Source\PSoC4/LCD_Char.c **** *
 130:Generated_Source\PSoC4/LCD_Char.c **** * Return:
 131:Generated_Source\PSoC4/LCD_Char.c **** *  LCD_Char_initVar - global variable.
 132:Generated_Source\PSoC4/LCD_Char.c **** *
 133:Generated_Source\PSoC4/LCD_Char.c **** * Reentrant:
 134:Generated_Source\PSoC4/LCD_Char.c **** *  No.
 135:Generated_Source\PSoC4/LCD_Char.c **** *
 136:Generated_Source\PSoC4/LCD_Char.c **** *******************************************************************************/
 137:Generated_Source\PSoC4/LCD_Char.c **** void LCD_Char_Start(void) 
 138:Generated_Source\PSoC4/LCD_Char.c **** {
 139:Generated_Source\PSoC4/LCD_Char.c ****     /* If not initialized, perform initialization */
 140:Generated_Source\PSoC4/LCD_Char.c ****     if(LCD_Char_initVar == 0u)
 141:Generated_Source\PSoC4/LCD_Char.c ****     {
 142:Generated_Source\PSoC4/LCD_Char.c ****         LCD_Char_Init();
 143:Generated_Source\PSoC4/LCD_Char.c ****         LCD_Char_initVar = 1u;
 144:Generated_Source\PSoC4/LCD_Char.c ****     }
 145:Generated_Source\PSoC4/LCD_Char.c **** 
ARM GAS  C:\Users\Zeynep\AppData\Local\Temp\ccgIGPOV.s 			page 4


 146:Generated_Source\PSoC4/LCD_Char.c ****     /* Turn on the LCD */
 147:Generated_Source\PSoC4/LCD_Char.c ****     LCD_Char_Enable();
 148:Generated_Source\PSoC4/LCD_Char.c **** }
 149:Generated_Source\PSoC4/LCD_Char.c **** 
 150:Generated_Source\PSoC4/LCD_Char.c **** 
 151:Generated_Source\PSoC4/LCD_Char.c **** /*******************************************************************************
 152:Generated_Source\PSoC4/LCD_Char.c **** * Function Name: LCD_Char_Stop
 153:Generated_Source\PSoC4/LCD_Char.c **** ********************************************************************************
 154:Generated_Source\PSoC4/LCD_Char.c **** *
 155:Generated_Source\PSoC4/LCD_Char.c **** * Summary:
 156:Generated_Source\PSoC4/LCD_Char.c **** *  Turns off the display of the LCD screen.
 157:Generated_Source\PSoC4/LCD_Char.c **** *
 158:Generated_Source\PSoC4/LCD_Char.c **** * Parameters:
 159:Generated_Source\PSoC4/LCD_Char.c **** *  None.
 160:Generated_Source\PSoC4/LCD_Char.c **** *
 161:Generated_Source\PSoC4/LCD_Char.c **** * Return:
 162:Generated_Source\PSoC4/LCD_Char.c **** *  None.
 163:Generated_Source\PSoC4/LCD_Char.c **** *
 164:Generated_Source\PSoC4/LCD_Char.c **** * Reentrant:
 165:Generated_Source\PSoC4/LCD_Char.c **** *  No.
 166:Generated_Source\PSoC4/LCD_Char.c **** *
 167:Generated_Source\PSoC4/LCD_Char.c **** *******************************************************************************/
 168:Generated_Source\PSoC4/LCD_Char.c **** void LCD_Char_Stop(void) 
 169:Generated_Source\PSoC4/LCD_Char.c **** {
 170:Generated_Source\PSoC4/LCD_Char.c ****     /* Calls LCD Off Macro */
 171:Generated_Source\PSoC4/LCD_Char.c ****     LCD_Char_DisplayOff();
 172:Generated_Source\PSoC4/LCD_Char.c ****     LCD_Char_enableState = 0u;
 173:Generated_Source\PSoC4/LCD_Char.c **** }
 174:Generated_Source\PSoC4/LCD_Char.c **** 
 175:Generated_Source\PSoC4/LCD_Char.c **** 
 176:Generated_Source\PSoC4/LCD_Char.c **** /*******************************************************************************
 177:Generated_Source\PSoC4/LCD_Char.c **** *  Function Name: LCD_Char_Position
 178:Generated_Source\PSoC4/LCD_Char.c **** ********************************************************************************
 179:Generated_Source\PSoC4/LCD_Char.c **** *
 180:Generated_Source\PSoC4/LCD_Char.c **** * Summary:
 181:Generated_Source\PSoC4/LCD_Char.c **** *  Moves the active cursor location to a point specified by the input arguments
 182:Generated_Source\PSoC4/LCD_Char.c **** *
 183:Generated_Source\PSoC4/LCD_Char.c **** * Parameters:
 184:Generated_Source\PSoC4/LCD_Char.c **** *  row:    Specific row of LCD module to be written
 185:Generated_Source\PSoC4/LCD_Char.c **** *  column: Column of LCD module to be written
 186:Generated_Source\PSoC4/LCD_Char.c **** *
 187:Generated_Source\PSoC4/LCD_Char.c **** * Return:
 188:Generated_Source\PSoC4/LCD_Char.c **** *  None.
 189:Generated_Source\PSoC4/LCD_Char.c **** *
 190:Generated_Source\PSoC4/LCD_Char.c **** * Note:
 191:Generated_Source\PSoC4/LCD_Char.c **** *  This only applies for LCD displays that use the 2X40 address mode.
 192:Generated_Source\PSoC4/LCD_Char.c **** *  In this case Row 2 starts with a 0x28 offset from Row 1.
 193:Generated_Source\PSoC4/LCD_Char.c **** *  When there are more than 2 rows, each row must be fewer than 20 characters.
 194:Generated_Source\PSoC4/LCD_Char.c **** *
 195:Generated_Source\PSoC4/LCD_Char.c **** *******************************************************************************/
 196:Generated_Source\PSoC4/LCD_Char.c **** void LCD_Char_Position(uint8 row, uint8 column) 
 197:Generated_Source\PSoC4/LCD_Char.c **** {
 198:Generated_Source\PSoC4/LCD_Char.c ****     switch (row)
 199:Generated_Source\PSoC4/LCD_Char.c ****     {
 200:Generated_Source\PSoC4/LCD_Char.c ****         case (uint8)0:
 201:Generated_Source\PSoC4/LCD_Char.c ****             LCD_Char_WriteControl(LCD_Char_ROW_0_START + column);
 202:Generated_Source\PSoC4/LCD_Char.c ****             break;
ARM GAS  C:\Users\Zeynep\AppData\Local\Temp\ccgIGPOV.s 			page 5


 203:Generated_Source\PSoC4/LCD_Char.c ****         case (uint8) 1:
 204:Generated_Source\PSoC4/LCD_Char.c ****             LCD_Char_WriteControl(LCD_Char_ROW_1_START + column);
 205:Generated_Source\PSoC4/LCD_Char.c ****             break;
 206:Generated_Source\PSoC4/LCD_Char.c ****         case (uint8) 2:
 207:Generated_Source\PSoC4/LCD_Char.c ****             LCD_Char_WriteControl(LCD_Char_ROW_2_START + column);
 208:Generated_Source\PSoC4/LCD_Char.c ****             break;
 209:Generated_Source\PSoC4/LCD_Char.c ****         case (uint8) 3:
 210:Generated_Source\PSoC4/LCD_Char.c ****             LCD_Char_WriteControl(LCD_Char_ROW_3_START + column);
 211:Generated_Source\PSoC4/LCD_Char.c ****             break;
 212:Generated_Source\PSoC4/LCD_Char.c ****         default:
 213:Generated_Source\PSoC4/LCD_Char.c ****             /* if default case is hit, invalid row argument was passed.*/
 214:Generated_Source\PSoC4/LCD_Char.c ****             break;
 215:Generated_Source\PSoC4/LCD_Char.c ****     }
 216:Generated_Source\PSoC4/LCD_Char.c **** }
 217:Generated_Source\PSoC4/LCD_Char.c **** 
 218:Generated_Source\PSoC4/LCD_Char.c **** 
 219:Generated_Source\PSoC4/LCD_Char.c **** /*******************************************************************************
 220:Generated_Source\PSoC4/LCD_Char.c **** * Function Name: LCD_Char_PrintString
 221:Generated_Source\PSoC4/LCD_Char.c **** ********************************************************************************
 222:Generated_Source\PSoC4/LCD_Char.c **** *
 223:Generated_Source\PSoC4/LCD_Char.c **** * Summary:
 224:Generated_Source\PSoC4/LCD_Char.c **** *  Writes a zero terminated string to the LCD.
 225:Generated_Source\PSoC4/LCD_Char.c **** *
 226:Generated_Source\PSoC4/LCD_Char.c **** * Parameters:
 227:Generated_Source\PSoC4/LCD_Char.c **** *  string: Pointer to head of char8 array to be written to the LCD module
 228:Generated_Source\PSoC4/LCD_Char.c **** *
 229:Generated_Source\PSoC4/LCD_Char.c **** * Return:
 230:Generated_Source\PSoC4/LCD_Char.c **** *  None.
 231:Generated_Source\PSoC4/LCD_Char.c **** *
 232:Generated_Source\PSoC4/LCD_Char.c **** *******************************************************************************/
 233:Generated_Source\PSoC4/LCD_Char.c **** void LCD_Char_PrintString(char8 const string[]) 
 234:Generated_Source\PSoC4/LCD_Char.c **** {
 235:Generated_Source\PSoC4/LCD_Char.c ****     uint8 indexU8 = 1u;
 236:Generated_Source\PSoC4/LCD_Char.c ****     char8 current = *string;
 237:Generated_Source\PSoC4/LCD_Char.c **** 
 238:Generated_Source\PSoC4/LCD_Char.c ****     /* Until null is reached, print next character */
 239:Generated_Source\PSoC4/LCD_Char.c ****     while((char8) '\0' != current)
 240:Generated_Source\PSoC4/LCD_Char.c ****     {
 241:Generated_Source\PSoC4/LCD_Char.c ****         LCD_Char_WriteData((uint8)current);
 242:Generated_Source\PSoC4/LCD_Char.c ****         current = string[indexU8];
 243:Generated_Source\PSoC4/LCD_Char.c ****         indexU8++;
 244:Generated_Source\PSoC4/LCD_Char.c ****     }
 245:Generated_Source\PSoC4/LCD_Char.c **** }
 246:Generated_Source\PSoC4/LCD_Char.c **** 
 247:Generated_Source\PSoC4/LCD_Char.c **** 
 248:Generated_Source\PSoC4/LCD_Char.c **** /*******************************************************************************
 249:Generated_Source\PSoC4/LCD_Char.c **** *  Function Name: LCD_Char_PutChar
 250:Generated_Source\PSoC4/LCD_Char.c **** ********************************************************************************
 251:Generated_Source\PSoC4/LCD_Char.c **** *
 252:Generated_Source\PSoC4/LCD_Char.c **** * Summary:
 253:Generated_Source\PSoC4/LCD_Char.c **** *  Writes a single character to the current cursor position of the LCD module.
 254:Generated_Source\PSoC4/LCD_Char.c **** *  Custom character names (_CUSTOM_0 through
 255:Generated_Source\PSoC4/LCD_Char.c **** *  _CUSTOM_7) are acceptable as inputs.
 256:Generated_Source\PSoC4/LCD_Char.c **** *
 257:Generated_Source\PSoC4/LCD_Char.c **** * Parameters:
 258:Generated_Source\PSoC4/LCD_Char.c **** *  character: Character to be written to LCD
 259:Generated_Source\PSoC4/LCD_Char.c **** *
ARM GAS  C:\Users\Zeynep\AppData\Local\Temp\ccgIGPOV.s 			page 6


 260:Generated_Source\PSoC4/LCD_Char.c **** * Return:
 261:Generated_Source\PSoC4/LCD_Char.c **** *  None.
 262:Generated_Source\PSoC4/LCD_Char.c **** *
 263:Generated_Source\PSoC4/LCD_Char.c **** *******************************************************************************/
 264:Generated_Source\PSoC4/LCD_Char.c **** void LCD_Char_PutChar(char8 character) 
 265:Generated_Source\PSoC4/LCD_Char.c **** {
 266:Generated_Source\PSoC4/LCD_Char.c ****     LCD_Char_WriteData((uint8)character);
 267:Generated_Source\PSoC4/LCD_Char.c **** }
 268:Generated_Source\PSoC4/LCD_Char.c **** 
 269:Generated_Source\PSoC4/LCD_Char.c **** 
 270:Generated_Source\PSoC4/LCD_Char.c **** /*******************************************************************************
 271:Generated_Source\PSoC4/LCD_Char.c **** *  Function Name: LCD_Char_WriteData
 272:Generated_Source\PSoC4/LCD_Char.c **** ********************************************************************************
 273:Generated_Source\PSoC4/LCD_Char.c **** *
 274:Generated_Source\PSoC4/LCD_Char.c **** * Summary:
 275:Generated_Source\PSoC4/LCD_Char.c **** *  Writes a data byte to the LCD module's Data Display RAM.
 276:Generated_Source\PSoC4/LCD_Char.c **** *
 277:Generated_Source\PSoC4/LCD_Char.c **** * Parameters:
 278:Generated_Source\PSoC4/LCD_Char.c **** *  dByte: Byte to be written to the LCD module
 279:Generated_Source\PSoC4/LCD_Char.c **** *
 280:Generated_Source\PSoC4/LCD_Char.c **** * Return:
 281:Generated_Source\PSoC4/LCD_Char.c **** *  None.
 282:Generated_Source\PSoC4/LCD_Char.c **** *
 283:Generated_Source\PSoC4/LCD_Char.c **** *******************************************************************************/
 284:Generated_Source\PSoC4/LCD_Char.c **** void LCD_Char_WriteData(uint8 dByte) 
 285:Generated_Source\PSoC4/LCD_Char.c **** {
 286:Generated_Source\PSoC4/LCD_Char.c ****     uint8 nibble;
 287:Generated_Source\PSoC4/LCD_Char.c **** 
 288:Generated_Source\PSoC4/LCD_Char.c ****     LCD_Char_IsReady();
 289:Generated_Source\PSoC4/LCD_Char.c ****     nibble = dByte >> LCD_Char_NIBBLE_SHIFT;
 290:Generated_Source\PSoC4/LCD_Char.c **** 
 291:Generated_Source\PSoC4/LCD_Char.c ****     /* Write high nibble */
 292:Generated_Source\PSoC4/LCD_Char.c ****     LCD_Char_WrDatNib(nibble);
 293:Generated_Source\PSoC4/LCD_Char.c **** 
 294:Generated_Source\PSoC4/LCD_Char.c ****     nibble = dByte & LCD_Char_NIBBLE_MASK;
 295:Generated_Source\PSoC4/LCD_Char.c ****     /* Write low nibble */
 296:Generated_Source\PSoC4/LCD_Char.c ****     LCD_Char_WrDatNib(nibble);
 297:Generated_Source\PSoC4/LCD_Char.c **** }
 298:Generated_Source\PSoC4/LCD_Char.c **** 
 299:Generated_Source\PSoC4/LCD_Char.c **** 
 300:Generated_Source\PSoC4/LCD_Char.c **** /*******************************************************************************
 301:Generated_Source\PSoC4/LCD_Char.c **** *  Function Name: LCD_Char_WriteControl
 302:Generated_Source\PSoC4/LCD_Char.c **** ********************************************************************************
 303:Generated_Source\PSoC4/LCD_Char.c **** *
 304:Generated_Source\PSoC4/LCD_Char.c **** * Summary:
 305:Generated_Source\PSoC4/LCD_Char.c **** *  Writes a command byte to the LCD module.
 306:Generated_Source\PSoC4/LCD_Char.c **** *
 307:Generated_Source\PSoC4/LCD_Char.c **** * Parameters:
 308:Generated_Source\PSoC4/LCD_Char.c **** *  cByte:  The byte to be written to theLCD module
 309:Generated_Source\PSoC4/LCD_Char.c **** * 
 310:Generated_Source\PSoC4/LCD_Char.c **** * Return:
 311:Generated_Source\PSoC4/LCD_Char.c **** *  None.
 312:Generated_Source\PSoC4/LCD_Char.c **** *
 313:Generated_Source\PSoC4/LCD_Char.c **** *******************************************************************************/
 314:Generated_Source\PSoC4/LCD_Char.c **** void LCD_Char_WriteControl(uint8 cByte) 
 315:Generated_Source\PSoC4/LCD_Char.c **** {
 316:Generated_Source\PSoC4/LCD_Char.c ****     uint8 nibble;
ARM GAS  C:\Users\Zeynep\AppData\Local\Temp\ccgIGPOV.s 			page 7


 317:Generated_Source\PSoC4/LCD_Char.c **** 
 318:Generated_Source\PSoC4/LCD_Char.c ****     LCD_Char_IsReady();
 319:Generated_Source\PSoC4/LCD_Char.c **** 
 320:Generated_Source\PSoC4/LCD_Char.c ****     nibble = cByte >> LCD_Char_NIBBLE_SHIFT;
 321:Generated_Source\PSoC4/LCD_Char.c ****     
 322:Generated_Source\PSoC4/LCD_Char.c ****     /* WrCntrlNib(High Nibble) */
 323:Generated_Source\PSoC4/LCD_Char.c ****     LCD_Char_WrCntrlNib(nibble);
 324:Generated_Source\PSoC4/LCD_Char.c ****     nibble = cByte & LCD_Char_NIBBLE_MASK;
 325:Generated_Source\PSoC4/LCD_Char.c **** 
 326:Generated_Source\PSoC4/LCD_Char.c ****     /* WrCntrlNib(Low Nibble) */
 327:Generated_Source\PSoC4/LCD_Char.c ****     LCD_Char_WrCntrlNib(nibble);
 328:Generated_Source\PSoC4/LCD_Char.c **** }
 329:Generated_Source\PSoC4/LCD_Char.c **** 
 330:Generated_Source\PSoC4/LCD_Char.c **** 
 331:Generated_Source\PSoC4/LCD_Char.c **** /*******************************************************************************
 332:Generated_Source\PSoC4/LCD_Char.c **** * Function Name: LCD_Char_IsReady
 333:Generated_Source\PSoC4/LCD_Char.c **** ********************************************************************************
 334:Generated_Source\PSoC4/LCD_Char.c **** *
 335:Generated_Source\PSoC4/LCD_Char.c **** * Summary:
 336:Generated_Source\PSoC4/LCD_Char.c **** *  Polls the LCD until the ready bit is set or a timeout occurs.
 337:Generated_Source\PSoC4/LCD_Char.c **** *
 338:Generated_Source\PSoC4/LCD_Char.c **** * Parameters:
 339:Generated_Source\PSoC4/LCD_Char.c **** *  None.
 340:Generated_Source\PSoC4/LCD_Char.c **** *
 341:Generated_Source\PSoC4/LCD_Char.c **** * Return:
 342:Generated_Source\PSoC4/LCD_Char.c **** *  None.
 343:Generated_Source\PSoC4/LCD_Char.c **** *
 344:Generated_Source\PSoC4/LCD_Char.c **** * Note:
 345:Generated_Source\PSoC4/LCD_Char.c **** *  Changes the pins to High-Z.
 346:Generated_Source\PSoC4/LCD_Char.c **** *
 347:Generated_Source\PSoC4/LCD_Char.c **** *******************************************************************************/
 348:Generated_Source\PSoC4/LCD_Char.c **** void LCD_Char_IsReady(void) 
 349:Generated_Source\PSoC4/LCD_Char.c **** {
 350:Generated_Source\PSoC4/LCD_Char.c ****     uint32 value;
 351:Generated_Source\PSoC4/LCD_Char.c ****     uint32 timeout;
 352:Generated_Source\PSoC4/LCD_Char.c ****     timeout = LCD_Char_READY_DELAY;
 353:Generated_Source\PSoC4/LCD_Char.c **** 
 354:Generated_Source\PSoC4/LCD_Char.c ****     /* Clear LCD port*/
 355:Generated_Source\PSoC4/LCD_Char.c ****     LCD_Char_PORT_DR_REG &= ((uint32)(~LCD_Char_PORT_MASK));
 356:Generated_Source\PSoC4/LCD_Char.c **** 
 357:Generated_Source\PSoC4/LCD_Char.c ****     /* PSoC4 has a little different from PSoC3/5 port/pin organization for setting Drive Modes.
 358:Generated_Source\PSoC4/LCD_Char.c ****   
 359:Generated_Source\PSoC4/LCD_Char.c ****     */
 360:Generated_Source\PSoC4/LCD_Char.c ****     #if (CY_PSOC4)
 361:Generated_Source\PSoC4/LCD_Char.c ****         
 362:Generated_Source\PSoC4/LCD_Char.c ****         /* Mask off data pins to clear old values out */
 363:Generated_Source\PSoC4/LCD_Char.c ****         value = LCD_Char_PORT_PC_REG & ((uint32) (~ LCD_Char_DM_DATA_MASK));
 364:Generated_Source\PSoC4/LCD_Char.c ****         /* Load in high Z values for data pins, others unchanged */
 365:Generated_Source\PSoC4/LCD_Char.c ****         LCD_Char_PORT_PC_REG = value | LCD_Char_HIGH_Z_DATA_DM;
 366:Generated_Source\PSoC4/LCD_Char.c **** 
 367:Generated_Source\PSoC4/LCD_Char.c ****     #else
 368:Generated_Source\PSoC4/LCD_Char.c ****     
 369:Generated_Source\PSoC4/LCD_Char.c ****         /* Change Port to High-Z Status on data pins */
 370:Generated_Source\PSoC4/LCD_Char.c **** 
 371:Generated_Source\PSoC4/LCD_Char.c ****         /* Mask off data pins to clear old values out */
 372:Generated_Source\PSoC4/LCD_Char.c ****         value = LCD_Char_PORT_DM0_REG & ((uint8)(~LCD_Char_DATA_MASK));
 373:Generated_Source\PSoC4/LCD_Char.c ****         /* Load in high Z values for data pins, others unchanged */
ARM GAS  C:\Users\Zeynep\AppData\Local\Temp\ccgIGPOV.s 			page 8


 374:Generated_Source\PSoC4/LCD_Char.c ****         LCD_Char_PORT_DM0_REG = value | (LCD_Char_HIGH_Z_DM0 & LCD_Char_DATA_MASK);
 375:Generated_Source\PSoC4/LCD_Char.c **** 
 376:Generated_Source\PSoC4/LCD_Char.c ****         /* Mask off data pins to clear old values out */
 377:Generated_Source\PSoC4/LCD_Char.c ****         value = LCD_Char_PORT_DM1_REG & ((uint8)(~LCD_Char_DATA_MASK));
 378:Generated_Source\PSoC4/LCD_Char.c ****         /* Load in high Z values for data pins, others unchanged */
 379:Generated_Source\PSoC4/LCD_Char.c ****         LCD_Char_PORT_DM1_REG = value;
 380:Generated_Source\PSoC4/LCD_Char.c **** 
 381:Generated_Source\PSoC4/LCD_Char.c ****         /* Mask off data pins to clear old values out */
 382:Generated_Source\PSoC4/LCD_Char.c ****         value = LCD_Char_PORT_DM2_REG & ((uint8)(~LCD_Char_DATA_MASK));
 383:Generated_Source\PSoC4/LCD_Char.c ****         /* Load in high Z values for data pins, others unchanged */
 384:Generated_Source\PSoC4/LCD_Char.c ****         LCD_Char_PORT_DM2_REG = value;
 385:Generated_Source\PSoC4/LCD_Char.c ****     
 386:Generated_Source\PSoC4/LCD_Char.c ****     #endif /* CY_PSOC4 */
 387:Generated_Source\PSoC4/LCD_Char.c ****     
 388:Generated_Source\PSoC4/LCD_Char.c ****     /* Make sure RS is low */
 389:Generated_Source\PSoC4/LCD_Char.c ****     LCD_Char_PORT_DR_REG &= ((uint32)(~LCD_Char_RS));
 390:Generated_Source\PSoC4/LCD_Char.c **** 
 391:Generated_Source\PSoC4/LCD_Char.c ****     /* Set R/W high to read */
 392:Generated_Source\PSoC4/LCD_Char.c ****     LCD_Char_PORT_DR_REG |= LCD_Char_RW;
 393:Generated_Source\PSoC4/LCD_Char.c **** 
 394:Generated_Source\PSoC4/LCD_Char.c ****     do
 395:Generated_Source\PSoC4/LCD_Char.c ****     {
 396:Generated_Source\PSoC4/LCD_Char.c ****         /* 40 ns delay required before rising Enable and 500ns between neighbour Enables */
 397:Generated_Source\PSoC4/LCD_Char.c ****         CyDelayUs(0u);
 398:Generated_Source\PSoC4/LCD_Char.c **** 
 399:Generated_Source\PSoC4/LCD_Char.c ****         /* Set E high */
 400:Generated_Source\PSoC4/LCD_Char.c ****         LCD_Char_PORT_DR_REG |= LCD_Char_E;
 401:Generated_Source\PSoC4/LCD_Char.c **** 
 402:Generated_Source\PSoC4/LCD_Char.c ****         /* 360 ns delay setup time for data pins */
 403:Generated_Source\PSoC4/LCD_Char.c ****         CyDelayUs(1u);
 404:Generated_Source\PSoC4/LCD_Char.c **** 
 405:Generated_Source\PSoC4/LCD_Char.c ****         /* Get port state */
 406:Generated_Source\PSoC4/LCD_Char.c ****         value = LCD_Char_PORT_PS_REG;
 407:Generated_Source\PSoC4/LCD_Char.c **** 
 408:Generated_Source\PSoC4/LCD_Char.c ****         /* Set enable low */
 409:Generated_Source\PSoC4/LCD_Char.c ****         LCD_Char_PORT_DR_REG &= ((uint32)(~LCD_Char_E));
 410:Generated_Source\PSoC4/LCD_Char.c **** 
 411:Generated_Source\PSoC4/LCD_Char.c ****         /* This gives true delay between disabling Enable bit and polling Ready bit */
 412:Generated_Source\PSoC4/LCD_Char.c ****         CyDelayUs(0u);
 413:Generated_Source\PSoC4/LCD_Char.c **** 
 414:Generated_Source\PSoC4/LCD_Char.c ****         /* Extract ready bit */
 415:Generated_Source\PSoC4/LCD_Char.c ****         value &= LCD_Char_READY_BIT;
 416:Generated_Source\PSoC4/LCD_Char.c **** 
 417:Generated_Source\PSoC4/LCD_Char.c ****         /* Set E high as we in 4-bit interface we need extra operation */
 418:Generated_Source\PSoC4/LCD_Char.c ****         LCD_Char_PORT_DR_REG |= LCD_Char_E;
 419:Generated_Source\PSoC4/LCD_Char.c **** 
 420:Generated_Source\PSoC4/LCD_Char.c ****         /* 360 ns delay setup time for data pins */
 421:Generated_Source\PSoC4/LCD_Char.c ****         CyDelayUs(1u);
 422:Generated_Source\PSoC4/LCD_Char.c **** 
 423:Generated_Source\PSoC4/LCD_Char.c ****         /* Set enable low */
 424:Generated_Source\PSoC4/LCD_Char.c ****         LCD_Char_PORT_DR_REG &= ((uint32)(~LCD_Char_E));
 425:Generated_Source\PSoC4/LCD_Char.c **** 
 426:Generated_Source\PSoC4/LCD_Char.c ****         /* If LCD is not ready make a delay */
 427:Generated_Source\PSoC4/LCD_Char.c ****         if (value == 0u)
 428:Generated_Source\PSoC4/LCD_Char.c ****         {
 429:Generated_Source\PSoC4/LCD_Char.c ****             CyDelayUs(10u);
 430:Generated_Source\PSoC4/LCD_Char.c ****         }
ARM GAS  C:\Users\Zeynep\AppData\Local\Temp\ccgIGPOV.s 			page 9


 431:Generated_Source\PSoC4/LCD_Char.c **** 
 432:Generated_Source\PSoC4/LCD_Char.c ****         /* Repeat until bit 4 is not zero or until timeout. */
 433:Generated_Source\PSoC4/LCD_Char.c ****         timeout--;
 434:Generated_Source\PSoC4/LCD_Char.c **** 
 435:Generated_Source\PSoC4/LCD_Char.c ****     } while ((value != 0u) && (timeout > 0u));
 436:Generated_Source\PSoC4/LCD_Char.c **** 
 437:Generated_Source\PSoC4/LCD_Char.c ****     /* Set R/W low to write */
 438:Generated_Source\PSoC4/LCD_Char.c ****     LCD_Char_PORT_DR_REG &= ((uint32)(~LCD_Char_RW));
 439:Generated_Source\PSoC4/LCD_Char.c **** 
 440:Generated_Source\PSoC4/LCD_Char.c ****     /* Clear LCD port*/
 441:Generated_Source\PSoC4/LCD_Char.c ****     LCD_Char_PORT_DR_REG &= ((uint32)(~LCD_Char_PORT_MASK));
 442:Generated_Source\PSoC4/LCD_Char.c **** 
 443:Generated_Source\PSoC4/LCD_Char.c ****     #if (CY_PSOC4)
 444:Generated_Source\PSoC4/LCD_Char.c ****         
 445:Generated_Source\PSoC4/LCD_Char.c ****         /* Mask off data pins to clear old values out */
 446:Generated_Source\PSoC4/LCD_Char.c ****         value = LCD_Char_PORT_PC_REG & ((uint32)(~ LCD_Char_DM_DATA_MASK));
 447:Generated_Source\PSoC4/LCD_Char.c ****         /* Load in high Z values for data pins, others unchanged */
 448:Generated_Source\PSoC4/LCD_Char.c ****         LCD_Char_PORT_PC_REG = value | LCD_Char_STRONG_DATA_DM;
 449:Generated_Source\PSoC4/LCD_Char.c **** 
 450:Generated_Source\PSoC4/LCD_Char.c ****     #else
 451:Generated_Source\PSoC4/LCD_Char.c **** 
 452:Generated_Source\PSoC4/LCD_Char.c ****         /* Change Port to Output (Strong) on data pins */
 453:Generated_Source\PSoC4/LCD_Char.c ****         /* Mask off data pins to clear high z values out. Configure data pins 
 454:Generated_Source\PSoC4/LCD_Char.c ****         * to Strong Drive, others unchanged.
 455:Generated_Source\PSoC4/LCD_Char.c ****         */
 456:Generated_Source\PSoC4/LCD_Char.c ****         LCD_Char_PORT_DM0_REG &= ((uint8)(~LCD_Char_DATA_MASK));
 457:Generated_Source\PSoC4/LCD_Char.c ****         /* Mask off data pins to clear high z values out */
 458:Generated_Source\PSoC4/LCD_Char.c ****         value = LCD_Char_PORT_DM1_REG & ((uint8)(~LCD_Char_DATA_MASK));
 459:Generated_Source\PSoC4/LCD_Char.c ****         /* Configure data pins to Strong Drive, others unchanged */
 460:Generated_Source\PSoC4/LCD_Char.c ****         LCD_Char_PORT_DM1_REG = value | (LCD_Char_STRONG_DM1 & LCD_Char_DATA_MASK);
 461:Generated_Source\PSoC4/LCD_Char.c **** 
 462:Generated_Source\PSoC4/LCD_Char.c ****         /* Mask off data pins to clear high z values out */
 463:Generated_Source\PSoC4/LCD_Char.c ****         value = LCD_Char_PORT_DM2_REG & ((uint8)(~LCD_Char_DATA_MASK));
 464:Generated_Source\PSoC4/LCD_Char.c ****         /* Configure data pins to Strong Drive, others unchanged */
 465:Generated_Source\PSoC4/LCD_Char.c ****         LCD_Char_PORT_DM2_REG = value | (LCD_Char_STRONG_DM2 & LCD_Char_DATA_MASK);
 466:Generated_Source\PSoC4/LCD_Char.c ****     
 467:Generated_Source\PSoC4/LCD_Char.c ****     #endif /* CY_PSOC4 */
 468:Generated_Source\PSoC4/LCD_Char.c **** }
 469:Generated_Source\PSoC4/LCD_Char.c **** 
 470:Generated_Source\PSoC4/LCD_Char.c **** 
 471:Generated_Source\PSoC4/LCD_Char.c **** /*******************************************************************************
 472:Generated_Source\PSoC4/LCD_Char.c **** *  Function Name: LCD_Char_WrDatNib
 473:Generated_Source\PSoC4/LCD_Char.c **** ********************************************************************************
 474:Generated_Source\PSoC4/LCD_Char.c **** *
 475:Generated_Source\PSoC4/LCD_Char.c **** * Summary:
 476:Generated_Source\PSoC4/LCD_Char.c **** *  Writes a data nibble to the LCD module.
 477:Generated_Source\PSoC4/LCD_Char.c **** *
 478:Generated_Source\PSoC4/LCD_Char.c **** * Parameters:
 479:Generated_Source\PSoC4/LCD_Char.c **** *  nibble:  Byte containing nibble in the least significant nibble to be
 480:Generated_Source\PSoC4/LCD_Char.c **** *           written to the LCD module.
 481:Generated_Source\PSoC4/LCD_Char.c **** *
 482:Generated_Source\PSoC4/LCD_Char.c **** * Return:
 483:Generated_Source\PSoC4/LCD_Char.c **** *  None.
 484:Generated_Source\PSoC4/LCD_Char.c **** *
 485:Generated_Source\PSoC4/LCD_Char.c **** *******************************************************************************/
 486:Generated_Source\PSoC4/LCD_Char.c **** static void LCD_Char_WrDatNib(uint8 nibble) 
 487:Generated_Source\PSoC4/LCD_Char.c **** {
ARM GAS  C:\Users\Zeynep\AppData\Local\Temp\ccgIGPOV.s 			page 10


 488:Generated_Source\PSoC4/LCD_Char.c ****     /* RS should be low to select data register */
 489:Generated_Source\PSoC4/LCD_Char.c ****     LCD_Char_PORT_DR_REG |= LCD_Char_RS;
 490:Generated_Source\PSoC4/LCD_Char.c ****     /* Reset RW for write operation */
 491:Generated_Source\PSoC4/LCD_Char.c ****     LCD_Char_PORT_DR_REG &= ((uint32)(~LCD_Char_RW));
 492:Generated_Source\PSoC4/LCD_Char.c **** 
 493:Generated_Source\PSoC4/LCD_Char.c ****     /* Guaranteed delay between Setting RS and RW and setting E bits */
 494:Generated_Source\PSoC4/LCD_Char.c ****     CyDelayUs(0u);
 495:Generated_Source\PSoC4/LCD_Char.c ****     
 496:Generated_Source\PSoC4/LCD_Char.c ****     /* Clear data pins */
 497:Generated_Source\PSoC4/LCD_Char.c ****     LCD_Char_PORT_DR_REG &= ((uint32)(~LCD_Char_DATA_MASK));
 498:Generated_Source\PSoC4/LCD_Char.c **** 
 499:Generated_Source\PSoC4/LCD_Char.c ****     /* Write data, bring E high */
 500:Generated_Source\PSoC4/LCD_Char.c ****     #if(0u != LCD_Char_PORT_SHIFT) /* MISRA forbids shift by 0 so need to handle that */
 501:Generated_Source\PSoC4/LCD_Char.c ****         LCD_Char_PORT_DR_REG |= 
 502:Generated_Source\PSoC4/LCD_Char.c ****             (LCD_Char_E | ((uint8)(((uint8) nibble) << LCD_Char_PORT_SHIFT)));
 503:Generated_Source\PSoC4/LCD_Char.c ****     #else
 504:Generated_Source\PSoC4/LCD_Char.c ****         LCD_Char_PORT_DR_REG |= (LCD_Char_E | nibble);
 505:Generated_Source\PSoC4/LCD_Char.c ****     #endif /* (0u != LCD_Char_PORT_SHIFT) */
 506:Generated_Source\PSoC4/LCD_Char.c **** 
 507:Generated_Source\PSoC4/LCD_Char.c ****     /* Minimum of 230 ns delay */
 508:Generated_Source\PSoC4/LCD_Char.c ****     CyDelayUs(1u);
 509:Generated_Source\PSoC4/LCD_Char.c **** 
 510:Generated_Source\PSoC4/LCD_Char.c ****     LCD_Char_PORT_DR_REG &= ((uint32)(~LCD_Char_E));
 511:Generated_Source\PSoC4/LCD_Char.c **** }
 512:Generated_Source\PSoC4/LCD_Char.c **** 
 513:Generated_Source\PSoC4/LCD_Char.c **** 
 514:Generated_Source\PSoC4/LCD_Char.c **** /*******************************************************************************
 515:Generated_Source\PSoC4/LCD_Char.c **** *  Function Name: LCD_Char_WrCntrlNib
 516:Generated_Source\PSoC4/LCD_Char.c **** ********************************************************************************
 517:Generated_Source\PSoC4/LCD_Char.c **** *
 518:Generated_Source\PSoC4/LCD_Char.c **** * Summary:
 519:Generated_Source\PSoC4/LCD_Char.c **** *  Writes a control nibble to the LCD module.
 520:Generated_Source\PSoC4/LCD_Char.c **** *
 521:Generated_Source\PSoC4/LCD_Char.c **** * Parameters:
 522:Generated_Source\PSoC4/LCD_Char.c **** *  nibble: The byte containing a nibble in the four least significant bits.????
 523:Generated_Source\PSoC4/LCD_Char.c **** *
 524:Generated_Source\PSoC4/LCD_Char.c **** * Return:
 525:Generated_Source\PSoC4/LCD_Char.c **** *  None.
 526:Generated_Source\PSoC4/LCD_Char.c **** *
 527:Generated_Source\PSoC4/LCD_Char.c **** *******************************************************************************/
 528:Generated_Source\PSoC4/LCD_Char.c **** static void LCD_Char_WrCntrlNib(uint8 nibble) 
 529:Generated_Source\PSoC4/LCD_Char.c **** {
  27              		.loc 1 529 0
  28              		.cfi_startproc
  29              		@ args = 0, pretend = 0, frame = 0
  30              		@ frame_needed = 0, uses_anonymous_args = 0
  31              	.LVL0:
  32 0000 10B5     		push	{r4, lr}
  33              		.cfi_def_cfa_offset 8
  34              		.cfi_offset 4, -8
  35              		.cfi_offset 14, -4
 530:Generated_Source\PSoC4/LCD_Char.c ****     /* RS and RW should be low to select instruction register and  write operation respectively */
 531:Generated_Source\PSoC4/LCD_Char.c ****     LCD_Char_PORT_DR_REG &= ((uint32)(~(LCD_Char_RS | LCD_Char_RW)));
  36              		.loc 1 531 0
  37 0002 0C4C     		ldr	r4, .L2
  38 0004 2268     		ldr	r2, [r4]
  39 0006 C021     		movs	r1, #192
ARM GAS  C:\Users\Zeynep\AppData\Local\Temp\ccgIGPOV.s 			page 11


  40 0008 8A43     		bics	r2, r1
  41 000a 2260     		str	r2, [r4]
 532:Generated_Source\PSoC4/LCD_Char.c **** 
 533:Generated_Source\PSoC4/LCD_Char.c ****     /* Two following lines of code will give 40ns delay */
 534:Generated_Source\PSoC4/LCD_Char.c ****     /* Clear data pins */
 535:Generated_Source\PSoC4/LCD_Char.c ****     LCD_Char_PORT_DR_REG &= ((uint32)(~LCD_Char_DATA_MASK));
  42              		.loc 1 535 0
  43 000c 2268     		ldr	r2, [r4]
  44 000e A239     		subs	r1, r1, #162
  45 0010 8A43     		bics	r2, r1
  46 0012 2260     		str	r2, [r4]
 536:Generated_Source\PSoC4/LCD_Char.c **** 
 537:Generated_Source\PSoC4/LCD_Char.c ****     /* Write control data and set enable signal */
 538:Generated_Source\PSoC4/LCD_Char.c ****     #if(0u != LCD_Char_PORT_SHIFT) /* MISRA forbids shift by 0 so need to handle that */
 539:Generated_Source\PSoC4/LCD_Char.c ****         LCD_Char_PORT_DR_REG |= 
  47              		.loc 1 539 0
  48 0014 2168     		ldr	r1, [r4]
 540:Generated_Source\PSoC4/LCD_Char.c ****             (LCD_Char_E | ((uint8)(((uint8) nibble) << LCD_Char_PORT_SHIFT)));
  49              		.loc 1 540 0
  50 0016 4300     		lsls	r3, r0, #1
  51 0018 DBB2     		uxtb	r3, r3
  52 001a 2022     		movs	r2, #32
  53 001c 1343     		orrs	r3, r2
  54 001e D8B2     		uxtb	r0, r3
  55              	.LVL1:
 539:Generated_Source\PSoC4/LCD_Char.c ****             (LCD_Char_E | ((uint8)(((uint8) nibble) << LCD_Char_PORT_SHIFT)));
  56              		.loc 1 539 0
  57 0020 0843     		orrs	r0, r1
  58 0022 2060     		str	r0, [r4]
 541:Generated_Source\PSoC4/LCD_Char.c ****     #else
 542:Generated_Source\PSoC4/LCD_Char.c ****         LCD_Char_PORT_DR_REG |= (LCD_Char_E | nibble);
 543:Generated_Source\PSoC4/LCD_Char.c ****     #endif /* (0u != LCD_Char_PORT_SHIFT) */
 544:Generated_Source\PSoC4/LCD_Char.c **** 
 545:Generated_Source\PSoC4/LCD_Char.c ****     /* Minimum of 230 ns delay */
 546:Generated_Source\PSoC4/LCD_Char.c ****     CyDelayUs(1u);
  59              		.loc 1 546 0
  60 0024 0120     		movs	r0, #1
  61 0026 FFF7FEFF 		bl	CyDelayUs
  62              	.LVL2:
 547:Generated_Source\PSoC4/LCD_Char.c **** 
 548:Generated_Source\PSoC4/LCD_Char.c ****     LCD_Char_PORT_DR_REG &= ((uint32)(~LCD_Char_E));
  63              		.loc 1 548 0
  64 002a 2368     		ldr	r3, [r4]
  65 002c 2022     		movs	r2, #32
  66 002e 9343     		bics	r3, r2
  67 0030 2360     		str	r3, [r4]
 549:Generated_Source\PSoC4/LCD_Char.c **** }
  68              		.loc 1 549 0
  69              		@ sp needed
  70 0032 10BD     		pop	{r4, pc}
  71              	.L3:
  72              		.align	2
  73              	.L2:
  74 0034 00020440 		.word	1074004480
  75              		.cfi_endproc
  76              	.LFE11:
  77              		.size	LCD_Char_WrCntrlNib, .-LCD_Char_WrCntrlNib
ARM GAS  C:\Users\Zeynep\AppData\Local\Temp\ccgIGPOV.s 			page 12


  78              		.section	.text.LCD_Char_WrDatNib,"ax",%progbits
  79              		.align	2
  80              		.code	16
  81              		.thumb_func
  82              		.type	LCD_Char_WrDatNib, %function
  83              	LCD_Char_WrDatNib:
  84              	.LFB10:
 487:Generated_Source\PSoC4/LCD_Char.c ****     /* RS should be low to select data register */
  85              		.loc 1 487 0
  86              		.cfi_startproc
  87              		@ args = 0, pretend = 0, frame = 0
  88              		@ frame_needed = 0, uses_anonymous_args = 0
  89              	.LVL3:
  90 0000 70B5     		push	{r4, r5, r6, lr}
  91              		.cfi_def_cfa_offset 16
  92              		.cfi_offset 4, -16
  93              		.cfi_offset 5, -12
  94              		.cfi_offset 6, -8
  95              		.cfi_offset 14, -4
  96 0002 0500     		movs	r5, r0
 489:Generated_Source\PSoC4/LCD_Char.c ****     /* Reset RW for write operation */
  97              		.loc 1 489 0
  98 0004 0F4C     		ldr	r4, .L5
  99 0006 2268     		ldr	r2, [r4]
 100 0008 4023     		movs	r3, #64
 101 000a 1343     		orrs	r3, r2
 102 000c 2360     		str	r3, [r4]
 491:Generated_Source\PSoC4/LCD_Char.c **** 
 103              		.loc 1 491 0
 104 000e 2368     		ldr	r3, [r4]
 105 0010 8022     		movs	r2, #128
 106 0012 9343     		bics	r3, r2
 107 0014 2360     		str	r3, [r4]
 494:Generated_Source\PSoC4/LCD_Char.c ****     
 108              		.loc 1 494 0
 109 0016 0020     		movs	r0, #0
 110              	.LVL4:
 111 0018 FFF7FEFF 		bl	CyDelayUs
 112              	.LVL5:
 497:Generated_Source\PSoC4/LCD_Char.c **** 
 113              		.loc 1 497 0
 114 001c 2368     		ldr	r3, [r4]
 115 001e 1E22     		movs	r2, #30
 116 0020 9343     		bics	r3, r2
 117 0022 2360     		str	r3, [r4]
 501:Generated_Source\PSoC4/LCD_Char.c ****             (LCD_Char_E | ((uint8)(((uint8) nibble) << LCD_Char_PORT_SHIFT)));
 118              		.loc 1 501 0
 119 0024 2168     		ldr	r1, [r4]
 502:Generated_Source\PSoC4/LCD_Char.c ****     #else
 120              		.loc 1 502 0
 121 0026 6D00     		lsls	r5, r5, #1
 122 0028 EBB2     		uxtb	r3, r5
 123 002a 2022     		movs	r2, #32
 124 002c 1343     		orrs	r3, r2
 125 002e D8B2     		uxtb	r0, r3
 501:Generated_Source\PSoC4/LCD_Char.c ****             (LCD_Char_E | ((uint8)(((uint8) nibble) << LCD_Char_PORT_SHIFT)));
 126              		.loc 1 501 0
ARM GAS  C:\Users\Zeynep\AppData\Local\Temp\ccgIGPOV.s 			page 13


 127 0030 0843     		orrs	r0, r1
 128 0032 2060     		str	r0, [r4]
 508:Generated_Source\PSoC4/LCD_Char.c **** 
 129              		.loc 1 508 0
 130 0034 0120     		movs	r0, #1
 131 0036 FFF7FEFF 		bl	CyDelayUs
 132              	.LVL6:
 510:Generated_Source\PSoC4/LCD_Char.c **** }
 133              		.loc 1 510 0
 134 003a 2368     		ldr	r3, [r4]
 135 003c 2022     		movs	r2, #32
 136 003e 9343     		bics	r3, r2
 137 0040 2360     		str	r3, [r4]
 511:Generated_Source\PSoC4/LCD_Char.c **** 
 138              		.loc 1 511 0
 139              		@ sp needed
 140 0042 70BD     		pop	{r4, r5, r6, pc}
 141              	.L6:
 142              		.align	2
 143              	.L5:
 144 0044 00020440 		.word	1074004480
 145              		.cfi_endproc
 146              	.LFE10:
 147              		.size	LCD_Char_WrDatNib, .-LCD_Char_WrDatNib
 148              		.section	.text.LCD_Char_IsReady,"ax",%progbits
 149              		.align	2
 150              		.global	LCD_Char_IsReady
 151              		.code	16
 152              		.thumb_func
 153              		.type	LCD_Char_IsReady, %function
 154              	LCD_Char_IsReady:
 155              	.LFB9:
 349:Generated_Source\PSoC4/LCD_Char.c ****     uint32 value;
 156              		.loc 1 349 0
 157              		.cfi_startproc
 158              		@ args = 0, pretend = 0, frame = 0
 159              		@ frame_needed = 0, uses_anonymous_args = 0
 160 0000 F8B5     		push	{r3, r4, r5, r6, r7, lr}
 161              		.cfi_def_cfa_offset 24
 162              		.cfi_offset 3, -24
 163              		.cfi_offset 4, -20
 164              		.cfi_offset 5, -16
 165              		.cfi_offset 6, -12
 166              		.cfi_offset 7, -8
 167              		.cfi_offset 14, -4
 168              	.LVL7:
 355:Generated_Source\PSoC4/LCD_Char.c **** 
 169              		.loc 1 355 0
 170 0002 274B     		ldr	r3, .L11
 171 0004 1A68     		ldr	r2, [r3]
 172 0006 FE21     		movs	r1, #254
 173 0008 8A43     		bics	r2, r1
 174 000a 1A60     		str	r2, [r3]
 363:Generated_Source\PSoC4/LCD_Char.c ****         /* Load in high Z values for data pins, others unchanged */
 175              		.loc 1 363 0
 176 000c 2549     		ldr	r1, .L11+4
 177 000e 0868     		ldr	r0, [r1]
ARM GAS  C:\Users\Zeynep\AppData\Local\Temp\ccgIGPOV.s 			page 14


 178 0010 254A     		ldr	r2, .L11+8
 179 0012 0240     		ands	r2, r0
 180              	.LVL8:
 365:Generated_Source\PSoC4/LCD_Char.c **** 
 181              		.loc 1 365 0
 182 0014 2548     		ldr	r0, .L11+12
 183 0016 0243     		orrs	r2, r0
 184              	.LVL9:
 185 0018 0A60     		str	r2, [r1]
 389:Generated_Source\PSoC4/LCD_Char.c **** 
 186              		.loc 1 389 0
 187 001a 1A68     		ldr	r2, [r3]
 188 001c 4021     		movs	r1, #64
 189 001e 8A43     		bics	r2, r1
 190 0020 1A60     		str	r2, [r3]
 392:Generated_Source\PSoC4/LCD_Char.c **** 
 191              		.loc 1 392 0
 192 0022 1968     		ldr	r1, [r3]
 193 0024 8022     		movs	r2, #128
 194 0026 0A43     		orrs	r2, r1
 195 0028 1A60     		str	r2, [r3]
 352:Generated_Source\PSoC4/LCD_Char.c **** 
 196              		.loc 1 352 0
 197 002a CA27     		movs	r7, #202
 198 002c 7F00     		lsls	r7, r7, #1
 199              	.LVL10:
 200              	.L10:
 397:Generated_Source\PSoC4/LCD_Char.c **** 
 201              		.loc 1 397 0
 202 002e 0020     		movs	r0, #0
 203 0030 FFF7FEFF 		bl	CyDelayUs
 204              	.LVL11:
 400:Generated_Source\PSoC4/LCD_Char.c **** 
 205              		.loc 1 400 0
 206 0034 1A4C     		ldr	r4, .L11
 207 0036 2368     		ldr	r3, [r4]
 208 0038 2026     		movs	r6, #32
 209 003a 3343     		orrs	r3, r6
 210 003c 2360     		str	r3, [r4]
 403:Generated_Source\PSoC4/LCD_Char.c **** 
 211              		.loc 1 403 0
 212 003e 0120     		movs	r0, #1
 213 0040 FFF7FEFF 		bl	CyDelayUs
 214              	.LVL12:
 406:Generated_Source\PSoC4/LCD_Char.c **** 
 215              		.loc 1 406 0
 216 0044 1A4B     		ldr	r3, .L11+16
 217 0046 1D68     		ldr	r5, [r3]
 218              	.LVL13:
 409:Generated_Source\PSoC4/LCD_Char.c **** 
 219              		.loc 1 409 0
 220 0048 2368     		ldr	r3, [r4]
 221 004a B343     		bics	r3, r6
 222 004c 2360     		str	r3, [r4]
 412:Generated_Source\PSoC4/LCD_Char.c **** 
 223              		.loc 1 412 0
 224 004e 0020     		movs	r0, #0
ARM GAS  C:\Users\Zeynep\AppData\Local\Temp\ccgIGPOV.s 			page 15


 225 0050 FFF7FEFF 		bl	CyDelayUs
 226              	.LVL14:
 415:Generated_Source\PSoC4/LCD_Char.c **** 
 227              		.loc 1 415 0
 228 0054 1023     		movs	r3, #16
 229 0056 1D40     		ands	r5, r3
 230              	.LVL15:
 418:Generated_Source\PSoC4/LCD_Char.c **** 
 231              		.loc 1 418 0
 232 0058 2368     		ldr	r3, [r4]
 233 005a 3343     		orrs	r3, r6
 234 005c 2360     		str	r3, [r4]
 421:Generated_Source\PSoC4/LCD_Char.c **** 
 235              		.loc 1 421 0
 236 005e 0120     		movs	r0, #1
 237 0060 FFF7FEFF 		bl	CyDelayUs
 238              	.LVL16:
 424:Generated_Source\PSoC4/LCD_Char.c **** 
 239              		.loc 1 424 0
 240 0064 2368     		ldr	r3, [r4]
 241 0066 B343     		bics	r3, r6
 242 0068 2360     		str	r3, [r4]
 427:Generated_Source\PSoC4/LCD_Char.c ****         {
 243              		.loc 1 427 0
 244 006a 002D     		cmp	r5, #0
 245 006c 02D1     		bne	.L8
 429:Generated_Source\PSoC4/LCD_Char.c ****         }
 246              		.loc 1 429 0
 247 006e 0A20     		movs	r0, #10
 248 0070 FFF7FEFF 		bl	CyDelayUs
 249              	.LVL17:
 250              	.L8:
 433:Generated_Source\PSoC4/LCD_Char.c **** 
 251              		.loc 1 433 0
 252 0074 013F     		subs	r7, r7, #1
 253              	.LVL18:
 435:Generated_Source\PSoC4/LCD_Char.c **** 
 254              		.loc 1 435 0
 255 0076 002D     		cmp	r5, #0
 256 0078 01D0     		beq	.L9
 435:Generated_Source\PSoC4/LCD_Char.c **** 
 257              		.loc 1 435 0 is_stmt 0 discriminator 1
 258 007a 002F     		cmp	r7, #0
 259 007c D7D1     		bne	.L10
 260              	.L9:
 438:Generated_Source\PSoC4/LCD_Char.c **** 
 261              		.loc 1 438 0 is_stmt 1
 262 007e 084B     		ldr	r3, .L11
 263 0080 1A68     		ldr	r2, [r3]
 264 0082 8021     		movs	r1, #128
 265 0084 8A43     		bics	r2, r1
 266 0086 1A60     		str	r2, [r3]
 441:Generated_Source\PSoC4/LCD_Char.c **** 
 267              		.loc 1 441 0
 268 0088 1A68     		ldr	r2, [r3]
 269 008a 7E31     		adds	r1, r1, #126
 270 008c 8A43     		bics	r2, r1
ARM GAS  C:\Users\Zeynep\AppData\Local\Temp\ccgIGPOV.s 			page 16


 271 008e 1A60     		str	r2, [r3]
 446:Generated_Source\PSoC4/LCD_Char.c ****         /* Load in high Z values for data pins, others unchanged */
 272              		.loc 1 446 0
 273 0090 044A     		ldr	r2, .L11+4
 274 0092 1168     		ldr	r1, [r2]
 275 0094 044B     		ldr	r3, .L11+8
 276 0096 0B40     		ands	r3, r1
 277              	.LVL19:
 448:Generated_Source\PSoC4/LCD_Char.c **** 
 278              		.loc 1 448 0
 279 0098 0649     		ldr	r1, .L11+20
 280 009a 0B43     		orrs	r3, r1
 281              	.LVL20:
 282 009c 1360     		str	r3, [r2]
 468:Generated_Source\PSoC4/LCD_Char.c **** 
 283              		.loc 1 468 0
 284              		@ sp needed
 285              	.LVL21:
 286 009e F8BD     		pop	{r3, r4, r5, r6, r7, pc}
 287              	.L12:
 288              		.align	2
 289              	.L11:
 290 00a0 00020440 		.word	1074004480
 291 00a4 08020440 		.word	1074004488
 292 00a8 0780FFFF 		.word	-32761
 293 00ac 48120000 		.word	4680
 294 00b0 04020440 		.word	1074004484
 295 00b4 B06D0000 		.word	28080
 296              		.cfi_endproc
 297              	.LFE9:
 298              		.size	LCD_Char_IsReady, .-LCD_Char_IsReady
 299              		.section	.text.LCD_Char_WriteData,"ax",%progbits
 300              		.align	2
 301              		.global	LCD_Char_WriteData
 302              		.code	16
 303              		.thumb_func
 304              		.type	LCD_Char_WriteData, %function
 305              	LCD_Char_WriteData:
 306              	.LFB7:
 285:Generated_Source\PSoC4/LCD_Char.c ****     uint8 nibble;
 307              		.loc 1 285 0
 308              		.cfi_startproc
 309              		@ args = 0, pretend = 0, frame = 0
 310              		@ frame_needed = 0, uses_anonymous_args = 0
 311              	.LVL22:
 312 0000 10B5     		push	{r4, lr}
 313              		.cfi_def_cfa_offset 8
 314              		.cfi_offset 4, -8
 315              		.cfi_offset 14, -4
 316 0002 0400     		movs	r4, r0
 288:Generated_Source\PSoC4/LCD_Char.c ****     nibble = dByte >> LCD_Char_NIBBLE_SHIFT;
 317              		.loc 1 288 0
 318 0004 FFF7FEFF 		bl	LCD_Char_IsReady
 319              	.LVL23:
 289:Generated_Source\PSoC4/LCD_Char.c **** 
 320              		.loc 1 289 0
 321 0008 2009     		lsrs	r0, r4, #4
ARM GAS  C:\Users\Zeynep\AppData\Local\Temp\ccgIGPOV.s 			page 17


 322              	.LVL24:
 292:Generated_Source\PSoC4/LCD_Char.c **** 
 323              		.loc 1 292 0
 324 000a FFF7FEFF 		bl	LCD_Char_WrDatNib
 325              	.LVL25:
 294:Generated_Source\PSoC4/LCD_Char.c ****     /* Write low nibble */
 326              		.loc 1 294 0
 327 000e 0F20     		movs	r0, #15
 328 0010 2040     		ands	r0, r4
 329              	.LVL26:
 296:Generated_Source\PSoC4/LCD_Char.c **** }
 330              		.loc 1 296 0
 331 0012 FFF7FEFF 		bl	LCD_Char_WrDatNib
 332              	.LVL27:
 297:Generated_Source\PSoC4/LCD_Char.c **** 
 333              		.loc 1 297 0
 334              		@ sp needed
 335              	.LVL28:
 336 0016 10BD     		pop	{r4, pc}
 337              		.cfi_endproc
 338              	.LFE7:
 339              		.size	LCD_Char_WriteData, .-LCD_Char_WriteData
 340              		.section	.text.LCD_Char_PrintString,"ax",%progbits
 341              		.align	2
 342              		.global	LCD_Char_PrintString
 343              		.code	16
 344              		.thumb_func
 345              		.type	LCD_Char_PrintString, %function
 346              	LCD_Char_PrintString:
 347              	.LFB5:
 234:Generated_Source\PSoC4/LCD_Char.c ****     uint8 indexU8 = 1u;
 348              		.loc 1 234 0
 349              		.cfi_startproc
 350              		@ args = 0, pretend = 0, frame = 0
 351              		@ frame_needed = 0, uses_anonymous_args = 0
 352              	.LVL29:
 353 0000 70B5     		push	{r4, r5, r6, lr}
 354              		.cfi_def_cfa_offset 16
 355              		.cfi_offset 4, -16
 356              		.cfi_offset 5, -12
 357              		.cfi_offset 6, -8
 358              		.cfi_offset 14, -4
 359 0002 0500     		movs	r5, r0
 360              	.LVL30:
 236:Generated_Source\PSoC4/LCD_Char.c **** 
 361              		.loc 1 236 0
 362 0004 0078     		ldrb	r0, [r0]
 363              	.LVL31:
 235:Generated_Source\PSoC4/LCD_Char.c ****     char8 current = *string;
 364              		.loc 1 235 0
 365 0006 0124     		movs	r4, #1
 239:Generated_Source\PSoC4/LCD_Char.c ****     {
 366              		.loc 1 239 0
 367 0008 04E0     		b	.L15
 368              	.LVL32:
 369              	.L16:
 241:Generated_Source\PSoC4/LCD_Char.c ****         current = string[indexU8];
ARM GAS  C:\Users\Zeynep\AppData\Local\Temp\ccgIGPOV.s 			page 18


 370              		.loc 1 241 0
 371 000a FFF7FEFF 		bl	LCD_Char_WriteData
 372              	.LVL33:
 242:Generated_Source\PSoC4/LCD_Char.c ****         indexU8++;
 373              		.loc 1 242 0
 374 000e 285D     		ldrb	r0, [r5, r4]
 375              	.LVL34:
 243:Generated_Source\PSoC4/LCD_Char.c ****     }
 376              		.loc 1 243 0
 377 0010 0134     		adds	r4, r4, #1
 378              	.LVL35:
 379 0012 E4B2     		uxtb	r4, r4
 380              	.LVL36:
 381              	.L15:
 239:Generated_Source\PSoC4/LCD_Char.c ****     {
 382              		.loc 1 239 0
 383 0014 0028     		cmp	r0, #0
 384 0016 F8D1     		bne	.L16
 245:Generated_Source\PSoC4/LCD_Char.c **** 
 385              		.loc 1 245 0
 386              		@ sp needed
 387              	.LVL37:
 388              	.LVL38:
 389 0018 70BD     		pop	{r4, r5, r6, pc}
 390              		.cfi_endproc
 391              	.LFE5:
 392              		.size	LCD_Char_PrintString, .-LCD_Char_PrintString
 393 001a C046     		.section	.text.LCD_Char_PutChar,"ax",%progbits
 394              		.align	2
 395              		.global	LCD_Char_PutChar
 396              		.code	16
 397              		.thumb_func
 398              		.type	LCD_Char_PutChar, %function
 399              	LCD_Char_PutChar:
 400              	.LFB6:
 265:Generated_Source\PSoC4/LCD_Char.c ****     LCD_Char_WriteData((uint8)character);
 401              		.loc 1 265 0
 402              		.cfi_startproc
 403              		@ args = 0, pretend = 0, frame = 0
 404              		@ frame_needed = 0, uses_anonymous_args = 0
 405              	.LVL39:
 406 0000 10B5     		push	{r4, lr}
 407              		.cfi_def_cfa_offset 8
 408              		.cfi_offset 4, -8
 409              		.cfi_offset 14, -4
 266:Generated_Source\PSoC4/LCD_Char.c **** }
 410              		.loc 1 266 0
 411 0002 FFF7FEFF 		bl	LCD_Char_WriteData
 412              	.LVL40:
 267:Generated_Source\PSoC4/LCD_Char.c **** 
 413              		.loc 1 267 0
 414              		@ sp needed
 415 0006 10BD     		pop	{r4, pc}
 416              		.cfi_endproc
 417              	.LFE6:
 418              		.size	LCD_Char_PutChar, .-LCD_Char_PutChar
 419              		.section	.text.LCD_Char_WriteControl,"ax",%progbits
ARM GAS  C:\Users\Zeynep\AppData\Local\Temp\ccgIGPOV.s 			page 19


 420              		.align	2
 421              		.global	LCD_Char_WriteControl
 422              		.code	16
 423              		.thumb_func
 424              		.type	LCD_Char_WriteControl, %function
 425              	LCD_Char_WriteControl:
 426              	.LFB8:
 315:Generated_Source\PSoC4/LCD_Char.c ****     uint8 nibble;
 427              		.loc 1 315 0
 428              		.cfi_startproc
 429              		@ args = 0, pretend = 0, frame = 0
 430              		@ frame_needed = 0, uses_anonymous_args = 0
 431              	.LVL41:
 432 0000 10B5     		push	{r4, lr}
 433              		.cfi_def_cfa_offset 8
 434              		.cfi_offset 4, -8
 435              		.cfi_offset 14, -4
 436 0002 0400     		movs	r4, r0
 318:Generated_Source\PSoC4/LCD_Char.c **** 
 437              		.loc 1 318 0
 438 0004 FFF7FEFF 		bl	LCD_Char_IsReady
 439              	.LVL42:
 320:Generated_Source\PSoC4/LCD_Char.c ****     
 440              		.loc 1 320 0
 441 0008 2009     		lsrs	r0, r4, #4
 442              	.LVL43:
 323:Generated_Source\PSoC4/LCD_Char.c ****     nibble = cByte & LCD_Char_NIBBLE_MASK;
 443              		.loc 1 323 0
 444 000a FFF7FEFF 		bl	LCD_Char_WrCntrlNib
 445              	.LVL44:
 324:Generated_Source\PSoC4/LCD_Char.c **** 
 446              		.loc 1 324 0
 447 000e 0F20     		movs	r0, #15
 448 0010 2040     		ands	r0, r4
 449              	.LVL45:
 327:Generated_Source\PSoC4/LCD_Char.c **** }
 450              		.loc 1 327 0
 451 0012 FFF7FEFF 		bl	LCD_Char_WrCntrlNib
 452              	.LVL46:
 328:Generated_Source\PSoC4/LCD_Char.c **** 
 453              		.loc 1 328 0
 454              		@ sp needed
 455              	.LVL47:
 456 0016 10BD     		pop	{r4, pc}
 457              		.cfi_endproc
 458              	.LFE8:
 459              		.size	LCD_Char_WriteControl, .-LCD_Char_WriteControl
 460              		.section	.text.LCD_Char_Init,"ax",%progbits
 461              		.align	2
 462              		.global	LCD_Char_Init
 463              		.code	16
 464              		.thumb_func
 465              		.type	LCD_Char_Init, %function
 466              	LCD_Char_Init:
 467              	.LFB0:
  56:Generated_Source\PSoC4/LCD_Char.c ****     /* INIT CODE */
 468              		.loc 1 56 0
ARM GAS  C:\Users\Zeynep\AppData\Local\Temp\ccgIGPOV.s 			page 20


 469              		.cfi_startproc
 470              		@ args = 0, pretend = 0, frame = 0
 471              		@ frame_needed = 0, uses_anonymous_args = 0
 472 0000 10B5     		push	{r4, lr}
 473              		.cfi_def_cfa_offset 8
 474              		.cfi_offset 4, -8
 475              		.cfi_offset 14, -4
  58:Generated_Source\PSoC4/LCD_Char.c ****     LCD_Char_WrCntrlNib(LCD_Char_DISPLAY_8_BIT_INIT);    /* Selects 8-bit mode */
 476              		.loc 1 58 0
 477 0002 2820     		movs	r0, #40
 478 0004 FFF7FEFF 		bl	CyDelay
 479              	.LVL48:
  59:Generated_Source\PSoC4/LCD_Char.c ****     CyDelay(5u);                                                         /* Delay 5 ms */
 480              		.loc 1 59 0
 481 0008 0320     		movs	r0, #3
 482 000a FFF7FEFF 		bl	LCD_Char_WrCntrlNib
 483              	.LVL49:
  60:Generated_Source\PSoC4/LCD_Char.c ****     LCD_Char_WrCntrlNib(LCD_Char_DISPLAY_8_BIT_INIT);    /* Selects 8-bit mode */
 484              		.loc 1 60 0
 485 000e 0520     		movs	r0, #5
 486 0010 FFF7FEFF 		bl	CyDelay
 487              	.LVL50:
  61:Generated_Source\PSoC4/LCD_Char.c ****     CyDelay(15u);                                                        /* Delay 15 ms */
 488              		.loc 1 61 0
 489 0014 0320     		movs	r0, #3
 490 0016 FFF7FEFF 		bl	LCD_Char_WrCntrlNib
 491              	.LVL51:
  62:Generated_Source\PSoC4/LCD_Char.c ****     LCD_Char_WrCntrlNib(LCD_Char_DISPLAY_8_BIT_INIT);    /* Selects 8-bit mode */
 492              		.loc 1 62 0
 493 001a 0F20     		movs	r0, #15
 494 001c FFF7FEFF 		bl	CyDelay
 495              	.LVL52:
  63:Generated_Source\PSoC4/LCD_Char.c ****     CyDelay(1u);                                                         /* Delay 1 ms */
 496              		.loc 1 63 0
 497 0020 0320     		movs	r0, #3
 498 0022 FFF7FEFF 		bl	LCD_Char_WrCntrlNib
 499              	.LVL53:
  64:Generated_Source\PSoC4/LCD_Char.c ****     LCD_Char_WrCntrlNib(LCD_Char_DISPLAY_4_BIT_INIT);    /* Selects 4-bit mode */
 500              		.loc 1 64 0
 501 0026 0120     		movs	r0, #1
 502 0028 FFF7FEFF 		bl	CyDelay
 503              	.LVL54:
  65:Generated_Source\PSoC4/LCD_Char.c ****     CyDelay(5u);                                                         /* Delay 5 ms */
 504              		.loc 1 65 0
 505 002c 0220     		movs	r0, #2
 506 002e FFF7FEFF 		bl	LCD_Char_WrCntrlNib
 507              	.LVL55:
  66:Generated_Source\PSoC4/LCD_Char.c **** 
 508              		.loc 1 66 0
 509 0032 0520     		movs	r0, #5
 510 0034 FFF7FEFF 		bl	CyDelay
 511              	.LVL56:
  68:Generated_Source\PSoC4/LCD_Char.c ****     LCD_Char_WriteControl(LCD_Char_DISPLAY_CURSOR_ON);      /* Turn Display, Cursor ON */
 512              		.loc 1 68 0
 513 0038 0620     		movs	r0, #6
 514 003a FFF7FEFF 		bl	LCD_Char_WriteControl
 515              	.LVL57:
ARM GAS  C:\Users\Zeynep\AppData\Local\Temp\ccgIGPOV.s 			page 21


  69:Generated_Source\PSoC4/LCD_Char.c ****     LCD_Char_WriteControl(LCD_Char_DISPLAY_2_LINES_5x10);   /* 2 Lines by 5x10 Characters */
 516              		.loc 1 69 0
 517 003e 0E20     		movs	r0, #14
 518 0040 FFF7FEFF 		bl	LCD_Char_WriteControl
 519              	.LVL58:
  70:Generated_Source\PSoC4/LCD_Char.c ****     LCD_Char_WriteControl(LCD_Char_DISPLAY_CURSOR_OFF);     /* Turn Display, Cursor OFF */
 520              		.loc 1 70 0
 521 0044 2C20     		movs	r0, #44
 522 0046 FFF7FEFF 		bl	LCD_Char_WriteControl
 523              	.LVL59:
  71:Generated_Source\PSoC4/LCD_Char.c ****     LCD_Char_WriteControl(LCD_Char_CLEAR_DISPLAY);          /* Clear LCD Screen */
 524              		.loc 1 71 0
 525 004a 0820     		movs	r0, #8
 526 004c FFF7FEFF 		bl	LCD_Char_WriteControl
 527              	.LVL60:
  72:Generated_Source\PSoC4/LCD_Char.c ****     LCD_Char_WriteControl(LCD_Char_DISPLAY_ON_CURSOR_OFF);  /* Turn Display ON, Cursor OFF */
 528              		.loc 1 72 0
 529 0050 0120     		movs	r0, #1
 530 0052 FFF7FEFF 		bl	LCD_Char_WriteControl
 531              	.LVL61:
  73:Generated_Source\PSoC4/LCD_Char.c ****     LCD_Char_WriteControl(LCD_Char_RESET_CURSOR_POSITION);  /* Set Cursor to 0,0 */
 532              		.loc 1 73 0
 533 0056 0C20     		movs	r0, #12
 534 0058 FFF7FEFF 		bl	LCD_Char_WriteControl
 535              	.LVL62:
  74:Generated_Source\PSoC4/LCD_Char.c ****     CyDelay(5u);
 536              		.loc 1 74 0
 537 005c 0320     		movs	r0, #3
 538 005e FFF7FEFF 		bl	LCD_Char_WriteControl
 539              	.LVL63:
  75:Generated_Source\PSoC4/LCD_Char.c **** 
 540              		.loc 1 75 0
 541 0062 0520     		movs	r0, #5
 542 0064 FFF7FEFF 		bl	CyDelay
 543              	.LVL64:
  78:Generated_Source\PSoC4/LCD_Char.c ****     #endif /* LCD_Char_CUSTOM_CHAR_SET != LCD_Char_NONE */
 544              		.loc 1 78 0
 545 0068 0148     		ldr	r0, .L20
 546 006a FFF7FEFF 		bl	LCD_Char_LoadCustomFonts
 547              	.LVL65:
  80:Generated_Source\PSoC4/LCD_Char.c **** 
 548              		.loc 1 80 0
 549              		@ sp needed
 550 006e 10BD     		pop	{r4, pc}
 551              	.L21:
 552              		.align	2
 553              	.L20:
 554 0070 00000000 		.word	LCD_Char_customFonts
 555              		.cfi_endproc
 556              	.LFE0:
 557              		.size	LCD_Char_Init, .-LCD_Char_Init
 558              		.section	.text.LCD_Char_Enable,"ax",%progbits
 559              		.align	2
 560              		.global	LCD_Char_Enable
 561              		.code	16
 562              		.thumb_func
 563              		.type	LCD_Char_Enable, %function
ARM GAS  C:\Users\Zeynep\AppData\Local\Temp\ccgIGPOV.s 			page 22


 564              	LCD_Char_Enable:
 565              	.LFB1:
 105:Generated_Source\PSoC4/LCD_Char.c ****     LCD_Char_DisplayOn();
 566              		.loc 1 105 0
 567              		.cfi_startproc
 568              		@ args = 0, pretend = 0, frame = 0
 569              		@ frame_needed = 0, uses_anonymous_args = 0
 570 0000 10B5     		push	{r4, lr}
 571              		.cfi_def_cfa_offset 8
 572              		.cfi_offset 4, -8
 573              		.cfi_offset 14, -4
 106:Generated_Source\PSoC4/LCD_Char.c ****     LCD_Char_enableState = 1u;
 574              		.loc 1 106 0
 575 0002 0C20     		movs	r0, #12
 576 0004 FFF7FEFF 		bl	LCD_Char_WriteControl
 577              	.LVL66:
 107:Generated_Source\PSoC4/LCD_Char.c **** }
 578              		.loc 1 107 0
 579 0008 0122     		movs	r2, #1
 580 000a 014B     		ldr	r3, .L23
 581 000c 1A70     		strb	r2, [r3]
 108:Generated_Source\PSoC4/LCD_Char.c **** 
 582              		.loc 1 108 0
 583              		@ sp needed
 584 000e 10BD     		pop	{r4, pc}
 585              	.L24:
 586              		.align	2
 587              	.L23:
 588 0010 00000000 		.word	.LANCHOR0
 589              		.cfi_endproc
 590              	.LFE1:
 591              		.size	LCD_Char_Enable, .-LCD_Char_Enable
 592              		.section	.text.LCD_Char_Start,"ax",%progbits
 593              		.align	2
 594              		.global	LCD_Char_Start
 595              		.code	16
 596              		.thumb_func
 597              		.type	LCD_Char_Start, %function
 598              	LCD_Char_Start:
 599              	.LFB2:
 138:Generated_Source\PSoC4/LCD_Char.c ****     /* If not initialized, perform initialization */
 600              		.loc 1 138 0
 601              		.cfi_startproc
 602              		@ args = 0, pretend = 0, frame = 0
 603              		@ frame_needed = 0, uses_anonymous_args = 0
 604 0000 10B5     		push	{r4, lr}
 605              		.cfi_def_cfa_offset 8
 606              		.cfi_offset 4, -8
 607              		.cfi_offset 14, -4
 140:Generated_Source\PSoC4/LCD_Char.c ****     {
 608              		.loc 1 140 0
 609 0002 064B     		ldr	r3, .L27
 610 0004 5B78     		ldrb	r3, [r3, #1]
 611 0006 002B     		cmp	r3, #0
 612 0008 04D1     		bne	.L26
 142:Generated_Source\PSoC4/LCD_Char.c ****         LCD_Char_initVar = 1u;
 613              		.loc 1 142 0
ARM GAS  C:\Users\Zeynep\AppData\Local\Temp\ccgIGPOV.s 			page 23


 614 000a FFF7FEFF 		bl	LCD_Char_Init
 615              	.LVL67:
 143:Generated_Source\PSoC4/LCD_Char.c ****     }
 616              		.loc 1 143 0
 617 000e 0122     		movs	r2, #1
 618 0010 024B     		ldr	r3, .L27
 619 0012 5A70     		strb	r2, [r3, #1]
 620              	.L26:
 147:Generated_Source\PSoC4/LCD_Char.c **** }
 621              		.loc 1 147 0
 622 0014 FFF7FEFF 		bl	LCD_Char_Enable
 623              	.LVL68:
 148:Generated_Source\PSoC4/LCD_Char.c **** 
 624              		.loc 1 148 0
 625              		@ sp needed
 626 0018 10BD     		pop	{r4, pc}
 627              	.L28:
 628 001a C046     		.align	2
 629              	.L27:
 630 001c 00000000 		.word	.LANCHOR0
 631              		.cfi_endproc
 632              	.LFE2:
 633              		.size	LCD_Char_Start, .-LCD_Char_Start
 634              		.section	.text.LCD_Char_Stop,"ax",%progbits
 635              		.align	2
 636              		.global	LCD_Char_Stop
 637              		.code	16
 638              		.thumb_func
 639              		.type	LCD_Char_Stop, %function
 640              	LCD_Char_Stop:
 641              	.LFB3:
 169:Generated_Source\PSoC4/LCD_Char.c ****     /* Calls LCD Off Macro */
 642              		.loc 1 169 0
 643              		.cfi_startproc
 644              		@ args = 0, pretend = 0, frame = 0
 645              		@ frame_needed = 0, uses_anonymous_args = 0
 646 0000 10B5     		push	{r4, lr}
 647              		.cfi_def_cfa_offset 8
 648              		.cfi_offset 4, -8
 649              		.cfi_offset 14, -4
 171:Generated_Source\PSoC4/LCD_Char.c ****     LCD_Char_enableState = 0u;
 650              		.loc 1 171 0
 651 0002 0820     		movs	r0, #8
 652 0004 FFF7FEFF 		bl	LCD_Char_WriteControl
 653              	.LVL69:
 172:Generated_Source\PSoC4/LCD_Char.c **** }
 654              		.loc 1 172 0
 655 0008 0022     		movs	r2, #0
 656 000a 014B     		ldr	r3, .L30
 657 000c 1A70     		strb	r2, [r3]
 173:Generated_Source\PSoC4/LCD_Char.c **** 
 658              		.loc 1 173 0
 659              		@ sp needed
 660 000e 10BD     		pop	{r4, pc}
 661              	.L31:
 662              		.align	2
 663              	.L30:
ARM GAS  C:\Users\Zeynep\AppData\Local\Temp\ccgIGPOV.s 			page 24


 664 0010 00000000 		.word	.LANCHOR0
 665              		.cfi_endproc
 666              	.LFE3:
 667              		.size	LCD_Char_Stop, .-LCD_Char_Stop
 668              		.section	.text.LCD_Char_Position,"ax",%progbits
 669              		.align	2
 670              		.global	LCD_Char_Position
 671              		.code	16
 672              		.thumb_func
 673              		.type	LCD_Char_Position, %function
 674              	LCD_Char_Position:
 675              	.LFB4:
 197:Generated_Source\PSoC4/LCD_Char.c ****     switch (row)
 676              		.loc 1 197 0
 677              		.cfi_startproc
 678              		@ args = 0, pretend = 0, frame = 0
 679              		@ frame_needed = 0, uses_anonymous_args = 0
 680              	.LVL70:
 681 0000 10B5     		push	{r4, lr}
 682              		.cfi_def_cfa_offset 8
 683              		.cfi_offset 4, -8
 684              		.cfi_offset 14, -4
 198:Generated_Source\PSoC4/LCD_Char.c ****     {
 685              		.loc 1 198 0
 686 0002 0128     		cmp	r0, #1
 687 0004 0BD0     		beq	.L34
 688 0006 0028     		cmp	r0, #0
 689 0008 04D0     		beq	.L35
 690 000a 0228     		cmp	r0, #2
 691 000c 0CD0     		beq	.L36
 692 000e 0328     		cmp	r0, #3
 693 0010 0FD0     		beq	.L37
 694 0012 12E0     		b	.L32
 695              	.L35:
 201:Generated_Source\PSoC4/LCD_Char.c ****             break;
 696              		.loc 1 201 0
 697 0014 8039     		subs	r1, r1, #128
 698              	.LVL71:
 699 0016 C8B2     		uxtb	r0, r1
 700              	.LVL72:
 701 0018 FFF7FEFF 		bl	LCD_Char_WriteControl
 702              	.LVL73:
 202:Generated_Source\PSoC4/LCD_Char.c ****         case (uint8) 1:
 703              		.loc 1 202 0
 704 001c 0DE0     		b	.L32
 705              	.LVL74:
 706              	.L34:
 204:Generated_Source\PSoC4/LCD_Char.c ****             break;
 707              		.loc 1 204 0
 708 001e 4039     		subs	r1, r1, #64
 709              	.LVL75:
 710 0020 C8B2     		uxtb	r0, r1
 711              	.LVL76:
 712 0022 FFF7FEFF 		bl	LCD_Char_WriteControl
 713              	.LVL77:
 205:Generated_Source\PSoC4/LCD_Char.c ****         case (uint8) 2:
 714              		.loc 1 205 0
ARM GAS  C:\Users\Zeynep\AppData\Local\Temp\ccgIGPOV.s 			page 25


 715 0026 08E0     		b	.L32
 716              	.LVL78:
 717              	.L36:
 207:Generated_Source\PSoC4/LCD_Char.c ****             break;
 718              		.loc 1 207 0
 719 0028 6C39     		subs	r1, r1, #108
 720              	.LVL79:
 721 002a C8B2     		uxtb	r0, r1
 722              	.LVL80:
 723 002c FFF7FEFF 		bl	LCD_Char_WriteControl
 724              	.LVL81:
 208:Generated_Source\PSoC4/LCD_Char.c ****         case (uint8) 3:
 725              		.loc 1 208 0
 726 0030 03E0     		b	.L32
 727              	.LVL82:
 728              	.L37:
 210:Generated_Source\PSoC4/LCD_Char.c ****             break;
 729              		.loc 1 210 0
 730 0032 2C39     		subs	r1, r1, #44
 731              	.LVL83:
 732 0034 C8B2     		uxtb	r0, r1
 733              	.LVL84:
 734 0036 FFF7FEFF 		bl	LCD_Char_WriteControl
 735              	.LVL85:
 736              	.L32:
 216:Generated_Source\PSoC4/LCD_Char.c **** 
 737              		.loc 1 216 0
 738              		@ sp needed
 739 003a 10BD     		pop	{r4, pc}
 740              		.cfi_endproc
 741              	.LFE4:
 742              		.size	LCD_Char_Position, .-LCD_Char_Position
 743              		.section	.text.LCD_Char_PrintInt8,"ax",%progbits
 744              		.align	2
 745              		.global	LCD_Char_PrintInt8
 746              		.code	16
 747              		.thumb_func
 748              		.type	LCD_Char_PrintInt8, %function
 749              	LCD_Char_PrintInt8:
 750              	.LFB12:
 550:Generated_Source\PSoC4/LCD_Char.c **** 
 551:Generated_Source\PSoC4/LCD_Char.c **** 
 552:Generated_Source\PSoC4/LCD_Char.c **** #if(LCD_Char_CONVERSION_ROUTINES == 1u)
 553:Generated_Source\PSoC4/LCD_Char.c **** 
 554:Generated_Source\PSoC4/LCD_Char.c ****     /*******************************************************************************
 555:Generated_Source\PSoC4/LCD_Char.c ****     *  Function Name: LCD_Char_PrintInt8
 556:Generated_Source\PSoC4/LCD_Char.c ****     ********************************************************************************
 557:Generated_Source\PSoC4/LCD_Char.c ****     *
 558:Generated_Source\PSoC4/LCD_Char.c ****     * Summary:
 559:Generated_Source\PSoC4/LCD_Char.c ****     *  Print a byte as two ASCII characters.
 560:Generated_Source\PSoC4/LCD_Char.c ****     *
 561:Generated_Source\PSoC4/LCD_Char.c ****     * Parameters:
 562:Generated_Source\PSoC4/LCD_Char.c ****     *  value: The byte to be printed out as ASCII characters.
 563:Generated_Source\PSoC4/LCD_Char.c ****     *
 564:Generated_Source\PSoC4/LCD_Char.c ****     * Return:
 565:Generated_Source\PSoC4/LCD_Char.c ****     *  None.
 566:Generated_Source\PSoC4/LCD_Char.c ****     *
ARM GAS  C:\Users\Zeynep\AppData\Local\Temp\ccgIGPOV.s 			page 26


 567:Generated_Source\PSoC4/LCD_Char.c ****     *******************************************************************************/
 568:Generated_Source\PSoC4/LCD_Char.c ****     void LCD_Char_PrintInt8(uint8 value) 
 569:Generated_Source\PSoC4/LCD_Char.c ****     {
 751              		.loc 1 569 0
 752              		.cfi_startproc
 753              		@ args = 0, pretend = 0, frame = 0
 754              		@ frame_needed = 0, uses_anonymous_args = 0
 755              	.LVL86:
 756 0000 70B5     		push	{r4, r5, r6, lr}
 757              		.cfi_def_cfa_offset 16
 758              		.cfi_offset 4, -16
 759              		.cfi_offset 5, -12
 760              		.cfi_offset 6, -8
 761              		.cfi_offset 14, -4
 762 0002 0400     		movs	r4, r0
 570:Generated_Source\PSoC4/LCD_Char.c ****         static char8 const CYCODE LCD_Char_hex[16u] = "0123456789ABCDEF";
 571:Generated_Source\PSoC4/LCD_Char.c ****         
 572:Generated_Source\PSoC4/LCD_Char.c ****         LCD_Char_PutChar((char8) LCD_Char_hex[value >> LCD_Char_BYTE_UPPER_NIBBLE_SHIFT]);
 763              		.loc 1 572 0
 764 0004 0309     		lsrs	r3, r0, #4
 765 0006 054D     		ldr	r5, .L39
 766 0008 E85C     		ldrb	r0, [r5, r3]
 767              	.LVL87:
 768 000a FFF7FEFF 		bl	LCD_Char_PutChar
 769              	.LVL88:
 573:Generated_Source\PSoC4/LCD_Char.c ****         LCD_Char_PutChar((char8) LCD_Char_hex[value & LCD_Char_BYTE_LOWER_NIBBLE_MASK]);
 770              		.loc 1 573 0
 771 000e 0F23     		movs	r3, #15
 772 0010 1C40     		ands	r4, r3
 773 0012 285D     		ldrb	r0, [r5, r4]
 774 0014 FFF7FEFF 		bl	LCD_Char_PutChar
 775              	.LVL89:
 574:Generated_Source\PSoC4/LCD_Char.c ****     }
 776              		.loc 1 574 0
 777              		@ sp needed
 778 0018 70BD     		pop	{r4, r5, r6, pc}
 779              	.L40:
 780 001a C046     		.align	2
 781              	.L39:
 782 001c 00000000 		.word	.LANCHOR1
 783              		.cfi_endproc
 784              	.LFE12:
 785              		.size	LCD_Char_PrintInt8, .-LCD_Char_PrintInt8
 786              		.section	.text.LCD_Char_PrintInt16,"ax",%progbits
 787              		.align	2
 788              		.global	LCD_Char_PrintInt16
 789              		.code	16
 790              		.thumb_func
 791              		.type	LCD_Char_PrintInt16, %function
 792              	LCD_Char_PrintInt16:
 793              	.LFB13:
 575:Generated_Source\PSoC4/LCD_Char.c **** 
 576:Generated_Source\PSoC4/LCD_Char.c **** 
 577:Generated_Source\PSoC4/LCD_Char.c ****     /*******************************************************************************
 578:Generated_Source\PSoC4/LCD_Char.c ****     *  Function Name: LCD_Char_PrintInt16
 579:Generated_Source\PSoC4/LCD_Char.c ****     ********************************************************************************
 580:Generated_Source\PSoC4/LCD_Char.c ****     *
ARM GAS  C:\Users\Zeynep\AppData\Local\Temp\ccgIGPOV.s 			page 27


 581:Generated_Source\PSoC4/LCD_Char.c ****     * Summary:
 582:Generated_Source\PSoC4/LCD_Char.c ****     *  Print a uint16 as four ASCII characters.
 583:Generated_Source\PSoC4/LCD_Char.c ****     *
 584:Generated_Source\PSoC4/LCD_Char.c ****     * Parameters:
 585:Generated_Source\PSoC4/LCD_Char.c ****     *  value: The uint16 to be printed out as ASCII characters.
 586:Generated_Source\PSoC4/LCD_Char.c ****     *
 587:Generated_Source\PSoC4/LCD_Char.c ****     * Return:
 588:Generated_Source\PSoC4/LCD_Char.c ****     *  None.
 589:Generated_Source\PSoC4/LCD_Char.c ****     *
 590:Generated_Source\PSoC4/LCD_Char.c ****     *******************************************************************************/
 591:Generated_Source\PSoC4/LCD_Char.c ****     void LCD_Char_PrintInt16(uint16 value) 
 592:Generated_Source\PSoC4/LCD_Char.c ****     {
 794              		.loc 1 592 0
 795              		.cfi_startproc
 796              		@ args = 0, pretend = 0, frame = 0
 797              		@ frame_needed = 0, uses_anonymous_args = 0
 798              	.LVL90:
 799 0000 10B5     		push	{r4, lr}
 800              		.cfi_def_cfa_offset 8
 801              		.cfi_offset 4, -8
 802              		.cfi_offset 14, -4
 803 0002 0400     		movs	r4, r0
 593:Generated_Source\PSoC4/LCD_Char.c ****         LCD_Char_PrintInt8((uint8)(value >> LCD_Char_U16_UPPER_BYTE_SHIFT));
 804              		.loc 1 593 0
 805 0004 000A     		lsrs	r0, r0, #8
 806              	.LVL91:
 807 0006 FFF7FEFF 		bl	LCD_Char_PrintInt8
 808              	.LVL92:
 594:Generated_Source\PSoC4/LCD_Char.c ****         LCD_Char_PrintInt8((uint8)(value & LCD_Char_U16_LOWER_BYTE_MASK));
 809              		.loc 1 594 0
 810 000a E0B2     		uxtb	r0, r4
 811 000c FFF7FEFF 		bl	LCD_Char_PrintInt8
 812              	.LVL93:
 595:Generated_Source\PSoC4/LCD_Char.c ****     }
 813              		.loc 1 595 0
 814              		@ sp needed
 815 0010 10BD     		pop	{r4, pc}
 816              		.cfi_endproc
 817              	.LFE13:
 818              		.size	LCD_Char_PrintInt16, .-LCD_Char_PrintInt16
 819 0012 C046     		.section	.text.LCD_Char_PrintInt32,"ax",%progbits
 820              		.align	2
 821              		.global	LCD_Char_PrintInt32
 822              		.code	16
 823              		.thumb_func
 824              		.type	LCD_Char_PrintInt32, %function
 825              	LCD_Char_PrintInt32:
 826              	.LFB14:
 596:Generated_Source\PSoC4/LCD_Char.c **** 
 597:Generated_Source\PSoC4/LCD_Char.c ****     
 598:Generated_Source\PSoC4/LCD_Char.c ****     /*******************************************************************************
 599:Generated_Source\PSoC4/LCD_Char.c ****     *  Function Name: LCD_Char_PrintInt32
 600:Generated_Source\PSoC4/LCD_Char.c ****     ********************************************************************************
 601:Generated_Source\PSoC4/LCD_Char.c ****     *
 602:Generated_Source\PSoC4/LCD_Char.c ****     * Summary:
 603:Generated_Source\PSoC4/LCD_Char.c ****     *  Print a uint32 hexadecimal number as eight ASCII characters.
 604:Generated_Source\PSoC4/LCD_Char.c ****     *
ARM GAS  C:\Users\Zeynep\AppData\Local\Temp\ccgIGPOV.s 			page 28


 605:Generated_Source\PSoC4/LCD_Char.c ****     * Parameters:
 606:Generated_Source\PSoC4/LCD_Char.c ****     *  value: The uint32 to be printed out as ASCII characters.
 607:Generated_Source\PSoC4/LCD_Char.c ****     *
 608:Generated_Source\PSoC4/LCD_Char.c ****     * Return:
 609:Generated_Source\PSoC4/LCD_Char.c ****     *  None.
 610:Generated_Source\PSoC4/LCD_Char.c ****     *
 611:Generated_Source\PSoC4/LCD_Char.c ****     *******************************************************************************/
 612:Generated_Source\PSoC4/LCD_Char.c ****     void LCD_Char_PrintInt32(uint32 value) 
 613:Generated_Source\PSoC4/LCD_Char.c ****     {
 827              		.loc 1 613 0
 828              		.cfi_startproc
 829              		@ args = 0, pretend = 0, frame = 0
 830              		@ frame_needed = 0, uses_anonymous_args = 0
 831              	.LVL94:
 832 0000 70B5     		push	{r4, r5, r6, lr}
 833              		.cfi_def_cfa_offset 16
 834              		.cfi_offset 4, -16
 835              		.cfi_offset 5, -12
 836              		.cfi_offset 6, -8
 837              		.cfi_offset 14, -4
 838 0002 0500     		movs	r5, r0
 839              	.LVL95:
 614:Generated_Source\PSoC4/LCD_Char.c ****         uint8 shift = LCD_Char_32_BIT_SHIFT;
 840              		.loc 1 614 0
 841 0004 2024     		movs	r4, #32
 615:Generated_Source\PSoC4/LCD_Char.c ****         
 616:Generated_Source\PSoC4/LCD_Char.c ****         while (shift != 0u)
 842              		.loc 1 616 0
 843 0006 06E0     		b	.L43
 844              	.LVL96:
 845              	.L44:
 617:Generated_Source\PSoC4/LCD_Char.c ****         {
 618:Generated_Source\PSoC4/LCD_Char.c ****             /* "shift" var is to be subtracted by 8 prior shifting. This implements 
 619:Generated_Source\PSoC4/LCD_Char.c ****             * shifting by 24, 16, 8 and 0u. 
 620:Generated_Source\PSoC4/LCD_Char.c ****             */
 621:Generated_Source\PSoC4/LCD_Char.c ****             shift -= LCD_Char_8_BIT_SHIFT;
 846              		.loc 1 621 0
 847 0008 083C     		subs	r4, r4, #8
 848              	.LVL97:
 849 000a E4B2     		uxtb	r4, r4
 850              	.LVL98:
 622:Generated_Source\PSoC4/LCD_Char.c ****             
 623:Generated_Source\PSoC4/LCD_Char.c ****             /* Print 8 bits of uint32 hex number */
 624:Generated_Source\PSoC4/LCD_Char.c ****             LCD_Char_PrintInt8((uint8) ((uint32) (value >> shift)));
 851              		.loc 1 624 0
 852 000c 2800     		movs	r0, r5
 853 000e E040     		lsrs	r0, r0, r4
 854 0010 C0B2     		uxtb	r0, r0
 855 0012 FFF7FEFF 		bl	LCD_Char_PrintInt8
 856              	.LVL99:
 857              	.L43:
 616:Generated_Source\PSoC4/LCD_Char.c ****         {
 858              		.loc 1 616 0
 859 0016 002C     		cmp	r4, #0
 860 0018 F6D1     		bne	.L44
 625:Generated_Source\PSoC4/LCD_Char.c ****         }
 626:Generated_Source\PSoC4/LCD_Char.c ****     }
ARM GAS  C:\Users\Zeynep\AppData\Local\Temp\ccgIGPOV.s 			page 29


 861              		.loc 1 626 0
 862              		@ sp needed
 863              	.LVL100:
 864              	.LVL101:
 865 001a 70BD     		pop	{r4, r5, r6, pc}
 866              		.cfi_endproc
 867              	.LFE14:
 868              		.size	LCD_Char_PrintInt32, .-LCD_Char_PrintInt32
 869              		.global	__aeabi_uidivmod
 870              		.global	__aeabi_uidiv
 871              		.section	.text.LCD_Char_PrintU32Number,"ax",%progbits
 872              		.align	2
 873              		.global	LCD_Char_PrintU32Number
 874              		.code	16
 875              		.thumb_func
 876              		.type	LCD_Char_PrintU32Number, %function
 877              	LCD_Char_PrintU32Number:
 878              	.LFB15:
 627:Generated_Source\PSoC4/LCD_Char.c ****     
 628:Generated_Source\PSoC4/LCD_Char.c ****     
 629:Generated_Source\PSoC4/LCD_Char.c ****     /*******************************************************************************
 630:Generated_Source\PSoC4/LCD_Char.c ****     *  Function Name: LCD_Char_PrintNumber
 631:Generated_Source\PSoC4/LCD_Char.c ****     ********************************************************************************
 632:Generated_Source\PSoC4/LCD_Char.c ****     *
 633:Generated_Source\PSoC4/LCD_Char.c ****     * Summary:
 634:Generated_Source\PSoC4/LCD_Char.c ****     *  Print an uint16 value as a left-justified decimal value.
 635:Generated_Source\PSoC4/LCD_Char.c ****     *
 636:Generated_Source\PSoC4/LCD_Char.c ****     * Parameters:
 637:Generated_Source\PSoC4/LCD_Char.c ****     *  value: A 16-bit value to be printed in ASCII characters as a decimal number
 638:Generated_Source\PSoC4/LCD_Char.c ****     *
 639:Generated_Source\PSoC4/LCD_Char.c ****     * Return:
 640:Generated_Source\PSoC4/LCD_Char.c ****     *  None.
 641:Generated_Source\PSoC4/LCD_Char.c ****     *
 642:Generated_Source\PSoC4/LCD_Char.c ****     * Note:
 643:Generated_Source\PSoC4/LCD_Char.c ****     *  This function is implemented as a macro.
 644:Generated_Source\PSoC4/LCD_Char.c ****     *
 645:Generated_Source\PSoC4/LCD_Char.c ****     *******************************************************************************/
 646:Generated_Source\PSoC4/LCD_Char.c **** 
 647:Generated_Source\PSoC4/LCD_Char.c ****     
 648:Generated_Source\PSoC4/LCD_Char.c ****     /*******************************************************************************
 649:Generated_Source\PSoC4/LCD_Char.c ****     *  Function Name: LCD_Char_PrintU32Number
 650:Generated_Source\PSoC4/LCD_Char.c ****     ********************************************************************************
 651:Generated_Source\PSoC4/LCD_Char.c ****     *
 652:Generated_Source\PSoC4/LCD_Char.c ****     * Summary:
 653:Generated_Source\PSoC4/LCD_Char.c ****     *  Print an uint32 value as a left-justified decimal value.
 654:Generated_Source\PSoC4/LCD_Char.c ****     *
 655:Generated_Source\PSoC4/LCD_Char.c ****     * Parameters:
 656:Generated_Source\PSoC4/LCD_Char.c ****     *  value: A 32-bit value to be printed in ASCII characters as a decimal number
 657:Generated_Source\PSoC4/LCD_Char.c ****     *
 658:Generated_Source\PSoC4/LCD_Char.c ****     * Return:
 659:Generated_Source\PSoC4/LCD_Char.c ****     *  None.
 660:Generated_Source\PSoC4/LCD_Char.c ****     *
 661:Generated_Source\PSoC4/LCD_Char.c ****     *******************************************************************************/
 662:Generated_Source\PSoC4/LCD_Char.c ****     void LCD_Char_PrintU32Number(uint32 value) 
 663:Generated_Source\PSoC4/LCD_Char.c ****     {
 879              		.loc 1 663 0
 880              		.cfi_startproc
ARM GAS  C:\Users\Zeynep\AppData\Local\Temp\ccgIGPOV.s 			page 30


 881              		@ args = 0, pretend = 0, frame = 16
 882              		@ frame_needed = 0, uses_anonymous_args = 0
 883              	.LVL102:
 884 0000 30B5     		push	{r4, r5, lr}
 885              		.cfi_def_cfa_offset 12
 886              		.cfi_offset 4, -12
 887              		.cfi_offset 5, -8
 888              		.cfi_offset 14, -4
 889 0002 85B0     		sub	sp, sp, #20
 890              		.cfi_def_cfa_offset 32
 891 0004 0400     		movs	r4, r0
 892              	.LVL103:
 664:Generated_Source\PSoC4/LCD_Char.c ****         uint8 tmpDigit;
 665:Generated_Source\PSoC4/LCD_Char.c ****         char8 number[LCD_Char_NUMBER_OF_REMAINDERS_U32 + 1u];
 666:Generated_Source\PSoC4/LCD_Char.c ****         uint8 digIndex = LCD_Char_NUMBER_OF_REMAINDERS_U32;
 667:Generated_Source\PSoC4/LCD_Char.c ****         
 668:Generated_Source\PSoC4/LCD_Char.c ****         /* This API will output a decimal number as a string and that string will be 
 669:Generated_Source\PSoC4/LCD_Char.c ****         * filled from end to start. Set Null termination character first.
 670:Generated_Source\PSoC4/LCD_Char.c ****         */
 671:Generated_Source\PSoC4/LCD_Char.c ****         number[digIndex] = (char8) '\0';
 893              		.loc 1 671 0
 894 0006 0022     		movs	r2, #0
 895 0008 01AB     		add	r3, sp, #4
 896 000a 9A72     		strb	r2, [r3, #10]
 897              	.LVL104:
 672:Generated_Source\PSoC4/LCD_Char.c ****         digIndex--;
 898              		.loc 1 672 0
 899 000c 0925     		movs	r5, #9
 673:Generated_Source\PSoC4/LCD_Char.c ****         
 674:Generated_Source\PSoC4/LCD_Char.c ****         /* Load these in reverse order */
 675:Generated_Source\PSoC4/LCD_Char.c ****         while(value >= LCD_Char_TEN)
 900              		.loc 1 675 0
 901 000e 0EE0     		b	.L46
 902              	.LVL105:
 903              	.L47:
 676:Generated_Source\PSoC4/LCD_Char.c ****         {
 677:Generated_Source\PSoC4/LCD_Char.c ****             /* Extract decimal digit, indexed by 'digIndex', from 'value' and
 678:Generated_Source\PSoC4/LCD_Char.c ****             * convert it to ASCII character.
 679:Generated_Source\PSoC4/LCD_Char.c ****             */
 680:Generated_Source\PSoC4/LCD_Char.c ****             tmpDigit = (uint8) (((uint8) (value % LCD_Char_TEN)) + (uint8) LCD_Char_ZERO_CHAR_ASCII
 904              		.loc 1 680 0
 905 0010 0A21     		movs	r1, #10
 906 0012 2000     		movs	r0, r4
 907              	.LVL106:
 908 0014 FFF7FEFF 		bl	__aeabi_uidivmod
 909              	.LVL107:
 910 0018 C9B2     		uxtb	r1, r1
 911 001a 3031     		adds	r1, r1, #48
 912              	.LVL108:
 681:Generated_Source\PSoC4/LCD_Char.c ****             
 682:Generated_Source\PSoC4/LCD_Char.c ****             /* Temporary variable 'tmpDigit' is used to avoid Violation of MISRA rule 
 683:Generated_Source\PSoC4/LCD_Char.c ****             * #10.3.
 684:Generated_Source\PSoC4/LCD_Char.c ****             */
 685:Generated_Source\PSoC4/LCD_Char.c ****             number[digIndex] = (char8) tmpDigit;
 913              		.loc 1 685 0
 914 001c 01AB     		add	r3, sp, #4
 915 001e 5955     		strb	r1, [r3, r5]
ARM GAS  C:\Users\Zeynep\AppData\Local\Temp\ccgIGPOV.s 			page 31


 686:Generated_Source\PSoC4/LCD_Char.c ****             value /= LCD_Char_TEN;
 916              		.loc 1 686 0
 917 0020 0A21     		movs	r1, #10
 918              	.LVL109:
 919 0022 2000     		movs	r0, r4
 920 0024 FFF7FEFF 		bl	__aeabi_uidiv
 921              	.LVL110:
 922 0028 0400     		movs	r4, r0
 923              	.LVL111:
 687:Generated_Source\PSoC4/LCD_Char.c ****             digIndex--;
 924              		.loc 1 687 0
 925 002a 013D     		subs	r5, r5, #1
 926              	.LVL112:
 927 002c EDB2     		uxtb	r5, r5
 928              	.LVL113:
 929              	.L46:
 675:Generated_Source\PSoC4/LCD_Char.c ****         {
 930              		.loc 1 675 0
 931 002e 092C     		cmp	r4, #9
 932 0030 EED8     		bhi	.L47
 688:Generated_Source\PSoC4/LCD_Char.c ****         }
 689:Generated_Source\PSoC4/LCD_Char.c ****         
 690:Generated_Source\PSoC4/LCD_Char.c ****         /* Extract last decimal digit 'digIndex', from the 'value' and convert it
 691:Generated_Source\PSoC4/LCD_Char.c ****         * to ASCII character.
 692:Generated_Source\PSoC4/LCD_Char.c ****         */
 693:Generated_Source\PSoC4/LCD_Char.c ****         tmpDigit = (uint8) (((uint8)(value % LCD_Char_TEN)) + (uint8) LCD_Char_ZERO_CHAR_ASCII);
 933              		.loc 1 693 0
 934 0032 0A21     		movs	r1, #10
 935 0034 2000     		movs	r0, r4
 936 0036 FFF7FEFF 		bl	__aeabi_uidivmod
 937              	.LVL114:
 938 003a C9B2     		uxtb	r1, r1
 939 003c 3031     		adds	r1, r1, #48
 940              	.LVL115:
 694:Generated_Source\PSoC4/LCD_Char.c ****         number[digIndex] = (char8) tmpDigit;
 941              		.loc 1 694 0
 942 003e 01A8     		add	r0, sp, #4
 943 0040 4155     		strb	r1, [r0, r5]
 695:Generated_Source\PSoC4/LCD_Char.c **** 
 696:Generated_Source\PSoC4/LCD_Char.c ****         /* Print out number */
 697:Generated_Source\PSoC4/LCD_Char.c ****         LCD_Char_PrintString(&number[digIndex]);
 944              		.loc 1 697 0
 945 0042 4019     		adds	r0, r0, r5
 946 0044 FFF7FEFF 		bl	LCD_Char_PrintString
 947              	.LVL116:
 698:Generated_Source\PSoC4/LCD_Char.c ****     }
 948              		.loc 1 698 0
 949 0048 05B0     		add	sp, sp, #20
 950              		@ sp needed
 951              	.LVL117:
 952              	.LVL118:
 953 004a 30BD     		pop	{r4, r5, pc}
 954              		.cfi_endproc
 955              	.LFE15:
 956              		.size	LCD_Char_PrintU32Number, .-LCD_Char_PrintU32Number
 957              		.global	LCD_Char_initVar
 958              		.global	LCD_Char_enableState
ARM GAS  C:\Users\Zeynep\AppData\Local\Temp\ccgIGPOV.s 			page 32


 959              		.section	.rodata
 960              		.align	2
 961              		.set	.LANCHOR1,. + 0
 962              		.type	LCD_Char_hex.4923, %object
 963              		.size	LCD_Char_hex.4923, 16
 964              	LCD_Char_hex.4923:
 965 0000 30313233 		.ascii	"0123456789ABCDEF"
 965      34353637 
 965      38394142 
 965      43444546 
 966              		.bss
 967              		.set	.LANCHOR0,. + 0
 968              		.type	LCD_Char_enableState, %object
 969              		.size	LCD_Char_enableState, 1
 970              	LCD_Char_enableState:
 971 0000 00       		.space	1
 972              		.type	LCD_Char_initVar, %object
 973              		.size	LCD_Char_initVar, 1
 974              	LCD_Char_initVar:
 975 0001 00       		.space	1
 976              		.text
 977              	.Letext0:
 978              		.file 2 "Generated_Source\\PSoC4\\cytypes.h"
 979              		.file 3 "Generated_Source\\PSoC4\\LCD_Char.h"
 980              		.file 4 "Generated_Source\\PSoC4\\CyLib.h"