ARM GAS  C:\Users\Zeynep\AppData\Local\Temp\ccM2CZBH.s 			page 1


   1              		.syntax unified
   2              		.cpu cortex-m0
   3              		.fpu softvfp
   4              		.eabi_attribute 20, 1
   5              		.eabi_attribute 21, 1
   6              		.eabi_attribute 23, 3
   7              		.eabi_attribute 24, 1
   8              		.eabi_attribute 25, 1
   9              		.eabi_attribute 26, 1
  10              		.eabi_attribute 30, 1
  11              		.eabi_attribute 34, 0
  12              		.eabi_attribute 18, 4
  13              		.thumb
  14              		.syntax unified
  15              		.file	"LCD_Char_BarGraph.c"
  16              		.text
  17              	.Ltext0:
  18              		.cfi_sections	.debug_frame
  19              		.section	.text.LCD_Char_LoadCustomFonts,"ax",%progbits
  20              		.align	2
  21              		.global	LCD_Char_LoadCustomFonts
  22              		.code	16
  23              		.thumb_func
  24              		.type	LCD_Char_LoadCustomFonts, %function
  25              	LCD_Char_LoadCustomFonts:
  26              	.LFB0:
  27              		.file 1 "Generated_Source\\PSoC4\\LCD_Char_BarGraph.c"
   1:Generated_Source\PSoC4/LCD_Char_BarGraph.c **** /*******************************************************************************
   2:Generated_Source\PSoC4/LCD_Char_BarGraph.c **** * File Name: LCD_Char_BarGraph.c
   3:Generated_Source\PSoC4/LCD_Char_BarGraph.c **** * Version 2.20
   4:Generated_Source\PSoC4/LCD_Char_BarGraph.c **** *
   5:Generated_Source\PSoC4/LCD_Char_BarGraph.c **** * Description:
   6:Generated_Source\PSoC4/LCD_Char_BarGraph.c **** *  This file provides the custom character data and API for creating and using
   7:Generated_Source\PSoC4/LCD_Char_BarGraph.c **** *  bar graphs with the Character LCD component.
   8:Generated_Source\PSoC4/LCD_Char_BarGraph.c **** *
   9:Generated_Source\PSoC4/LCD_Char_BarGraph.c **** * Note:
  10:Generated_Source\PSoC4/LCD_Char_BarGraph.c **** *
  11:Generated_Source\PSoC4/LCD_Char_BarGraph.c **** ********************************************************************************
  12:Generated_Source\PSoC4/LCD_Char_BarGraph.c **** * Copyright 2008-2014, Cypress Semiconductor Corporation.  All rights reserved.
  13:Generated_Source\PSoC4/LCD_Char_BarGraph.c **** * You may use this file only in accordance with the license, terms, conditions,
  14:Generated_Source\PSoC4/LCD_Char_BarGraph.c **** * disclaimers, and limitations in the end user license agreement accompanying
  15:Generated_Source\PSoC4/LCD_Char_BarGraph.c **** * the software package with which this file was provided.
  16:Generated_Source\PSoC4/LCD_Char_BarGraph.c **** *******************************************************************************/
  17:Generated_Source\PSoC4/LCD_Char_BarGraph.c **** 
  18:Generated_Source\PSoC4/LCD_Char_BarGraph.c **** #include "LCD_Char.h"
  19:Generated_Source\PSoC4/LCD_Char_BarGraph.c **** 
  20:Generated_Source\PSoC4/LCD_Char_BarGraph.c **** 
  21:Generated_Source\PSoC4/LCD_Char_BarGraph.c **** uint8 const CYCODE LCD_Char_customFonts[] = \
  22:Generated_Source\PSoC4/LCD_Char_BarGraph.c **** {
  23:Generated_Source\PSoC4/LCD_Char_BarGraph.c ****     /* Character LCD_Char_CUSTOM_0   */
  24:Generated_Source\PSoC4/LCD_Char_BarGraph.c ****     0x00u,    0x00u,    0x00u,    0x00u,    0x00u,    0x00u,    0x00u,    0x00u, \
  25:Generated_Source\PSoC4/LCD_Char_BarGraph.c ****     /* Character LCD_Char_CUSTOM_1   */
  26:Generated_Source\PSoC4/LCD_Char_BarGraph.c ****     0x10u,    0x10u,    0x10u,    0x10u,    0x10u,    0x10u,    0x10u,    0x10u, \
  27:Generated_Source\PSoC4/LCD_Char_BarGraph.c ****     /* Character LCD_Char_CUSTOM_2   */
  28:Generated_Source\PSoC4/LCD_Char_BarGraph.c ****     0x18u,    0x18u,    0x18u,    0x18u,    0x18u,    0x18u,    0x18u,    0x18u, \
  29:Generated_Source\PSoC4/LCD_Char_BarGraph.c ****     /* Character LCD_Char_CUSTOM_3   */
  30:Generated_Source\PSoC4/LCD_Char_BarGraph.c ****     0x1Cu,    0x1Cu,    0x1Cu,    0x1Cu,    0x1Cu,    0x1Cu,    0x1Cu,    0x1Cu, \
ARM GAS  C:\Users\Zeynep\AppData\Local\Temp\ccM2CZBH.s 			page 2


  31:Generated_Source\PSoC4/LCD_Char_BarGraph.c ****     /* Character LCD_Char_CUSTOM_4   */
  32:Generated_Source\PSoC4/LCD_Char_BarGraph.c ****     0x1Eu,    0x1Eu,    0x1Eu,    0x1Eu,    0x1Eu,    0x1Eu,    0x1Eu,    0x1Eu, \
  33:Generated_Source\PSoC4/LCD_Char_BarGraph.c ****     /* Character LCD_Char_CUSTOM_5   */
  34:Generated_Source\PSoC4/LCD_Char_BarGraph.c ****     0x1Fu,    0x1Fu,    0x1Fu,    0x1Fu,    0x1Fu,    0x1Fu,    0x1Fu,    0x1Fu, \
  35:Generated_Source\PSoC4/LCD_Char_BarGraph.c ****     /* Character LCD_Char_CUSTOM_6   */
  36:Generated_Source\PSoC4/LCD_Char_BarGraph.c ****     0x00u,    0x00u,    0x00u,    0x00u,    0x00u,    0x00u,    0x00u,    0x00u, \
  37:Generated_Source\PSoC4/LCD_Char_BarGraph.c ****     /* Character LCD_Char_CUSTOM_7   */
  38:Generated_Source\PSoC4/LCD_Char_BarGraph.c ****     0x00u,    0x00u,    0x00u,    0x00u,    0x00u,    0x00u,    0x00u,    0x00u \
  39:Generated_Source\PSoC4/LCD_Char_BarGraph.c **** };
  40:Generated_Source\PSoC4/LCD_Char_BarGraph.c **** 
  41:Generated_Source\PSoC4/LCD_Char_BarGraph.c **** 
  42:Generated_Source\PSoC4/LCD_Char_BarGraph.c **** /*******************************************************************************
  43:Generated_Source\PSoC4/LCD_Char_BarGraph.c **** * Function Name: LCD_Char_LoadCustomFonts
  44:Generated_Source\PSoC4/LCD_Char_BarGraph.c **** ********************************************************************************
  45:Generated_Source\PSoC4/LCD_Char_BarGraph.c **** *
  46:Generated_Source\PSoC4/LCD_Char_BarGraph.c **** * Summary:
  47:Generated_Source\PSoC4/LCD_Char_BarGraph.c **** *  Loads 8 custom font characters into the LCD Module for use.  Cannot use
  48:Generated_Source\PSoC4/LCD_Char_BarGraph.c **** *  characters from two different font sets at once, but font sets can be
  49:Generated_Source\PSoC4/LCD_Char_BarGraph.c **** *  switched out during runtime.
  50:Generated_Source\PSoC4/LCD_Char_BarGraph.c **** *
  51:Generated_Source\PSoC4/LCD_Char_BarGraph.c **** * Parameters:
  52:Generated_Source\PSoC4/LCD_Char_BarGraph.c **** *  customData:  pointer to a constant array of 64 bytes representing 8 custom
  53:Generated_Source\PSoC4/LCD_Char_BarGraph.c **** *               font characters.
  54:Generated_Source\PSoC4/LCD_Char_BarGraph.c **** * Return:
  55:Generated_Source\PSoC4/LCD_Char_BarGraph.c **** *  None.
  56:Generated_Source\PSoC4/LCD_Char_BarGraph.c **** *
  57:Generated_Source\PSoC4/LCD_Char_BarGraph.c **** * Theory:
  58:Generated_Source\PSoC4/LCD_Char_BarGraph.c **** *  Prior to using this function user need to import the pointer to custom
  59:Generated_Source\PSoC4/LCD_Char_BarGraph.c **** *  font array to your project by writting the following in the source code file
  60:Generated_Source\PSoC4/LCD_Char_BarGraph.c **** *  where custom font will be used:
  61:Generated_Source\PSoC4/LCD_Char_BarGraph.c **** *       extern uint8 const CYCODE LCD_Char_customFonts[];
  62:Generated_Source\PSoC4/LCD_Char_BarGraph.c **** *  This function is not automatically called by the Start() routine and must be
  63:Generated_Source\PSoC4/LCD_Char_BarGraph.c **** *  called manually by the user.
  64:Generated_Source\PSoC4/LCD_Char_BarGraph.c **** *******************************************************************************/
  65:Generated_Source\PSoC4/LCD_Char_BarGraph.c **** void LCD_Char_LoadCustomFonts(uint8 const customData[]) 
  66:Generated_Source\PSoC4/LCD_Char_BarGraph.c **** {
  28              		.loc 1 66 0
  29              		.cfi_startproc
  30              		@ args = 0, pretend = 0, frame = 0
  31              		@ frame_needed = 0, uses_anonymous_args = 0
  32              	.LVL0:
  33 0000 70B5     		push	{r4, r5, r6, lr}
  34              		.cfi_def_cfa_offset 16
  35              		.cfi_offset 4, -16
  36              		.cfi_offset 5, -12
  37              		.cfi_offset 6, -8
  38              		.cfi_offset 14, -4
  39 0002 0500     		movs	r5, r0
  67:Generated_Source\PSoC4/LCD_Char_BarGraph.c ****     uint8 indexU8;
  68:Generated_Source\PSoC4/LCD_Char_BarGraph.c **** 
  69:Generated_Source\PSoC4/LCD_Char_BarGraph.c ****     LCD_Char_IsReady();
  40              		.loc 1 69 0
  41 0004 FFF7FEFF 		bl	LCD_Char_IsReady
  42              	.LVL1:
  70:Generated_Source\PSoC4/LCD_Char_BarGraph.c ****     /* Set starting address in the LCD Module */
  71:Generated_Source\PSoC4/LCD_Char_BarGraph.c ****     /* Optionally: Read the current address to restore at a later time */
  72:Generated_Source\PSoC4/LCD_Char_BarGraph.c ****     LCD_Char_WriteControl(LCD_Char_CGRAM_0);
ARM GAS  C:\Users\Zeynep\AppData\Local\Temp\ccM2CZBH.s 			page 3


  43              		.loc 1 72 0
  44 0008 4020     		movs	r0, #64
  45 000a FFF7FEFF 		bl	LCD_Char_WriteControl
  46              	.LVL2:
  73:Generated_Source\PSoC4/LCD_Char_BarGraph.c **** 
  74:Generated_Source\PSoC4/LCD_Char_BarGraph.c ****     /* Load in the 64 bytes of CustomChar Data */
  75:Generated_Source\PSoC4/LCD_Char_BarGraph.c ****     for(indexU8 = 0u; indexU8 < LCD_Char_CUSTOM_CHAR_SET_LEN; indexU8++)
  47              		.loc 1 75 0
  48 000e 0024     		movs	r4, #0
  49 0010 04E0     		b	.L2
  50              	.LVL3:
  51              	.L3:
  76:Generated_Source\PSoC4/LCD_Char_BarGraph.c ****     {
  77:Generated_Source\PSoC4/LCD_Char_BarGraph.c ****         /* Delay between each write */
  78:Generated_Source\PSoC4/LCD_Char_BarGraph.c ****         LCD_Char_WriteData(customData[indexU8]);
  52              		.loc 1 78 0 discriminator 3
  53 0012 285D     		ldrb	r0, [r5, r4]
  54 0014 FFF7FEFF 		bl	LCD_Char_WriteData
  55              	.LVL4:
  75:Generated_Source\PSoC4/LCD_Char_BarGraph.c ****     {
  56              		.loc 1 75 0 discriminator 3
  57 0018 0134     		adds	r4, r4, #1
  58              	.LVL5:
  59 001a E4B2     		uxtb	r4, r4
  60              	.LVL6:
  61              	.L2:
  75:Generated_Source\PSoC4/LCD_Char_BarGraph.c ****     {
  62              		.loc 1 75 0 is_stmt 0 discriminator 1
  63 001c 3F2C     		cmp	r4, #63
  64 001e F8D9     		bls	.L3
  79:Generated_Source\PSoC4/LCD_Char_BarGraph.c ****     }
  80:Generated_Source\PSoC4/LCD_Char_BarGraph.c **** 
  81:Generated_Source\PSoC4/LCD_Char_BarGraph.c ****     LCD_Char_IsReady();
  65              		.loc 1 81 0 is_stmt 1
  66 0020 FFF7FEFF 		bl	LCD_Char_IsReady
  67              	.LVL7:
  82:Generated_Source\PSoC4/LCD_Char_BarGraph.c ****     LCD_Char_WriteControl(LCD_Char_DDRAM_0);
  68              		.loc 1 82 0
  69 0024 8020     		movs	r0, #128
  70 0026 FFF7FEFF 		bl	LCD_Char_WriteControl
  71              	.LVL8:
  83:Generated_Source\PSoC4/LCD_Char_BarGraph.c **** }
  72              		.loc 1 83 0
  73              		@ sp needed
  74              	.LVL9:
  75              	.LVL10:
  76 002a 70BD     		pop	{r4, r5, r6, pc}
  77              		.cfi_endproc
  78              	.LFE0:
  79              		.size	LCD_Char_LoadCustomFonts, .-LCD_Char_LoadCustomFonts
  80              		.global	__aeabi_uidiv
  81              		.global	__aeabi_uidivmod
  82              		.section	.text.LCD_Char_DrawHorizontalBG,"ax",%progbits
  83              		.align	2
  84              		.global	LCD_Char_DrawHorizontalBG
  85              		.code	16
  86              		.thumb_func
ARM GAS  C:\Users\Zeynep\AppData\Local\Temp\ccM2CZBH.s 			page 4


  87              		.type	LCD_Char_DrawHorizontalBG, %function
  88              	LCD_Char_DrawHorizontalBG:
  89              	.LFB1:
  84:Generated_Source\PSoC4/LCD_Char_BarGraph.c **** 
  85:Generated_Source\PSoC4/LCD_Char_BarGraph.c **** 
  86:Generated_Source\PSoC4/LCD_Char_BarGraph.c **** #if (LCD_Char_CUSTOM_CHAR_SET == LCD_Char_HORIZONTAL_BG)
  87:Generated_Source\PSoC4/LCD_Char_BarGraph.c **** 
  88:Generated_Source\PSoC4/LCD_Char_BarGraph.c ****     /*******************************************************************************
  89:Generated_Source\PSoC4/LCD_Char_BarGraph.c ****     * Function Name: LCD_Char_DrawHorizontalBG
  90:Generated_Source\PSoC4/LCD_Char_BarGraph.c ****     ********************************************************************************
  91:Generated_Source\PSoC4/LCD_Char_BarGraph.c ****     *
  92:Generated_Source\PSoC4/LCD_Char_BarGraph.c ****     * Summary:
  93:Generated_Source\PSoC4/LCD_Char_BarGraph.c ****     *  Draws the horizontal bargraph.
  94:Generated_Source\PSoC4/LCD_Char_BarGraph.c ****     *
  95:Generated_Source\PSoC4/LCD_Char_BarGraph.c ****     * Parameters:
  96:Generated_Source\PSoC4/LCD_Char_BarGraph.c ****     *  row:            The row in which the bar graph starts.
  97:Generated_Source\PSoC4/LCD_Char_BarGraph.c ****     *  column:         The column in which the bar graph starts.
  98:Generated_Source\PSoC4/LCD_Char_BarGraph.c ****     *  maxCharacters:  The max length of the graph in whole characters.
  99:Generated_Source\PSoC4/LCD_Char_BarGraph.c ****     *  value:          The current length or height of the graph in pixels.
 100:Generated_Source\PSoC4/LCD_Char_BarGraph.c ****     *
 101:Generated_Source\PSoC4/LCD_Char_BarGraph.c ****     * Return:
 102:Generated_Source\PSoC4/LCD_Char_BarGraph.c ****     *  void.
 103:Generated_Source\PSoC4/LCD_Char_BarGraph.c ****     *
 104:Generated_Source\PSoC4/LCD_Char_BarGraph.c ****     *******************************************************************************/
 105:Generated_Source\PSoC4/LCD_Char_BarGraph.c ****     void LCD_Char_DrawHorizontalBG(uint8 row, uint8 column, uint8 maxCharacters, uint8 value) \
 106:Generated_Source\PSoC4/LCD_Char_BarGraph.c ****                                                             
 107:Generated_Source\PSoC4/LCD_Char_BarGraph.c ****     {
  90              		.loc 1 107 0
  91              		.cfi_startproc
  92              		@ args = 0, pretend = 0, frame = 8
  93              		@ frame_needed = 0, uses_anonymous_args = 0
  94              	.LVL11:
  95 0000 F0B5     		push	{r4, r5, r6, r7, lr}
  96              		.cfi_def_cfa_offset 20
  97              		.cfi_offset 4, -20
  98              		.cfi_offset 5, -16
  99              		.cfi_offset 6, -12
 100              		.cfi_offset 7, -8
 101              		.cfi_offset 14, -4
 102 0002 83B0     		sub	sp, sp, #12
 103              		.cfi_def_cfa_offset 32
 104 0004 0090     		str	r0, [sp]
 105 0006 0191     		str	r1, [sp, #4]
 106 0008 1600     		movs	r6, r2
 107 000a 1C00     		movs	r4, r3
 108:Generated_Source\PSoC4/LCD_Char_BarGraph.c ****         /* 8-bit Counter */
 109:Generated_Source\PSoC4/LCD_Char_BarGraph.c ****         uint8 count8;
 110:Generated_Source\PSoC4/LCD_Char_BarGraph.c ****         uint8 fullChars;
 111:Generated_Source\PSoC4/LCD_Char_BarGraph.c ****         uint8 remainingPixels;
 112:Generated_Source\PSoC4/LCD_Char_BarGraph.c **** 
 113:Generated_Source\PSoC4/LCD_Char_BarGraph.c ****         /* Number of full characters to draw */
 114:Generated_Source\PSoC4/LCD_Char_BarGraph.c ****         fullChars = value / LCD_Char_CHARACTER_WIDTH;
 108              		.loc 1 114 0
 109 000c 0521     		movs	r1, #5
 110              	.LVL12:
 111 000e 1800     		movs	r0, r3
 112              	.LVL13:
ARM GAS  C:\Users\Zeynep\AppData\Local\Temp\ccM2CZBH.s 			page 5


 113 0010 FFF7FEFF 		bl	__aeabi_uidiv
 114              	.LVL14:
 115 0014 C5B2     		uxtb	r5, r0
 116              	.LVL15:
 115:Generated_Source\PSoC4/LCD_Char_BarGraph.c **** 
 116:Generated_Source\PSoC4/LCD_Char_BarGraph.c ****         /* Number of remaining pixels to draw */
 117:Generated_Source\PSoC4/LCD_Char_BarGraph.c ****         remainingPixels = value % LCD_Char_CHARACTER_WIDTH;
 117              		.loc 1 117 0
 118 0016 0521     		movs	r1, #5
 119 0018 2000     		movs	r0, r4
 120 001a FFF7FEFF 		bl	__aeabi_uidivmod
 121              	.LVL16:
 122 001e CFB2     		uxtb	r7, r1
 123              	.LVL17:
 118:Generated_Source\PSoC4/LCD_Char_BarGraph.c **** 
 119:Generated_Source\PSoC4/LCD_Char_BarGraph.c ****         /* Ensure that the maximum character limit is followed. */
 120:Generated_Source\PSoC4/LCD_Char_BarGraph.c ****         if(fullChars >= maxCharacters)
 124              		.loc 1 120 0
 125 0020 B542     		cmp	r5, r6
 126 0022 00D3     		bcc	.L5
 121:Generated_Source\PSoC4/LCD_Char_BarGraph.c ****         {
 122:Generated_Source\PSoC4/LCD_Char_BarGraph.c ****             fullChars = maxCharacters;
 127              		.loc 1 122 0
 128 0024 3500     		movs	r5, r6
 129              	.LVL18:
 130              	.L5:
 123:Generated_Source\PSoC4/LCD_Char_BarGraph.c ****         }
 124:Generated_Source\PSoC4/LCD_Char_BarGraph.c **** 
 125:Generated_Source\PSoC4/LCD_Char_BarGraph.c ****         /* Put Cursor at start position */
 126:Generated_Source\PSoC4/LCD_Char_BarGraph.c ****         LCD_Char_Position(row, column);
 131              		.loc 1 126 0
 132 0026 0199     		ldr	r1, [sp, #4]
 133 0028 0098     		ldr	r0, [sp]
 134 002a FFF7FEFF 		bl	LCD_Char_Position
 135              	.LVL19:
 127:Generated_Source\PSoC4/LCD_Char_BarGraph.c **** 
 128:Generated_Source\PSoC4/LCD_Char_BarGraph.c ****         /* Write full characters */
 129:Generated_Source\PSoC4/LCD_Char_BarGraph.c ****         for(count8 = 0u; count8 < fullChars; count8++)
 136              		.loc 1 129 0
 137 002e 0024     		movs	r4, #0
 138 0030 04E0     		b	.L6
 139              	.LVL20:
 140              	.L7:
 130:Generated_Source\PSoC4/LCD_Char_BarGraph.c ****         {
 131:Generated_Source\PSoC4/LCD_Char_BarGraph.c ****             LCD_Char_WriteData(LCD_Char_CUSTOM_5);
 141              		.loc 1 131 0 discriminator 3
 142 0032 0520     		movs	r0, #5
 143 0034 FFF7FEFF 		bl	LCD_Char_WriteData
 144              	.LVL21:
 129:Generated_Source\PSoC4/LCD_Char_BarGraph.c ****         {
 145              		.loc 1 129 0 discriminator 3
 146 0038 0134     		adds	r4, r4, #1
 147              	.LVL22:
 148 003a E4B2     		uxtb	r4, r4
 149              	.LVL23:
 150              	.L6:
 129:Generated_Source\PSoC4/LCD_Char_BarGraph.c ****         {
ARM GAS  C:\Users\Zeynep\AppData\Local\Temp\ccM2CZBH.s 			page 6


 151              		.loc 1 129 0 is_stmt 0 discriminator 1
 152 003c AC42     		cmp	r4, r5
 153 003e F8D3     		bcc	.L7
 132:Generated_Source\PSoC4/LCD_Char_BarGraph.c ****         }
 133:Generated_Source\PSoC4/LCD_Char_BarGraph.c **** 
 134:Generated_Source\PSoC4/LCD_Char_BarGraph.c ****         if(fullChars < maxCharacters)
 154              		.loc 1 134 0 is_stmt 1
 155 0040 B542     		cmp	r5, r6
 156 0042 11D2     		bcs	.L4
 135:Generated_Source\PSoC4/LCD_Char_BarGraph.c ****         {
 136:Generated_Source\PSoC4/LCD_Char_BarGraph.c ****             /* Write remaining pixels */
 137:Generated_Source\PSoC4/LCD_Char_BarGraph.c ****             LCD_Char_WriteData(remainingPixels);
 157              		.loc 1 137 0
 158 0044 3800     		movs	r0, r7
 159 0046 FFF7FEFF 		bl	LCD_Char_WriteData
 160              	.LVL24:
 138:Generated_Source\PSoC4/LCD_Char_BarGraph.c **** 
 139:Generated_Source\PSoC4/LCD_Char_BarGraph.c ****             if(fullChars < (maxCharacters - 1u))
 161              		.loc 1 139 0
 162 004a 731E     		subs	r3, r6, #1
 163 004c 9D42     		cmp	r5, r3
 164 004e 06D3     		bcc	.L12
 165 0050 0AE0     		b	.L4
 166              	.L10:
 140:Generated_Source\PSoC4/LCD_Char_BarGraph.c ****             {
 141:Generated_Source\PSoC4/LCD_Char_BarGraph.c ****                 /* Fill with whitespace to end of bar graph */
 142:Generated_Source\PSoC4/LCD_Char_BarGraph.c ****                 for(count8 = 0u; count8 < (maxCharacters - fullChars - 1u); count8++)
 143:Generated_Source\PSoC4/LCD_Char_BarGraph.c ****                 {
 144:Generated_Source\PSoC4/LCD_Char_BarGraph.c ****                     LCD_Char_WriteData(LCD_Char_CUSTOM_0);
 167              		.loc 1 144 0 discriminator 3
 168 0052 0020     		movs	r0, #0
 169 0054 FFF7FEFF 		bl	LCD_Char_WriteData
 170              	.LVL25:
 142:Generated_Source\PSoC4/LCD_Char_BarGraph.c ****                 {
 171              		.loc 1 142 0 discriminator 3
 172 0058 0134     		adds	r4, r4, #1
 173              	.LVL26:
 174 005a E4B2     		uxtb	r4, r4
 175              	.LVL27:
 176 005c 00E0     		b	.L9
 177              	.L12:
 178 005e 0024     		movs	r4, #0
 179              	.LVL28:
 180              	.L9:
 142:Generated_Source\PSoC4/LCD_Char_BarGraph.c ****                 {
 181              		.loc 1 142 0 is_stmt 0 discriminator 1
 182 0060 731B     		subs	r3, r6, r5
 183 0062 013B     		subs	r3, r3, #1
 184 0064 9C42     		cmp	r4, r3
 185 0066 F4D3     		bcc	.L10
 186              	.L4:
 145:Generated_Source\PSoC4/LCD_Char_BarGraph.c ****                 }
 146:Generated_Source\PSoC4/LCD_Char_BarGraph.c ****             }
 147:Generated_Source\PSoC4/LCD_Char_BarGraph.c ****         }
 148:Generated_Source\PSoC4/LCD_Char_BarGraph.c ****     }
 187              		.loc 1 148 0 is_stmt 1
 188 0068 03B0     		add	sp, sp, #12
ARM GAS  C:\Users\Zeynep\AppData\Local\Temp\ccM2CZBH.s 			page 7


 189              		@ sp needed
 190              	.LVL29:
 191              	.LVL30:
 192              	.LVL31:
 193 006a F0BD     		pop	{r4, r5, r6, r7, pc}
 194              		.cfi_endproc
 195              	.LFE1:
 196              		.size	LCD_Char_DrawHorizontalBG, .-LCD_Char_DrawHorizontalBG
 197              		.global	LCD_Char_customFonts
 198              		.section	.rodata
 199              		.align	2
 200              		.type	LCD_Char_customFonts, %object
 201              		.size	LCD_Char_customFonts, 64
 202              	LCD_Char_customFonts:
 203 0000 00       		.byte	0
 204 0001 00       		.byte	0
 205 0002 00       		.byte	0
 206 0003 00       		.byte	0
 207 0004 00       		.byte	0
 208 0005 00       		.byte	0
 209 0006 00       		.byte	0
 210 0007 00       		.byte	0
 211 0008 10       		.byte	16
 212 0009 10       		.byte	16
 213 000a 10       		.byte	16
 214 000b 10       		.byte	16
 215 000c 10       		.byte	16
 216 000d 10       		.byte	16
 217 000e 10       		.byte	16
 218 000f 10       		.byte	16
 219 0010 18       		.byte	24
 220 0011 18       		.byte	24
 221 0012 18       		.byte	24
 222 0013 18       		.byte	24
 223 0014 18       		.byte	24
 224 0015 18       		.byte	24
 225 0016 18       		.byte	24
 226 0017 18       		.byte	24
 227 0018 1C       		.byte	28
 228 0019 1C       		.byte	28
 229 001a 1C       		.byte	28
 230 001b 1C       		.byte	28
 231 001c 1C       		.byte	28
 232 001d 1C       		.byte	28
 233 001e 1C       		.byte	28
 234 001f 1C       		.byte	28
 235 0020 1E       		.byte	30
 236 0021 1E       		.byte	30
 237 0022 1E       		.byte	30
 238 0023 1E       		.byte	30
 239 0024 1E       		.byte	30
 240 0025 1E       		.byte	30
 241 0026 1E       		.byte	30
 242 0027 1E       		.byte	30
 243 0028 1F       		.byte	31
 244 0029 1F       		.byte	31
 245 002a 1F       		.byte	31
ARM GAS  C:\Users\Zeynep\AppData\Local\Temp\ccM2CZBH.s 			page 8


 246 002b 1F       		.byte	31
 247 002c 1F       		.byte	31
 248 002d 1F       		.byte	31
 249 002e 1F       		.byte	31
 250 002f 1F       		.byte	31
 251 0030 00       		.byte	0
 252 0031 00       		.byte	0
 253 0032 00       		.byte	0
 254 0033 00       		.byte	0
 255 0034 00       		.byte	0
 256 0035 00       		.byte	0
 257 0036 00       		.byte	0
 258 0037 00       		.byte	0
 259 0038 00       		.byte	0
 260 0039 00       		.byte	0
 261 003a 00       		.byte	0
 262 003b 00       		.byte	0
 263 003c 00       		.byte	0
 264 003d 00       		.byte	0
 265 003e 00       		.byte	0
 266 003f 00       		.byte	0
 267              		.text
 268              	.Letext0:
 269              		.file 2 "Generated_Source\\PSoC4\\LCD_Char.h"
 270              		.file 3 "Generated_Source\\PSoC4\\cytypes.h"