ARM GAS  C:\Users\Zeynep\AppData\Local\Temp\cccktoLN.s 			page 1


   1              		.syntax unified
   2              		.cpu cortex-m0
   3              		.fpu softvfp
   4              		.eabi_attribute 20, 1
   5              		.eabi_attribute 21, 1
   6              		.eabi_attribute 23, 3
   7              		.eabi_attribute 24, 1
   8              		.eabi_attribute 25, 1
   9              		.eabi_attribute 26, 1
  10              		.eabi_attribute 30, 1
  11              		.eabi_attribute 34, 0
  12              		.eabi_attribute 18, 4
  13              		.thumb
  14              		.syntax unified
  15              		.file	"main.c"
  16              		.text
  17              	.Ltext0:
  18              		.cfi_sections	.debug_frame
  19              		.section	.text.update_time,"ax",%progbits
  20              		.align	2
  21              		.global	update_time
  22              		.code	16
  23              		.thumb_func
  24              		.type	update_time, %function
  25              	update_time:
  26              	.LFB33:
  27              		.file 1 "main.c"
   1:main.c        **** /* ========================================
   2:main.c        ****  *
   3:main.c        ****  * Copyleft by Shahariar,2015
   4:main.c        ****  * All Rights Released
   5:main.c        ****  * OPEN SOFTWARE, NO WARRENTY 
   6:main.c        ****  *
   7:main.c        ****  * DODGY BROTHERS C CODING Inc.  
   8:main.c        ****  * Programmed With No Style, BUG may appear in Future !!!
   9:main.c        ****  * Non-Precision Soft-Only Clock, will Lose around 12 sec a day, ( may vary for other PSoC chips)
  10:main.c        ****  * ========================================
  11:main.c        **** */
  12:main.c        **** 
  13:main.c        **** // flag variable is a volatile global variable to check interrupt
  14:main.c        **** 
  15:main.c        **** #include <project.h>
  16:main.c        **** volatile int flag=0; 
  17:main.c        **** volatile int press_detect=1;
  18:main.c        **** 
  19:main.c        **** // Initial time ,set  here
  20:main.c        **** int sec =05;
  21:main.c        **** int minu =26;
  22:main.c        **** int hr = 8;
  23:main.c        **** int am_pm_flag=1; //  1 for PM , 0 for AM
  24:main.c        **** void update_time(void);
  25:main.c        **** 
  26:main.c        **** int main()
  27:main.c        **** 
  28:main.c        **** {
  29:main.c        **** // Start Timer
  30:main.c        ****     TCPWM_1_Start();
ARM GAS  C:\Users\Zeynep\AppData\Local\Temp\cccktoLN.s 			page 2


  31:main.c        **** // Enable Global Interrupt and start ISR  
  32:main.c        ****     CyGlobalIntEnable; 
  33:main.c        ****     ISR_Start();
  34:main.c        ****     SetTime_ISR_Start();
  35:main.c        **** // ISR code is in the ISR.c file
  36:main.c        ****     
  37:main.c        **** //  Supply 5 Vdd to LCD display from MCU and Power Up Back Light  
  38:main.c        ****     Power_Up_LCD_Pin_1_Write(1); // PSoC Pin 2.0 to LCD Vdd
  39:main.c        ****     Back_Light_On_N_Write(0);    // PSoC Pin 3.6 to LDC K (BackLight -Ve)
  40:main.c        ****     Back_Light_On_P_Write(1);    // PSoC Pin 3.5 to LDC A (BackLight +Ve)
  41:main.c        ****     
  42:main.c        ****     // Vss to PSoC Gnd
  43:main.c        **** 
  44:main.c        **** // Start LCD display    
  45:main.c        ****     LCD_Char_Start();
  46:main.c        ****     LCD_Char_DisplayOn();
  47:main.c        ****     LCD_Char_Position(0,0);
  48:main.c        ****     LCD_Char_PrintString(" PSoC  Software ");
  49:main.c        ****     LCD_Char_Position(1,0);
  50:main.c        ****     LCD_Char_PrintString("Clock");
  51:main.c        ****     LCD_Char_Position(1,14);
  52:main.c        ****     LCD_Char_PrintString("PM");
  53:main.c        ****              
  54:main.c        ****         for(;;)
  55:main.c        ****         {
  56:main.c        ****             // turns off the CPU, saves about 30% (from 10.6 mA to 7.6 mA)
  57:main.c        ****             // wakes up on next timer interrupt
  58:main.c        ****             CySysPmSleep();    
  59:main.c        ****          
  60:main.c        **** // On-kit Switch (Pin 0.7 SW1-Interrupt driven) to increment time 5 minutes        
  61:main.c        ****             if(press_detect==0)
  62:main.c        ****         {
  63:main.c        ****             minu=minu+5;
  64:main.c        ****             update_time();
  65:main.c        ****             CyDelay(50);
  66:main.c        ****             press_detect=1;
  67:main.c        ****         }
  68:main.c        ****             //  clock update code section, executes after interrupt 
  69:main.c        ****             if (flag==1)
  70:main.c        ****             {
  71:main.c        ****                 flag=0;
  72:main.c        ****                 sec++;
  73:main.c        ****                 
  74:main.c        ****         
  75:main.c        ****             
  76:main.c        ****                 if (sec>=60)
  77:main.c        ****                 {
  78:main.c        ****                 sec=0;
  79:main.c        ****                 minu++;
  80:main.c        ****                 update_time();
  81:main.c        ****                 }
  82:main.c        ****                 
  83:main.c        ****                 //LCD_Char_ClearDisplay();
  84:main.c        ****                 
  85:main.c        ****                 
  86:main.c        ****             }
  87:main.c        ****             
ARM GAS  C:\Users\Zeynep\AppData\Local\Temp\cccktoLN.s 			page 3


  88:main.c        ****         
  89:main.c        ****                 LED_Write(1);            
  90:main.c        ****          
  91:main.c        ****                 LCD_Char_Position(1,6);
  92:main.c        ****                 LCD_Char_PrintString("        ");
  93:main.c        ****                 LCD_Char_Position(1,6);
  94:main.c        ****                 LCD_Char_PrintNumber(hr);
  95:main.c        ****                 LCD_Char_PrintString(":");
  96:main.c        ****                 LCD_Char_PrintNumber(minu);
  97:main.c        ****                 LCD_Char_PrintString(":");
  98:main.c        ****                 LCD_Char_PrintNumber(sec);
  99:main.c        ****         
 100:main.c        ****                 CyDelay(10);
 101:main.c        ****                 
 102:main.c        ****                 LED_Write(0);
 103:main.c        ****             
 104:main.c        ****                 
 105:main.c        ****                 
 106:main.c        ****         
 107:main.c        ****                 // turns off the CPU, saves about 30% (from 10.6 mA to 7.6 mA)
 108:main.c        ****                 // wakes up on next timer interrupt
 109:main.c        ****             
 110:main.c        ****             
 111:main.c        ****             }
 112:main.c        ****         
 113:main.c        ****        // return 0;
 114:main.c        **** }
 115:main.c        ****           
 116:main.c        **** void update_time(void)
 117:main.c        **** {
  28              		.loc 1 117 0
  29              		.cfi_startproc
  30              		@ args = 0, pretend = 0, frame = 0
  31              		@ frame_needed = 0, uses_anonymous_args = 0
  32 0000 10B5     		push	{r4, lr}
  33              		.cfi_def_cfa_offset 8
  34              		.cfi_offset 4, -8
  35              		.cfi_offset 14, -4
 118:main.c        ****      if (minu>=60)
  36              		.loc 1 118 0
  37 0002 144B     		ldr	r3, .L5
  38 0004 1B68     		ldr	r3, [r3]
  39 0006 3B2B     		cmp	r3, #59
  40 0008 23DD     		ble	.L1
 119:main.c        ****                 {
 120:main.c        ****                     minu=0;
  41              		.loc 1 120 0
  42 000a 124A     		ldr	r2, .L5
  43 000c 0023     		movs	r3, #0
  44 000e 1360     		str	r3, [r2]
 121:main.c        ****                     hr++;
  45              		.loc 1 121 0
  46 0010 5368     		ldr	r3, [r2, #4]
  47 0012 0133     		adds	r3, r3, #1
  48 0014 5360     		str	r3, [r2, #4]
 122:main.c        ****                     if (hr>12)
  49              		.loc 1 122 0
ARM GAS  C:\Users\Zeynep\AppData\Local\Temp\cccktoLN.s 			page 4


  50 0016 0C2B     		cmp	r3, #12
  51 0018 02DD     		ble	.L3
 123:main.c        ****                        {hr=1;}
  52              		.loc 1 123 0
  53 001a 0122     		movs	r2, #1
  54 001c 0D4B     		ldr	r3, .L5
  55 001e 5A60     		str	r2, [r3, #4]
  56              	.L3:
 124:main.c        ****                     if (hr==12 && minu==0)
  57              		.loc 1 124 0
  58 0020 0C4B     		ldr	r3, .L5
  59 0022 5B68     		ldr	r3, [r3, #4]
  60 0024 0C2B     		cmp	r3, #12
  61 0026 14D1     		bne	.L1
 125:main.c        ****                        {am_pm_flag=am_pm_flag^1;
  62              		.loc 1 125 0
  63 0028 0A4A     		ldr	r2, .L5
  64 002a 0B3B     		subs	r3, r3, #11
  65 002c 9168     		ldr	r1, [r2, #8]
  66 002e 4B40     		eors	r3, r1
  67 0030 9360     		str	r3, [r2, #8]
 126:main.c        ****                                 
 127:main.c        ****         if(am_pm_flag==0)
  68              		.loc 1 127 0
  69 0032 07D1     		bne	.L4
 128:main.c        ****         {
 129:main.c        ****             LCD_Char_Position(1,14);
  70              		.loc 1 129 0
  71 0034 0E21     		movs	r1, #14
  72 0036 0120     		movs	r0, #1
  73 0038 FFF7FEFF 		bl	LCD_Char_Position
  74              	.LVL0:
 130:main.c        ****            LCD_Char_PrintString("AM");
  75              		.loc 1 130 0
  76 003c 0648     		ldr	r0, .L5+4
  77 003e FFF7FEFF 		bl	LCD_Char_PrintString
  78              	.LVL1:
  79 0042 06E0     		b	.L1
  80              	.L4:
 131:main.c        ****         }
 132:main.c        ****         else
 133:main.c        ****         {
 134:main.c        ****             LCD_Char_Position(1,14);
  81              		.loc 1 134 0
  82 0044 0E21     		movs	r1, #14
  83 0046 0120     		movs	r0, #1
  84 0048 FFF7FEFF 		bl	LCD_Char_Position
  85              	.LVL2:
 135:main.c        ****            LCD_Char_PrintString("PM");
  86              		.loc 1 135 0
  87 004c 0348     		ldr	r0, .L5+8
  88 004e FFF7FEFF 		bl	LCD_Char_PrintString
  89              	.LVL3:
  90              	.L1:
 136:main.c        ****         
 137:main.c        ****         }
 138:main.c        ****                     
ARM GAS  C:\Users\Zeynep\AppData\Local\Temp\cccktoLN.s 			page 5


 139:main.c        ****                     
 140:main.c        ****                         }
 141:main.c        **** }
 142:main.c        **** }
  91              		.loc 1 142 0
  92              		@ sp needed
  93 0052 10BD     		pop	{r4, pc}
  94              	.L6:
  95              		.align	2
  96              	.L5:
  97 0054 00000000 		.word	.LANCHOR0
  98 0058 00000000 		.word	.LC1
  99 005c 04000000 		.word	.LC3
 100              		.cfi_endproc
 101              	.LFE33:
 102              		.size	update_time, .-update_time
 103              		.section	.text.main,"ax",%progbits
 104              		.align	2
 105              		.global	main
 106              		.code	16
 107              		.thumb_func
 108              		.type	main, %function
 109              	main:
 110              	.LFB32:
  28:main.c        **** // Start Timer
 111              		.loc 1 28 0
 112              		.cfi_startproc
 113              		@ Volatile: function does not return.
 114              		@ args = 0, pretend = 0, frame = 0
 115              		@ frame_needed = 0, uses_anonymous_args = 0
 116 0000 70B5     		push	{r4, r5, r6, lr}
 117              		.cfi_def_cfa_offset 16
 118              		.cfi_offset 4, -16
 119              		.cfi_offset 5, -12
 120              		.cfi_offset 6, -8
 121              		.cfi_offset 14, -4
  30:main.c        **** // Enable Global Interrupt and start ISR  
 122              		.loc 1 30 0
 123 0002 FFF7FEFF 		bl	TCPWM_1_Start
 124              	.LVL4:
  32:main.c        ****     ISR_Start();
 125              		.loc 1 32 0
 126              		.syntax divided
 127              	@ 32 "main.c" 1
 128 0006 62B6     		CPSIE   i
 129              	@ 0 "" 2
  33:main.c        ****     SetTime_ISR_Start();
 130              		.loc 1 33 0
 131              		.thumb
 132              		.syntax unified
 133 0008 FFF7FEFF 		bl	ISR_Start
 134              	.LVL5:
  34:main.c        **** // ISR code is in the ISR.c file
 135              		.loc 1 34 0
 136 000c FFF7FEFF 		bl	SetTime_ISR_Start
 137              	.LVL6:
  38:main.c        ****     Back_Light_On_N_Write(0);    // PSoC Pin 3.6 to LDC K (BackLight -Ve)
ARM GAS  C:\Users\Zeynep\AppData\Local\Temp\cccktoLN.s 			page 6


 138              		.loc 1 38 0
 139 0010 0120     		movs	r0, #1
 140 0012 FFF7FEFF 		bl	Power_Up_LCD_Pin_1_Write
 141              	.LVL7:
  39:main.c        ****     Back_Light_On_P_Write(1);    // PSoC Pin 3.5 to LDC A (BackLight +Ve)
 142              		.loc 1 39 0
 143 0016 0020     		movs	r0, #0
 144 0018 FFF7FEFF 		bl	Back_Light_On_N_Write
 145              	.LVL8:
  40:main.c        ****     
 146              		.loc 1 40 0
 147 001c 0120     		movs	r0, #1
 148 001e FFF7FEFF 		bl	Back_Light_On_P_Write
 149              	.LVL9:
  45:main.c        ****     LCD_Char_DisplayOn();
 150              		.loc 1 45 0
 151 0022 FFF7FEFF 		bl	LCD_Char_Start
 152              	.LVL10:
  46:main.c        ****     LCD_Char_Position(0,0);
 153              		.loc 1 46 0
 154 0026 0C20     		movs	r0, #12
 155 0028 FFF7FEFF 		bl	LCD_Char_WriteControl
 156              	.LVL11:
  47:main.c        ****     LCD_Char_PrintString(" PSoC  Software ");
 157              		.loc 1 47 0
 158 002c 0021     		movs	r1, #0
 159 002e 0020     		movs	r0, #0
 160 0030 FFF7FEFF 		bl	LCD_Char_Position
 161              	.LVL12:
  48:main.c        ****     LCD_Char_Position(1,0);
 162              		.loc 1 48 0
 163 0034 3148     		ldr	r0, .L11
 164 0036 FFF7FEFF 		bl	LCD_Char_PrintString
 165              	.LVL13:
  49:main.c        ****     LCD_Char_PrintString("Clock");
 166              		.loc 1 49 0
 167 003a 0021     		movs	r1, #0
 168 003c 0120     		movs	r0, #1
 169 003e FFF7FEFF 		bl	LCD_Char_Position
 170              	.LVL14:
  50:main.c        ****     LCD_Char_Position(1,14);
 171              		.loc 1 50 0
 172 0042 2F48     		ldr	r0, .L11+4
 173 0044 FFF7FEFF 		bl	LCD_Char_PrintString
 174              	.LVL15:
  51:main.c        ****     LCD_Char_PrintString("PM");
 175              		.loc 1 51 0
 176 0048 0E21     		movs	r1, #14
 177 004a 0120     		movs	r0, #1
 178 004c FFF7FEFF 		bl	LCD_Char_Position
 179              	.LVL16:
  52:main.c        ****              
 180              		.loc 1 52 0
 181 0050 2C48     		ldr	r0, .L11+8
 182 0052 FFF7FEFF 		bl	LCD_Char_PrintString
 183              	.LVL17:
 184              	.L10:
ARM GAS  C:\Users\Zeynep\AppData\Local\Temp\cccktoLN.s 			page 7


  58:main.c        ****          
 185              		.loc 1 58 0
 186 0056 FFF7FEFF 		bl	CySysPmSleep
 187              	.LVL18:
  61:main.c        ****         {
 188              		.loc 1 61 0
 189 005a 2B4B     		ldr	r3, .L11+12
 190 005c DB68     		ldr	r3, [r3, #12]
 191 005e 002B     		cmp	r3, #0
 192 0060 0AD1     		bne	.L8
  63:main.c        ****             update_time();
 193              		.loc 1 63 0
 194 0062 294C     		ldr	r4, .L11+12
 195 0064 2368     		ldr	r3, [r4]
 196 0066 0533     		adds	r3, r3, #5
 197 0068 2360     		str	r3, [r4]
  64:main.c        ****             CyDelay(50);
 198              		.loc 1 64 0
 199 006a FFF7FEFF 		bl	update_time
 200              	.LVL19:
  65:main.c        ****             press_detect=1;
 201              		.loc 1 65 0
 202 006e 3220     		movs	r0, #50
 203 0070 FFF7FEFF 		bl	CyDelay
 204              	.LVL20:
  66:main.c        ****         }
 205              		.loc 1 66 0
 206 0074 0123     		movs	r3, #1
 207 0076 E360     		str	r3, [r4, #12]
 208              	.L8:
  69:main.c        ****             {
 209              		.loc 1 69 0
 210 0078 244B     		ldr	r3, .L11+16
 211 007a 1B68     		ldr	r3, [r3]
 212 007c 012B     		cmp	r3, #1
 213 007e 10D1     		bne	.L9
  71:main.c        ****                 sec++;
 214              		.loc 1 71 0
 215 0080 0022     		movs	r2, #0
 216 0082 224B     		ldr	r3, .L11+16
 217 0084 1A60     		str	r2, [r3]
  72:main.c        ****                 
 218              		.loc 1 72 0
 219 0086 204A     		ldr	r2, .L11+12
 220 0088 1369     		ldr	r3, [r2, #16]
 221 008a 0133     		adds	r3, r3, #1
 222 008c 1361     		str	r3, [r2, #16]
  76:main.c        ****                 {
 223              		.loc 1 76 0
 224 008e 3B2B     		cmp	r3, #59
 225 0090 07DD     		ble	.L9
  78:main.c        ****                 minu++;
 226              		.loc 1 78 0
 227 0092 1300     		movs	r3, r2
 228 0094 0022     		movs	r2, #0
 229 0096 1A61     		str	r2, [r3, #16]
  79:main.c        ****                 update_time();
ARM GAS  C:\Users\Zeynep\AppData\Local\Temp\cccktoLN.s 			page 8


 230              		.loc 1 79 0
 231 0098 1A68     		ldr	r2, [r3]
 232 009a 0132     		adds	r2, r2, #1
 233 009c 1A60     		str	r2, [r3]
  80:main.c        ****                 }
 234              		.loc 1 80 0
 235 009e FFF7FEFF 		bl	update_time
 236              	.LVL21:
 237              	.L9:
  89:main.c        ****          
 238              		.loc 1 89 0
 239 00a2 0120     		movs	r0, #1
 240 00a4 FFF7FEFF 		bl	LED_Write
 241              	.LVL22:
  91:main.c        ****                 LCD_Char_PrintString("        ");
 242              		.loc 1 91 0
 243 00a8 0621     		movs	r1, #6
 244 00aa 0120     		movs	r0, #1
 245 00ac FFF7FEFF 		bl	LCD_Char_Position
 246              	.LVL23:
  92:main.c        ****                 LCD_Char_Position(1,6);
 247              		.loc 1 92 0
 248 00b0 1748     		ldr	r0, .L11+20
 249 00b2 FFF7FEFF 		bl	LCD_Char_PrintString
 250              	.LVL24:
  93:main.c        ****                 LCD_Char_PrintNumber(hr);
 251              		.loc 1 93 0
 252 00b6 0621     		movs	r1, #6
 253 00b8 0120     		movs	r0, #1
 254 00ba FFF7FEFF 		bl	LCD_Char_Position
 255              	.LVL25:
  94:main.c        ****                 LCD_Char_PrintString(":");
 256              		.loc 1 94 0
 257 00be 124C     		ldr	r4, .L11+12
 258 00c0 6368     		ldr	r3, [r4, #4]
 259 00c2 1804     		lsls	r0, r3, #16
 260 00c4 000C     		lsrs	r0, r0, #16
 261 00c6 FFF7FEFF 		bl	LCD_Char_PrintU32Number
 262              	.LVL26:
  95:main.c        ****                 LCD_Char_PrintNumber(minu);
 263              		.loc 1 95 0
 264 00ca 124D     		ldr	r5, .L11+24
 265 00cc 2800     		movs	r0, r5
 266 00ce FFF7FEFF 		bl	LCD_Char_PrintString
 267              	.LVL27:
  96:main.c        ****                 LCD_Char_PrintString(":");
 268              		.loc 1 96 0
 269 00d2 2368     		ldr	r3, [r4]
 270 00d4 1804     		lsls	r0, r3, #16
 271 00d6 000C     		lsrs	r0, r0, #16
 272 00d8 FFF7FEFF 		bl	LCD_Char_PrintU32Number
 273              	.LVL28:
  97:main.c        ****                 LCD_Char_PrintNumber(sec);
 274              		.loc 1 97 0
 275 00dc 2800     		movs	r0, r5
 276 00de FFF7FEFF 		bl	LCD_Char_PrintString
 277              	.LVL29:
ARM GAS  C:\Users\Zeynep\AppData\Local\Temp\cccktoLN.s 			page 9


  98:main.c        ****         
 278              		.loc 1 98 0
 279 00e2 2069     		ldr	r0, [r4, #16]
 280 00e4 0004     		lsls	r0, r0, #16
 281 00e6 000C     		lsrs	r0, r0, #16
 282 00e8 FFF7FEFF 		bl	LCD_Char_PrintU32Number
 283              	.LVL30:
 100:main.c        ****                 
 284              		.loc 1 100 0
 285 00ec 0A20     		movs	r0, #10
 286 00ee FFF7FEFF 		bl	CyDelay
 287              	.LVL31:
 102:main.c        ****             
 288              		.loc 1 102 0
 289 00f2 0020     		movs	r0, #0
 290 00f4 FFF7FEFF 		bl	LED_Write
 291              	.LVL32:
 111:main.c        ****         
 292              		.loc 1 111 0
 293 00f8 ADE7     		b	.L10
 294              	.L12:
 295 00fa C046     		.align	2
 296              	.L11:
 297 00fc 08000000 		.word	.LC5
 298 0100 1C000000 		.word	.LC7
 299 0104 04000000 		.word	.LC3
 300 0108 00000000 		.word	.LANCHOR0
 301 010c 00000000 		.word	.LANCHOR1
 302 0110 24000000 		.word	.LC12
 303 0114 30000000 		.word	.LC14
 304              		.cfi_endproc
 305              	.LFE32:
 306              		.size	main, .-main
 307              		.global	am_pm_flag
 308              		.global	hr
 309              		.global	minu
 310              		.global	sec
 311              		.global	press_detect
 312              		.global	flag
 313              		.data
 314              		.align	2
 315              		.set	.LANCHOR0,. + 0
 316              		.type	minu, %object
 317              		.size	minu, 4
 318              	minu:
 319 0000 1A000000 		.word	26
 320              		.type	hr, %object
 321              		.size	hr, 4
 322              	hr:
 323 0004 08000000 		.word	8
 324              		.type	am_pm_flag, %object
 325              		.size	am_pm_flag, 4
 326              	am_pm_flag:
 327 0008 01000000 		.word	1
 328              		.type	press_detect, %object
 329              		.size	press_detect, 4
 330              	press_detect:
ARM GAS  C:\Users\Zeynep\AppData\Local\Temp\cccktoLN.s 			page 10


 331 000c 01000000 		.word	1
 332              		.type	sec, %object
 333              		.size	sec, 4
 334              	sec:
 335 0010 05000000 		.word	5
 336              		.section	.rodata.str1.4,"aMS",%progbits,1
 337              		.align	2
 338              	.LC1:
 339 0000 414D00   		.ascii	"AM\000"
 340 0003 00       		.space	1
 341              	.LC3:
 342 0004 504D00   		.ascii	"PM\000"
 343 0007 00       		.space	1
 344              	.LC5:
 345 0008 2050536F 		.ascii	" PSoC  Software \000"
 345      43202053 
 345      6F667477 
 345      61726520 
 345      00
 346 0019 000000   		.space	3
 347              	.LC7:
 348 001c 436C6F63 		.ascii	"Clock\000"
 348      6B00
 349 0022 0000     		.space	2
 350              	.LC12:
 351 0024 20202020 		.ascii	"        \000"
 351      20202020 
 351      00
 352 002d 000000   		.space	3
 353              	.LC14:
 354 0030 3A00     		.ascii	":\000"
 355              		.bss
 356              		.align	2
 357              		.set	.LANCHOR1,. + 0
 358              		.type	flag, %object
 359              		.size	flag, 4
 360              	flag:
 361 0000 00000000 		.space	4
 362              		.text
 363              	.Letext0:
 364              		.file 2 "Generated_Source\\PSoC4/LCD_Char.h"
 365              		.file 3 "Generated_Source\\PSoC4/TCPWM_1.h"
 366              		.file 4 "Generated_Source\\PSoC4/ISR.h"
 367              		.file 5 "Generated_Source\\PSoC4/SetTime_ISR.h"
 368              		.file 6 "Generated_Source\\PSoC4/Power_Up_LCD_Pin_1.h"
 369              		.file 7 "Generated_Source\\PSoC4/Back_Light_On_N.h"
 370              		.file 8 "Generated_Source\\PSoC4/Back_Light_On_P.h"
 371              		.file 9 "Generated_Source\\PSoC4/cyPm.h"
 372              		.file 10 "Generated_Source\\PSoC4/CyLib.h"
 373              		.file 11 "Generated_Source\\PSoC4/LED.h"
 374              		.file 12 "Generated_Source\\PSoC4/cytypes.h"